#SYMBOLS
Index	Identifier	Type	Flag	Data	Size	RefCount
0	__CLSWMutex3	9	0	0	4	2
1	__signed_stack_003heartbeat	6	1	4	4	2
2	__CLSCSMutex3	9	0	8	4	2
3	__TextOutMutex	9	0	12	4	4
4	__CLSRMutex3	9	0	16	4	2
5	__signed_stack_002heartbeat	6	1	20	4	2
6	__signed_stack_001UltrasonicScan	6	1	24	4	6
7	__ResetSensorMutex	9	0	28	4	2
8	__signed_stack_002UltrasonicScan	6	1	32	4	2
9	__signed_stack_001scanning	6	1	36	4	2
10	__signed_stack_002scanning	6	1	40	4	2
11	__signed_stack_001TurnTurret	6	1	44	4	2
12	__D0scanning	6	1	48	4	3
13	__D0TurnTurret	6	1	52	4	2
14	__D0UltrasonicScan	6	1	56	4	14
15	__SPTArgsMutex	9	0	60	4	2
16	__D0CenterTurret	6	1	64	4	2
17	__D0heartbeat	6	1	68	4	5
18	__PointOutMutex	9	0	72	4	4
19	__signed_stack_001CenterTurret	6	1	76	4	2
20	__signed_stack_001heartbeat	6	1	80	4	2
21	__RLSBmutex3	9	0	84	4	4
22	__D0SetSensorLowspeed_inline_SetSensorUltrasonic	6	1	88	4	3
23	__DU0SetSensorLowspeed_inline_SetSensorUltrasonic	5	1	92	4	2
24	__Wait_7qG2_ms_7qG2_000_inline_scanning	5	1	96	4	2
25	__rotate_theAngle2	5	1	100	4	2
26	__rotate_angle2	6	1	104	4	6
27	__Wait_7qG2_ms_7qG2_000_inline_UltrasonicScan	5	1	108	4	2
28	__Wait_7qG2_ms_7qG2_000_inline_heartbeat	5	1	112	4	2
29	__rotateMutex2	9	0	116	4	4
30	__rotate_OldRotCount2	4	1	120	2	2
31	__constValNeg180	4	0	122	2	1
32	__scanning_7qG2_scan_value_7qG2_000	4	1	124	2	2
33	__rotate_RotCount2	4	1	126	2	4
34	__constVal200	4	0	128	2	4
35	__UltrasonicScan_7qG2_sensor_value_7qG2_000	4	1	130	2	4
36	__TurnTurret_7qG2_deg_7qG2_000	4	1	132	2	4
37	scanner_currentRotation	4	1	134	2	5
38	__scanning_Spawner_return	1	1	136	1	1
39	__heartbeat_Spawner_return	1	1	137	1	1
40	__zfheartbeat	1	1	138	1	2
41	____initialize_global_data_return	1	1	139	1	3
42	__zfscanning	1	1	140	1	2
43	__zfUltrasonicScan	1	1	141	1	6
44	__UltrasonicScan_return	1	1	142	1	5
45	__SetSensorLowspeed_7qG2_port_7qG2_000_inline_SetSensorUltrasonic_inline_UltrasonicScan	1	1	143	1	4
46	__SetSensorLowspeed_7qG2_bIsPowered_7qG2_000_inline_SetSensorUltrasonic_inline_UltrasonicScan	1	1	144	1	2
47	__constVal96	2	0	145	1	2
48	__TurnTurret_return	1	1	146	1	4
49	__CenterTurret_return	1	1	147	1	4
50	__SetSensorMode_7qG2_mode_7qG2_000_inline_SetSensorLowspeed_inline_SetSensorUltrasonic_inline_UltrasonicScan	1	1	148	1	2
51	__ResetSensor_7qG2_port_7qG2_000_inline_SetSensorLowspeed_inline_SetSensorUltrasonic_inline_UltrasonicScan	1	1	149	1	2
52	__zfSetSensorLowspeed_inline_SetSensorUltrasonic	1	1	150	1	2
53	__SetSensorType_7qG2_port_7qG2_000_inline_SetSensorLowspeed_inline_SetSensorUltrasonic_inline_UltrasonicScan	1	1	151	1	2
54	__SetSensorType_7qG2_type_7qG2_000_inline_SetSensorLowspeed_inline_SetSensorUltrasonic_inline_UltrasonicScan	1	1	152	1	2
55	__SetSensorMode_7qG2_port_7qG2_000_inline_SetSensorLowspeed_inline_SetSensorUltrasonic_inline_UltrasonicScan	1	1	153	1	2
56	__rotate_theTurnPct2	2	1	154	1	4
57	__constVal32	2	0	155	1	5
58	__rotate_thePower2	2	1	156	1	4
59	__rotate_theRVD2	1	1	157	1	3
60	__rotate_rs2	1	1	158	1	2
61	____RotateMotor2_return	1	1	159	1	4
62	____RotateMotor2_sign_tmp	2	1	160	1	4
63	__constVal50	2	0	161	1	1
64	__constVal1	2	0	162	1	9
65	__constVal0	2	1	163	1	11
66	__rotate_theRVI2	1	1	164	1	3
67	__rotate_stop2	1	1	165	1	3
68	__rotate_turnpct2	2	1	166	1	4
69	__rotate_sync2	1	1	167	1	3
70	__rotate_power2	1	1	168	1	5
71	__rotate_firstPort2	1	1	169	1	5
72	__rotate_theRS2	1	1	170	1	3
73	__rotate_theRVP2	1	1	171	1	3
74	__rotate_theRM2	1	1	172	1	4
75	__rotate_theUF2	1	1	173	1	6
76	__rotate_theOM2	1	1	174	1	7
77	____ReadLSBytes3_return	1	1	175	1	4
78	__constVal2	2	0	176	1	2
79	__constVal15	2	0	177	1	6
80	__RLSBResult3	2	1	178	1	7
81	__PFTmp	1	1	179	1	1
82	__RLSBIterations3	1	1	180	1	4
83	__RLSBytesCount3	1	1	181	1	8
84	__ResetSensorTmp	1	1	182	1	2
85	____ResetSensorSubroutine_return	1	1	183	1	3
86	__constVal3	2	0	184	1	1
87	__ResetSensorPort	1	1	185	1	3
88	__CLSRArgs3	8	0	4	12	5
89	__CLSRArgs3.Result	2	1	188	1	5
90	__CLSRArgs3.Port	1	1	189	1	5
91	__CLSRArgs3.Buffer	7	0	190	4	5
92	__CLSRArgs3.Buffer.Buffer_type	1	0	0	1	0
93	__CLSRArgs3.BufferLen	1	1	192	1	5
94	__TextOutArgs	8	0	4	16	12
95	__TextOutArgs.Result	2	1	196	1	12
96	__TextOutArgs.Location	8	0	2	4	12
97	__TextOutArgs.Location.X	4	1	200	2	12
98	__TextOutArgs.Location.Y	4	1	202	2	12
99	__TextOutArgs.Text	7	0	204	4	12
100	__TextOutArgs.Text.Text_type	1	0	0	1	0
101	__TextOutArgs.Options	5	1	208	4	12
102	__PointOutArgs	8	0	3	12	8
103	__PointOutArgs.Result	2	1	212	1	8
104	__PointOutArgs.Location	8	0	2	4	8
105	__PointOutArgs.Location.X	4	1	216	2	8
106	__PointOutArgs.Location.Y	4	1	218	2	8
107	__PointOutArgs.Options	5	1	220	4	8
108	__CLSCSArgs3	8	0	3	4	4
109	__CLSCSArgs3.Result	2	1	224	1	4
110	__CLSCSArgs3.Port	1	1	225	1	4
111	__CLSCSArgs3.BytesReady	1	1	226	1	4
112	__CLSWArgs3	8	0	4	12	5
113	__CLSWArgs3.Result	2	1	228	1	5
114	__CLSWArgs3.Port	1	1	229	1	5
115	__CLSWArgs3.Buffer	7	0	230	4	5
116	__CLSWArgs3.Buffer.Buffer_type	1	0	0	1	0
117	__CLSWArgs3.ReturnLen	1	1	232	1	5
118	__SPTArgs	8	0	5	8	6
119	__SPTArgs.Result	2	1	236	1	6
120	__SPTArgs.Frequency	3	1	238	2	6
121	__SPTArgs.Duration	3	1	240	2	6
122	__SPTArgs.Loop	1	1	242	1	6
123	__SPTArgs.Volume	1	1	243	1	6
124	__RLSReadBuf3	7	0	244	4	10
125	__RLSReadBuf3.__RLSReadBuf3_type	1	0	0	1	0
126	__rotate_ports2	7	0	246	4	7
127	__rotate_ports2.__rotate_ports2_type	1	0	0	1	0
128	__strbufscanning	7	0	248	4	2
129	__strbufscanning.__strbufscanning_type	1	0	0	1	0
130	__RLSLastGoodRead3	7	0	250	4	2
131	__RLSLastGoodRead3.__RLSLastGoodRead3_type	1	0	0	1	0
132	__constStr0009	7	0	252	4	1
133	__constStr0009.__constStr0009_type	1	1	0	1	0
134	__RLSBbufLSWrite1	7	0	254	4	2
135	__RLSBbufLSWrite1.__RLSBbufLSWrite1_type	1	0	0	1	0
#SOURCES
Clump	Line	PC	Source
0	81	0	#line 81 "C:\Users\Pascal\Documents\GitHub\SaSeRoS-Team359\Test\test.nxc"
0	82	0		subcall __initialize_global_data, ____initialize_global_data_return
0	81	2	#line 81 "C:\Users\Pascal\Documents\GitHub\SaSeRoS-Team359\Test\test.nxc"
0	82	2	#line 82 "C:\Users\Pascal\Documents\GitHub\SaSeRoS-Team359\Test\test.nxc"
0	83	2		subcall __heartbeat_Spawner, __heartbeat_Spawner_return
0	82	4	#line 82 "C:\Users\Pascal\Documents\GitHub\SaSeRoS-Team359\Test\test.nxc"
0	83	4	#line 83 "C:\Users\Pascal\Documents\GitHub\SaSeRoS-Team359\Test\test.nxc"
0	84	4		subcall __scanning_Spawner, __scanning_Spawner_return
0	83	6	#line 83 "C:\Users\Pascal\Documents\GitHub\SaSeRoS-Team359\Test\test.nxc"
0	84	6		exit -1, -1
1	4582	0		brtst 4, __rotate_Done2, __rotate_angle2
1	4583	3		set ____RotateMotor2_sign_tmp, 0
1	4583	6		brtst EQ, __sign_2, __rotate_angle2
1	4583	9		set ____RotateMotor2_sign_tmp, -1
1	4583	12		brtst LT, __sign_2, __rotate_angle2
1	4583	15		set ____RotateMotor2_sign_tmp, 1
1	4583	18	__sign_2:	mov __rotate_thePower2, ____RotateMotor2_sign_tmp
1	4584	20		abs __rotate_theAngle2, __rotate_angle2
1	4585	23		mul __rotate_thePower2, __rotate_thePower2, __rotate_power2
1	4587	27		set __rotate_theUF2, 23
1	4588	30		brtst 4, __rotate_NoSync2, __rotate_sync2
1	4589	33		set __rotate_theOM2, 7
1	4590	36		set __rotate_theRM2, 2
1	4591	39		mov __rotate_theTurnPct2, __rotate_turnpct2
1	4592	41		brtst 4, __rotate_Start2, __rotate_theTurnPct2
1	4593	44		add __rotate_theUF2, __rotate_theUF2, __constVal32
1	4594	48		jmp __rotate_Start2
1	4596	50		set __rotate_theOM2, 3
1	4597	53		set __rotate_theRM2, 0
1	4598	56		set __rotate_theTurnPct2, 0
1	4600	59		set __rotate_theRS2, 32
1	4601	62		setout __rotate_ports2, 1, __rotate_theOM2, 8, __rotate_theRM2, 5, __rotate_theAngle2, 6, __rotate_theRS2, 10, __rotate_theRVP2, 11, __rotate_theRVI2, 12, __rotate_theRVD2, 2, __rotate_thePower2, 7, __rotate_turnpct2, 0, __rotate_theUF2
1	4604	85		index __rotate_firstPort2, __rotate_ports2, 65535
1	4606	89		getout __rotate_power2, __rotate_firstPort2, 2
1	4607	93		brtst 4, __rotate_doneRunning2, __rotate_power2
1	4608	96		getout __rotate_rs2, __rotate_firstPort2, 6
1	4609	100		brcmp 4, __rotate_Running2, __rotate_rs2, __constVal32
1	4611	104		brtst 4, __rotate_Reset2, __rotate_stop2
1	4613	107		set __rotate_theOM2, 7
1	4614	110		set __rotate_theUF2, 7
1	4615	113		setout __rotate_ports2, 1, __rotate_theOM2, 8, __constVal1, 6, __rotate_theRS2, 2, __constVal0, 5, __constVal0, 0, __rotate_theUF2
1	4617	128		getout __rotate_RotCount2, __rotate_firstPort2, 14
1	4619	132		mov __rotate_OldRotCount2, __rotate_RotCount2
1	4620	134		wait2 NA, __constVal50
1	4622	137		getout __rotate_RotCount2, __rotate_firstPort2, 14
1	4623	141		brcmp 5, __rotate_Stabilize2, __rotate_OldRotCount2, __rotate_RotCount2
1	4624	145		set __rotate_theOM2, 4
1	4625	148		setout __rotate_ports2, 8, __rotate_theRM2, 6, __constVal0, 1, __rotate_theOM2, 0, __constVal1
1	4628	159		brtst 4, __rotate_Done2, __rotate_theTurnPct2
1	4629	162		setout __rotate_ports2, 0, __constVal32
1	4631	167		subret ____RotateMotor2_return
2	4885	0		setin __constVal1, __ResetSensorPort, 5
2	4887	4		getin __ResetSensorTmp, __ResetSensorPort, 5
2	4888	8		brtst 5, __SensorStillInvalid, __ResetSensorTmp
2	4889	11		subret ____ResetSensorSubroutine_return
3	5784	0	#pragma macro 25
3	5784	0		acquire __CLSWMutex3
3	5784	1		set __CLSWArgs3.Port, 3
3	5784	4		mov __CLSWArgs3.ReturnLen, __RLSBytesCount3
3	5784	6		mov __CLSWArgs3.Buffer, __RLSReadBuf3
3	5784	8		syscall 21, __CLSWArgs3
3	5784	11		mov __RLSBResult3, __CLSWArgs3.Result
3	5784	13		release __CLSWMutex3
3	5784	14	#line 5784 "NXTDefs.h"
3	5785	14		brtst 4, __RLSBReturn3, __RLSBytesCount3
3	5786	17		arrinit __RLSReadBuf3, __constVal0, __RLSBytesCount3
3	5787	21		brtst 5, __RLSBError3, __RLSBResult3
3	5788	24		set __RLSBIterations3, 4
3	5790	27	#pragma macro 23
3	5790	27		acquire __CLSCSMutex3
3	5790	28		set __CLSCSArgs3.Port, 3
3	5790	31		syscall 23, __CLSCSArgs3
3	5790	34		mov __RLSBytesCount3, __CLSCSArgs3.BytesReady
3	5790	36		mov __RLSBResult3, __CLSCSArgs3.Result
3	5790	38		release __CLSCSMutex3
3	5790	39	#line 5790 "NXTDefs.h"
3	5791	39		sub __RLSBIterations3, __RLSBIterations3, __constVal1
3	5792	43		brtst 2, __RLSBError3, __RLSBIterations3
3	5793	46		brtst 0, __RLSBError3, __RLSBResult3
3	5794	49		brtst 4, __RLSBReadyToRead3, __RLSBResult3
3	5796	52		wait2 NA, __constVal15
3	5797	55		jmp __RLSBDoCheckStatus3
3	5800	57	#pragma macro 25
3	5800	57		acquire __CLSRMutex3
3	5800	58		set __CLSRArgs3.Port, 3
3	5800	61		mov __CLSRArgs3.BufferLen, __RLSBytesCount3
3	5800	63		syscall 22, __CLSRArgs3
3	5800	66		mov __RLSReadBuf3, __CLSRArgs3.Buffer
3	5800	68		mov __RLSBResult3, __CLSRArgs3.Result
3	5800	70		release __CLSRMutex3
3	5800	71	#line 5800 "NXTDefs.h"
3	5801	71		brtst 5, __RLSBError3, __RLSBResult3
3	5802	74		mov __RLSLastGoodRead3, __RLSReadBuf3
3	5803	76		jmp __RLSBDone3
3	5805	78		mov __RLSReadBuf3, __RLSLastGoodRead3
3	5807	80		arrsize __RLSBytesCount3, __RLSReadBuf3
3	5809	83		subret ____ReadLSBytes3_return
4	14	0	#line 14 "C:\Users\Pascal\Documents\GitHub\SaSeRoS-Team359\Test\.\../scanner.h"
4	15	0		set __signed_stack_001TurnTurret, 30
4	14	3	#line 14 "C:\Users\Pascal\Documents\GitHub\SaSeRoS-Team359\Test\.\../scanner.h"
4	14	3	#line 14 "C:\Users\Pascal\Documents\GitHub\SaSeRoS-Team359\Test\.\../scanner.h"
4	15	3		mov __D0TurnTurret, __TurnTurret_7qG2_deg_7qG2_000
4	15	5	#line 15 "C:\Users\Pascal\Documents\GitHub\SaSeRoS-Team359\Test\.\../scanner.h"
4	16	5	#pragma macro 33
4	16	5		acquire __rotateMutex2
4	16	6		arrbuild __rotate_ports2, __constVal2
4	16	10		mov __rotate_power2, __signed_stack_001TurnTurret
4	16	12		mov __rotate_angle2, __D0TurnTurret
4	16	14		mov __rotate_turnpct2, __constVal0
4	16	16		mov __rotate_sync2, __constVal0
4	16	18		mov __rotate_stop2, __constVal1
4	16	20		mov __rotate_theRVP2, __constVal32
4	16	22		mov __rotate_theRVI2, __constVal0
4	16	24		mov __rotate_theRVD2, __constVal96
4	16	26		subcall __RotateMotor2, ____RotateMotor2_return
4	16	28		release __rotateMutex2
4	6008	29	#line 6008 "C:\Users\Pascal\Documents\GitHub\SaSeRoS-Team359\Test\.\../scanner.h"
4	15	29	#line 15 "C:\Users\Pascal\Documents\GitHub\SaSeRoS-Team359\Test\.\../scanner.h"
4	16	29	#line 16 "C:\Users\Pascal\Documents\GitHub\SaSeRoS-Team359\Test\.\../scanner.h"
4	16	29	#line 16 "C:\Users\Pascal\Documents\GitHub\SaSeRoS-Team359\Test\.\../scanner.h"
4	17	29		add scanner_currentRotation, scanner_currentRotation, __TurnTurret_7qG2_deg_7qG2_000
4	16	33	#line 16 "C:\Users\Pascal\Documents\GitHub\SaSeRoS-Team359\Test\.\../scanner.h"
4	18	33	#line 18 "C:\Users\Pascal\Documents\GitHub\SaSeRoS-Team359\Test\.\../scanner.h"
4	19	33		subret __TurnTurret_return
5	20	0	#line 20 "C:\Users\Pascal\Documents\GitHub\SaSeRoS-Team359\Test\.\../scanner.h"
5	21	0		set __signed_stack_001CenterTurret, 30
5	20	3	#line 20 "C:\Users\Pascal\Documents\GitHub\SaSeRoS-Team359\Test\.\../scanner.h"
5	20	3	#line 20 "C:\Users\Pascal\Documents\GitHub\SaSeRoS-Team359\Test\.\../scanner.h"
5	20	3	#line 20 "C:\Users\Pascal\Documents\GitHub\SaSeRoS-Team359\Test\.\../scanner.h"
5	20	3	#line 20 "C:\Users\Pascal\Documents\GitHub\SaSeRoS-Team359\Test\.\../scanner.h"
5	20	3	#line 20 "C:\Users\Pascal\Documents\GitHub\SaSeRoS-Team359\Test\.\../scanner.h"
5	21	3		sub __D0CenterTurret, __constVal0, scanner_currentRotation
5	21	7	#line 21 "C:\Users\Pascal\Documents\GitHub\SaSeRoS-Team359\Test\.\../scanner.h"
5	22	7	#pragma macro 33
5	22	7		acquire __rotateMutex2
5	22	8		arrbuild __rotate_ports2, __constVal2
5	22	12		mov __rotate_power2, __signed_stack_001CenterTurret
5	22	14		mov __rotate_angle2, __D0CenterTurret
5	22	16		mov __rotate_turnpct2, __constVal0
5	22	18		mov __rotate_sync2, __constVal0
5	22	20		mov __rotate_stop2, __constVal1
5	22	22		mov __rotate_theRVP2, __constVal32
5	22	24		mov __rotate_theRVI2, __constVal0
5	22	26		mov __rotate_theRVD2, __constVal96
5	22	28		subcall __RotateMotor2, ____RotateMotor2_return
5	22	30		release __rotateMutex2
5	6039	31	#line 6039 "C:\Users\Pascal\Documents\GitHub\SaSeRoS-Team359\Test\.\../scanner.h"
5	21	31	#line 21 "C:\Users\Pascal\Documents\GitHub\SaSeRoS-Team359\Test\.\../scanner.h"
5	22	31	#line 22 "C:\Users\Pascal\Documents\GitHub\SaSeRoS-Team359\Test\.\../scanner.h"
5	23	31		set scanner_currentRotation, 0
5	22	34	#line 22 "C:\Users\Pascal\Documents\GitHub\SaSeRoS-Team359\Test\.\../scanner.h"
5	22	34	#line 22 "C:\Users\Pascal\Documents\GitHub\SaSeRoS-Team359\Test\.\../scanner.h"
5	27	34	#line 27 "C:\Users\Pascal\Documents\GitHub\SaSeRoS-Team359\Test\.\../scanner.h"
5	28	34		subret __CenterTurret_return
6	29	0	#line 29 "C:\Users\Pascal\Documents\GitHub\SaSeRoS-Team359\Test\.\../scanner.h"
6	30	0		set __UltrasonicScan_7qG2_sensor_value_7qG2_000, 0
6	29	3	#line 29 "C:\Users\Pascal\Documents\GitHub\SaSeRoS-Team359\Test\.\../scanner.h"
6	29	3	#line 29 "C:\Users\Pascal\Documents\GitHub\SaSeRoS-Team359\Test\.\../scanner.h"
6	29	3	#line 29 "C:\Users\Pascal\Documents\GitHub\SaSeRoS-Team359\Test\.\../scanner.h"
6	3768	3	#line 3768 "NXCDefs.h"
6	3769	3		mov __SetSensorLowspeed_7qG2_port_7qG2_000_inline_SetSensorUltrasonic_inline_UltrasonicScan, __constVal3
6	3768	5	#line 3768 "NXCDefs.h"
6	3768	5	#line 3768 "NXCDefs.h"
6	3769	5		mov __SetSensorLowspeed_7qG2_bIsPowered_7qG2_000_inline_SetSensorUltrasonic_inline_UltrasonicScan, __constVal1
6	3758	7	#line 3758 "NXCDefs.h"
6	3759	7		mov __SetSensorType_7qG2_port_7qG2_000_inline_SetSensorLowspeed_inline_SetSensorUltrasonic_inline_UltrasonicScan, __SetSensorLowspeed_7qG2_port_7qG2_000_inline_SetSensorUltrasonic_inline_UltrasonicScan
6	3758	9	#line 3758 "NXCDefs.h"
6	3758	9	#line 3758 "NXCDefs.h"
6	3759	9		mov __DU0SetSensorLowspeed_inline_SetSensorUltrasonic, __SetSensorLowspeed_7qG2_bIsPowered_7qG2_000_inline_SetSensorUltrasonic_inline_UltrasonicScan
6	3758	11	#line 3758 "NXCDefs.h"
6	3759	11		tst 5, __zfSetSensorLowspeed_inline_SetSensorUltrasonic, __DU0SetSensorLowspeed_inline_SetSensorUltrasonic
6	3758	14	#line 3758 "NXCDefs.h"
6	3759	14		brtst 4, __001__002__NXC_Label_36, __zfSetSensorLowspeed_inline_SetSensorUltrasonic
6	3758	17	#line 3758 "NXCDefs.h"
6	3759	17		set __D0SetSensorLowspeed_inline_SetSensorUltrasonic, 11
6	3758	20	#line 3758 "NXCDefs.h"
6	3759	20		jmp __001__002__NXC_Label_37
6	3758	22	#line 3758 "NXCDefs.h"
6	3759	22		set __D0SetSensorLowspeed_inline_SetSensorUltrasonic, 10
6	3758	25	#line 3758 "NXCDefs.h"
6	3759	25		mov __SetSensorType_7qG2_type_7qG2_000_inline_SetSensorLowspeed_inline_SetSensorUltrasonic_inline_UltrasonicScan, __D0SetSensorLowspeed_inline_SetSensorUltrasonic
6	3663	27	#line 3663 "NXCDefs.h"
6	3664	27		setin __SetSensorType_7qG2_type_7qG2_000_inline_SetSensorLowspeed_inline_SetSensorUltrasonic_inline_UltrasonicScan, __SetSensorType_7qG2_port_7qG2_000_inline_SetSensorLowspeed_inline_SetSensorUltrasonic_inline_UltrasonicScan, 0
6	3663	31	#line 3663 "NXCDefs.h"
6	3759	31	#line 3759 "NXCDefs.h"
6	3759	31	#line 3759 "NXCDefs.h"
6	3760	31		mov __SetSensorMode_7qG2_port_7qG2_000_inline_SetSensorLowspeed_inline_SetSensorUltrasonic_inline_UltrasonicScan, __SetSensorLowspeed_7qG2_port_7qG2_000_inline_SetSensorUltrasonic_inline_UltrasonicScan
6	3759	33	#line 3759 "NXCDefs.h"
6	3759	33	#line 3759 "NXCDefs.h"
6	3760	33		set __SetSensorMode_7qG2_mode_7qG2_000_inline_SetSensorLowspeed_inline_SetSensorUltrasonic_inline_UltrasonicScan, 0
6	3759	36	#line 3759 "NXCDefs.h"
6	3676	36	#line 3676 "NXCDefs.h"
6	3677	36		setin __SetSensorMode_7qG2_mode_7qG2_000_inline_SetSensorLowspeed_inline_SetSensorUltrasonic_inline_UltrasonicScan, __SetSensorMode_7qG2_port_7qG2_000_inline_SetSensorLowspeed_inline_SetSensorUltrasonic_inline_UltrasonicScan, 1
6	3676	40	#line 3676 "NXCDefs.h"
6	3760	40	#line 3760 "NXCDefs.h"
6	3760	40	#line 3760 "NXCDefs.h"
6	3761	40		mov __ResetSensor_7qG2_port_7qG2_000_inline_SetSensorLowspeed_inline_SetSensorUltrasonic_inline_UltrasonicScan, __SetSensorLowspeed_7qG2_port_7qG2_000_inline_SetSensorUltrasonic_inline_UltrasonicScan
6	3760	42	#line 3760 "NXCDefs.h"
6	3694	42	#line 3694 "NXCDefs.h"
6	3695	42	#pragma macro 4
6	3695	42		acquire __ResetSensorMutex
6	3695	43		mov __ResetSensorPort, __ResetSensor_7qG2_port_7qG2_000_inline_SetSensorLowspeed_inline_SetSensorUltrasonic_inline_UltrasonicScan
6	3695	45		subcall __ResetSensorSubroutine, ____ResetSensorSubroutine_return
6	3695	47		release __ResetSensorMutex
6	6164	48	#line 6164 "NXCDefs.h"
6	3694	48	#line 3694 "NXCDefs.h"
6	3761	48	#line 3761 "NXCDefs.h"
6	3768	48	#line 3768 "NXCDefs.h"
6	32	48	#line 32 "C:\Users\Pascal\Documents\GitHub\SaSeRoS-Team359\Test\.\../scanner.h"
6	32	48	#line 32 "C:\Users\Pascal\Documents\GitHub\SaSeRoS-Team359\Test\.\../scanner.h"
6	33	48		mov __TurnTurret_7qG2_deg_7qG2_000, __constValNeg180
6	32	50	#line 32 "C:\Users\Pascal\Documents\GitHub\SaSeRoS-Team359\Test\.\../scanner.h"
6	34	50	#line 34 "C:\Users\Pascal\Documents\GitHub\SaSeRoS-Team359\Test\.\../scanner.h"
6	35	50		subcall TurnTurret, __TurnTurret_return
6	34	52	#line 34 "C:\Users\Pascal\Documents\GitHub\SaSeRoS-Team359\Test\.\../scanner.h"
6	34	52	#line 34 "C:\Users\Pascal\Documents\GitHub\SaSeRoS-Team359\Test\.\../scanner.h"
6	35	52		mov __signed_stack_001UltrasonicScan, scanner_currentRotation
6	34	54	#line 34 "C:\Users\Pascal\Documents\GitHub\SaSeRoS-Team359\Test\.\../scanner.h"
6	34	54	#line 34 "C:\Users\Pascal\Documents\GitHub\SaSeRoS-Team359\Test\.\../scanner.h"
6	35	54		set __D0UltrasonicScan, 180
6	34	57	#line 34 "C:\Users\Pascal\Documents\GitHub\SaSeRoS-Team359\Test\.\../scanner.h"
6	35	57		cmp 0, __zfUltrasonicScan, __signed_stack_001UltrasonicScan, __D0UltrasonicScan
6	34	61	#line 34 "C:\Users\Pascal\Documents\GitHub\SaSeRoS-Team359\Test\.\../scanner.h"
6	35	61		mov __D0UltrasonicScan, __zfUltrasonicScan
6	36	63	#line 36 "C:\Users\Pascal\Documents\GitHub\SaSeRoS-Team359\Test\.\../scanner.h"
6	37	63		brtst 4, __NXC_Label_564, __zfUltrasonicScan
6	36	66	#line 36 "C:\Users\Pascal\Documents\GitHub\SaSeRoS-Team359\Test\.\../scanner.h"
6	37	66		set __TurnTurret_7qG2_deg_7qG2_000, 20
6	36	69	#line 36 "C:\Users\Pascal\Documents\GitHub\SaSeRoS-Team359\Test\.\../scanner.h"
6	39	69	#line 39 "C:\Users\Pascal\Documents\GitHub\SaSeRoS-Team359\Test\.\../scanner.h"
6	40	69		subcall TurnTurret, __TurnTurret_return
6	39	71	#line 39 "C:\Users\Pascal\Documents\GitHub\SaSeRoS-Team359\Test\.\../scanner.h"
6	39	71	#line 39 "C:\Users\Pascal\Documents\GitHub\SaSeRoS-Team359\Test\.\../scanner.h"
6	40	71		set __Wait_7qG2_ms_7qG2_000_inline_UltrasonicScan, 300
6	39	74	#line 39 "C:\Users\Pascal\Documents\GitHub\SaSeRoS-Team359\Test\.\../scanner.h"
6	7921	74	#line 7921 "NXCDefs.h"
6	7922	74		wait2 NA, __Wait_7qG2_ms_7qG2_000_inline_UltrasonicScan
6	7921	77	#line 7921 "NXCDefs.h"
6	42	77	#line 42 "C:\Users\Pascal\Documents\GitHub\SaSeRoS-Team359\Test\.\../scanner.h"
6	42	77	#line 42 "C:\Users\Pascal\Documents\GitHub\SaSeRoS-Team359\Test\.\../scanner.h"
6	43	77	#pragma macro 26
6	43	77		acquire __RLSBmutex3
6	43	78		mov __RLSReadBuf3, __RLSBbufLSWrite1
6	43	80		set __RLSBytesCount3, 1
6	43	83		wait2 NA, __constVal15
6	43	86		subcall __ReadLSBytes3, ____ReadLSBytes3_return
6	43	88		index __D0UltrasonicScan, __RLSReadBuf3, 65535
6	43	92		release __RLSBmutex3
6	6217	93	#line 6217 "C:\Users\Pascal\Documents\GitHub\SaSeRoS-Team359\Test\.\../scanner.h"
6	42	93	#line 42 "C:\Users\Pascal\Documents\GitHub\SaSeRoS-Team359\Test\.\../scanner.h"
6	43	93		mov __UltrasonicScan_7qG2_sensor_value_7qG2_000, __D0UltrasonicScan
6	42	95	#line 42 "C:\Users\Pascal\Documents\GitHub\SaSeRoS-Team359\Test\.\../scanner.h"
6	42	95	#line 42 "C:\Users\Pascal\Documents\GitHub\SaSeRoS-Team359\Test\.\../scanner.h"
6	6069	95	#line 6069 "NXCDefs.h"
6	6070	95	#pragma macro 6
6	6070	95		acquire __PointOutMutex
6	6070	96		mov __PointOutArgs.Location.X, __constVal200
6	6070	98		mov __PointOutArgs.Location.Y, __constVal200
6	6070	100		mov __PointOutArgs.Options, __constVal1
6	6070	102		syscall 14, __PointOutArgs
6	6070	105		release __PointOutMutex
6	6225	106	#line 6225 "NXCDefs.h"
6	6069	106	#line 6069 "NXCDefs.h"
6	46	106	#line 46 "C:\Users\Pascal\Documents\GitHub\SaSeRoS-Team359\Test\.\../scanner.h"
6	46	106	#line 46 "C:\Users\Pascal\Documents\GitHub\SaSeRoS-Team359\Test\.\../scanner.h"
6	47	106		set __signed_stack_001UltrasonicScan, 0
6	46	109	#line 46 "C:\Users\Pascal\Documents\GitHub\SaSeRoS-Team359\Test\.\../scanner.h"
6	46	109	#line 46 "C:\Users\Pascal\Documents\GitHub\SaSeRoS-Team359\Test\.\../scanner.h"
6	47	109		set __signed_stack_002UltrasonicScan, 0
6	46	112	#line 46 "C:\Users\Pascal\Documents\GitHub\SaSeRoS-Team359\Test\.\../scanner.h"
6	46	112	#line 46 "C:\Users\Pascal\Documents\GitHub\SaSeRoS-Team359\Test\.\../scanner.h"
6	47	112	#pragma macro 26
6	47	112		acquire __RLSBmutex3
6	47	113		mov __RLSReadBuf3, __RLSBbufLSWrite1
6	47	115		set __RLSBytesCount3, 1
6	47	118		wait2 NA, __constVal15
6	47	121		subcall __ReadLSBytes3, ____ReadLSBytes3_return
6	47	123		index __D0UltrasonicScan, __RLSReadBuf3, 65535
6	47	127		release __RLSBmutex3
6	6241	128	#line 6241 "C:\Users\Pascal\Documents\GitHub\SaSeRoS-Team359\Test\.\../scanner.h"
6	49	128	#line 49 "C:\Users\Pascal\Documents\GitHub\SaSeRoS-Team359\Test\.\../scanner.h"
6	50	128		acquire __TextOutMutex
6	49	129	#line 49 "C:\Users\Pascal\Documents\GitHub\SaSeRoS-Team359\Test\.\../scanner.h"
6	50	129		mov __TextOutArgs.Location.X, __signed_stack_001UltrasonicScan
6	49	131	#line 49 "C:\Users\Pascal\Documents\GitHub\SaSeRoS-Team359\Test\.\../scanner.h"
6	50	131		mov __TextOutArgs.Location.Y, __signed_stack_002UltrasonicScan
6	49	133	#line 49 "C:\Users\Pascal\Documents\GitHub\SaSeRoS-Team359\Test\.\../scanner.h"
6	50	133		set __TextOutArgs.Options, 0
6	49	136	#line 49 "C:\Users\Pascal\Documents\GitHub\SaSeRoS-Team359\Test\.\../scanner.h"
6	50	136		numtostr __TextOutArgs.Text, __D0UltrasonicScan
6	49	139	#line 49 "C:\Users\Pascal\Documents\GitHub\SaSeRoS-Team359\Test\.\../scanner.h"
6	50	139		syscall 13, __TextOutArgs
6	49	142	#line 49 "C:\Users\Pascal\Documents\GitHub\SaSeRoS-Team359\Test\.\../scanner.h"
6	50	142		mov __D0UltrasonicScan, __TextOutArgs.Result
6	49	144	#line 49 "C:\Users\Pascal\Documents\GitHub\SaSeRoS-Team359\Test\.\../scanner.h"
6	50	144		release __TextOutMutex
6	49	145	#line 49 "C:\Users\Pascal\Documents\GitHub\SaSeRoS-Team359\Test\.\../scanner.h"
6	49	145	#line 49 "C:\Users\Pascal\Documents\GitHub\SaSeRoS-Team359\Test\.\../scanner.h"
6	49	145	#line 49 "C:\Users\Pascal\Documents\GitHub\SaSeRoS-Team359\Test\.\../scanner.h"
6	50	145		mov __signed_stack_001UltrasonicScan, __UltrasonicScan_7qG2_sensor_value_7qG2_000
6	49	147	#line 49 "C:\Users\Pascal\Documents\GitHub\SaSeRoS-Team359\Test\.\../scanner.h"
6	49	147	#line 49 "C:\Users\Pascal\Documents\GitHub\SaSeRoS-Team359\Test\.\../scanner.h"
6	50	147		set __D0UltrasonicScan, 30
6	49	150	#line 49 "C:\Users\Pascal\Documents\GitHub\SaSeRoS-Team359\Test\.\../scanner.h"
6	50	150		cmp 1, __zfUltrasonicScan, __signed_stack_001UltrasonicScan, __D0UltrasonicScan
6	49	154	#line 49 "C:\Users\Pascal\Documents\GitHub\SaSeRoS-Team359\Test\.\../scanner.h"
6	50	154		mov __D0UltrasonicScan, __zfUltrasonicScan
6	51	156	#line 51 "C:\Users\Pascal\Documents\GitHub\SaSeRoS-Team359\Test\.\../scanner.h"
6	52	156		brtst 4, __NXC_Label_581, __zfUltrasonicScan
6	52	159	#line 52 "C:\Users\Pascal\Documents\GitHub\SaSeRoS-Team359\Test\.\../scanner.h"
6	53	159		subcall CenterTurret, __CenterTurret_return
6	52	161	#line 52 "C:\Users\Pascal\Documents\GitHub\SaSeRoS-Team359\Test\.\../scanner.h"
6	53	161	#line 53 "C:\Users\Pascal\Documents\GitHub\SaSeRoS-Team359\Test\.\../scanner.h"
6	54	161		mov __D0UltrasonicScan, __UltrasonicScan_7qG2_sensor_value_7qG2_000
6	53	163	#line 53 "C:\Users\Pascal\Documents\GitHub\SaSeRoS-Team359\Test\.\../scanner.h"
6	54	163		subret __UltrasonicScan_return
6	53	165	#line 53 "C:\Users\Pascal\Documents\GitHub\SaSeRoS-Team359\Test\.\../scanner.h"
6	58	165	#line 58 "C:\Users\Pascal\Documents\GitHub\SaSeRoS-Team359\Test\.\../scanner.h"
6	58	165	#line 58 "C:\Users\Pascal\Documents\GitHub\SaSeRoS-Team359\Test\.\../scanner.h"
6	59	165		jmp __NXC_Label_563
6	58	167	#line 58 "C:\Users\Pascal\Documents\GitHub\SaSeRoS-Team359\Test\.\../scanner.h"
6	59	167	#line 59 "C:\Users\Pascal\Documents\GitHub\SaSeRoS-Team359\Test\.\../scanner.h"
6	60	167		subcall CenterTurret, __CenterTurret_return
6	59	169	#line 59 "C:\Users\Pascal\Documents\GitHub\SaSeRoS-Team359\Test\.\../scanner.h"
6	60	169	#line 60 "C:\Users\Pascal\Documents\GitHub\SaSeRoS-Team359\Test\.\../scanner.h"
6	61	169		set __D0UltrasonicScan, 0
6	60	172	#line 60 "C:\Users\Pascal\Documents\GitHub\SaSeRoS-Team359\Test\.\../scanner.h"
6	61	172		subret __UltrasonicScan_return
6	60	174	#line 60 "C:\Users\Pascal\Documents\GitHub\SaSeRoS-Team359\Test\.\../scanner.h"
6	61	174	#line 61 "C:\Users\Pascal\Documents\GitHub\SaSeRoS-Team359\Test\.\../scanner.h"
6	62	174		subret __UltrasonicScan_return
7	50	0	#line 50 "C:\Users\Pascal\Documents\GitHub\SaSeRoS-Team359\Test\test.nxc"
7	51	0		set __D0heartbeat, 1
7	51	3	#line 51 "C:\Users\Pascal\Documents\GitHub\SaSeRoS-Team359\Test\test.nxc"
7	52	3		tst 5, __zfheartbeat, __D0heartbeat
7	51	6	#line 51 "C:\Users\Pascal\Documents\GitHub\SaSeRoS-Team359\Test\test.nxc"
7	52	6		brtst 4, __NXC_Label_613, __zfheartbeat
7	51	9	#line 51 "C:\Users\Pascal\Documents\GitHub\SaSeRoS-Team359\Test\test.nxc"
7	52	9		set __signed_stack_001heartbeat, 500
7	51	12	#line 51 "C:\Users\Pascal\Documents\GitHub\SaSeRoS-Team359\Test\test.nxc"
7	51	12	#line 51 "C:\Users\Pascal\Documents\GitHub\SaSeRoS-Team359\Test\test.nxc"
7	52	12		set __signed_stack_002heartbeat, 100
7	51	15	#line 51 "C:\Users\Pascal\Documents\GitHub\SaSeRoS-Team359\Test\test.nxc"
7	51	15	#line 51 "C:\Users\Pascal\Documents\GitHub\SaSeRoS-Team359\Test\test.nxc"
7	52	15		set __signed_stack_003heartbeat, 4
7	51	18	#line 51 "C:\Users\Pascal\Documents\GitHub\SaSeRoS-Team359\Test\test.nxc"
7	51	18	#line 51 "C:\Users\Pascal\Documents\GitHub\SaSeRoS-Team359\Test\test.nxc"
7	52	18		set __D0heartbeat, 0
7	52	21	#line 52 "C:\Users\Pascal\Documents\GitHub\SaSeRoS-Team359\Test\test.nxc"
7	53	21		acquire __SPTArgsMutex
7	52	22	#line 52 "C:\Users\Pascal\Documents\GitHub\SaSeRoS-Team359\Test\test.nxc"
7	53	22		mov __SPTArgs.Frequency, __signed_stack_001heartbeat
7	52	24	#line 52 "C:\Users\Pascal\Documents\GitHub\SaSeRoS-Team359\Test\test.nxc"
7	53	24		mov __SPTArgs.Duration, __signed_stack_002heartbeat
7	52	26	#line 52 "C:\Users\Pascal\Documents\GitHub\SaSeRoS-Team359\Test\test.nxc"
7	53	26		mov __SPTArgs.Volume, __signed_stack_003heartbeat
7	52	28	#line 52 "C:\Users\Pascal\Documents\GitHub\SaSeRoS-Team359\Test\test.nxc"
7	53	28		mov __SPTArgs.Loop, __D0heartbeat
7	52	30	#line 52 "C:\Users\Pascal\Documents\GitHub\SaSeRoS-Team359\Test\test.nxc"
7	53	30		syscall 10, __SPTArgs
7	52	33	#line 52 "C:\Users\Pascal\Documents\GitHub\SaSeRoS-Team359\Test\test.nxc"
7	53	33		mov __D0heartbeat, __SPTArgs.Result
7	52	35	#line 52 "C:\Users\Pascal\Documents\GitHub\SaSeRoS-Team359\Test\test.nxc"
7	53	35		release __SPTArgsMutex
7	52	36	#line 52 "C:\Users\Pascal\Documents\GitHub\SaSeRoS-Team359\Test\test.nxc"
7	52	36	#line 52 "C:\Users\Pascal\Documents\GitHub\SaSeRoS-Team359\Test\test.nxc"
7	53	36		set __Wait_7qG2_ms_7qG2_000_inline_heartbeat, 5000
7	52	39	#line 52 "C:\Users\Pascal\Documents\GitHub\SaSeRoS-Team359\Test\test.nxc"
7	7921	39	#line 7921 "NXCDefs.h"
7	7922	39		wait2 NA, __Wait_7qG2_ms_7qG2_000_inline_heartbeat
7	7921	42	#line 7921 "NXCDefs.h"
7	53	42	#line 53 "C:\Users\Pascal\Documents\GitHub\SaSeRoS-Team359\Test\test.nxc"
7	57	42	#line 57 "C:\Users\Pascal\Documents\GitHub\SaSeRoS-Team359\Test\test.nxc"
7	58	42		jmp __NXC_Label_612
7	57	44	#line 57 "C:\Users\Pascal\Documents\GitHub\SaSeRoS-Team359\Test\test.nxc"
7	58	44		exit -1, -1
8	71	0	#line 71 "C:\Users\Pascal\Documents\GitHub\SaSeRoS-Team359\Test\test.nxc"
8	72	0		set __scanning_7qG2_scan_value_7qG2_000, 0
8	71	3	#line 71 "C:\Users\Pascal\Documents\GitHub\SaSeRoS-Team359\Test\test.nxc"
8	71	3	#line 71 "C:\Users\Pascal\Documents\GitHub\SaSeRoS-Team359\Test\test.nxc"
8	72	3		set __D0scanning, 1
8	72	6	#line 72 "C:\Users\Pascal\Documents\GitHub\SaSeRoS-Team359\Test\test.nxc"
8	73	6		tst 5, __zfscanning, __D0scanning
8	72	9	#line 72 "C:\Users\Pascal\Documents\GitHub\SaSeRoS-Team359\Test\test.nxc"
8	73	9		brtst 4, __NXC_Label_643, __zfscanning
8	6069	12	#line 6069 "NXCDefs.h"
8	6070	12	#pragma macro 6
8	6070	12		acquire __PointOutMutex
8	6070	13		mov __PointOutArgs.Location.X, __constVal200
8	6070	15		mov __PointOutArgs.Location.Y, __constVal200
8	6070	17		mov __PointOutArgs.Options, __constVal1
8	6070	19		syscall 14, __PointOutArgs
8	6070	22		release __PointOutMutex
8	6718	23	#line 6718 "NXCDefs.h"
8	6069	23	#line 6069 "NXCDefs.h"
8	73	23	#line 73 "C:\Users\Pascal\Documents\GitHub\SaSeRoS-Team359\Test\test.nxc"
8	73	23	#line 73 "C:\Users\Pascal\Documents\GitHub\SaSeRoS-Team359\Test\test.nxc"
8	74	23		set __signed_stack_001scanning, 0
8	73	26	#line 73 "C:\Users\Pascal\Documents\GitHub\SaSeRoS-Team359\Test\test.nxc"
8	73	26	#line 73 "C:\Users\Pascal\Documents\GitHub\SaSeRoS-Team359\Test\test.nxc"
8	74	26		set __signed_stack_002scanning, 0
8	73	29	#line 73 "C:\Users\Pascal\Documents\GitHub\SaSeRoS-Team359\Test\test.nxc"
8	73	29	#line 73 "C:\Users\Pascal\Documents\GitHub\SaSeRoS-Team359\Test\test.nxc"
8	74	29		strcat __strbufscanning, __constStr0009
8	74	33	#line 74 "C:\Users\Pascal\Documents\GitHub\SaSeRoS-Team359\Test\test.nxc"
8	75	33		acquire __TextOutMutex
8	74	34	#line 74 "C:\Users\Pascal\Documents\GitHub\SaSeRoS-Team359\Test\test.nxc"
8	75	34		mov __TextOutArgs.Location.X, __signed_stack_001scanning
8	74	36	#line 74 "C:\Users\Pascal\Documents\GitHub\SaSeRoS-Team359\Test\test.nxc"
8	75	36		mov __TextOutArgs.Location.Y, __signed_stack_002scanning
8	74	38	#line 74 "C:\Users\Pascal\Documents\GitHub\SaSeRoS-Team359\Test\test.nxc"
8	75	38		set __TextOutArgs.Options, 0
8	74	41	#line 74 "C:\Users\Pascal\Documents\GitHub\SaSeRoS-Team359\Test\test.nxc"
8	75	41		mov __TextOutArgs.Text, __strbufscanning
8	74	43	#line 74 "C:\Users\Pascal\Documents\GitHub\SaSeRoS-Team359\Test\test.nxc"
8	75	43		syscall 13, __TextOutArgs
8	74	46	#line 74 "C:\Users\Pascal\Documents\GitHub\SaSeRoS-Team359\Test\test.nxc"
8	75	46		mov __D0scanning, __TextOutArgs.Result
8	74	48	#line 74 "C:\Users\Pascal\Documents\GitHub\SaSeRoS-Team359\Test\test.nxc"
8	75	48		release __TextOutMutex
8	74	49	#line 74 "C:\Users\Pascal\Documents\GitHub\SaSeRoS-Team359\Test\test.nxc"
8	74	49	#line 74 "C:\Users\Pascal\Documents\GitHub\SaSeRoS-Team359\Test\test.nxc"
8	75	49		set __Wait_7qG2_ms_7qG2_000_inline_scanning, 300
8	74	52	#line 74 "C:\Users\Pascal\Documents\GitHub\SaSeRoS-Team359\Test\test.nxc"
8	7921	52	#line 7921 "NXCDefs.h"
8	7922	52		wait2 NA, __Wait_7qG2_ms_7qG2_000_inline_scanning
8	7921	55	#line 7921 "NXCDefs.h"
8	75	55	#line 75 "C:\Users\Pascal\Documents\GitHub\SaSeRoS-Team359\Test\test.nxc"
8	77	55	#line 77 "C:\Users\Pascal\Documents\GitHub\SaSeRoS-Team359\Test\test.nxc"
8	78	55		subcall UltrasonicScan, __UltrasonicScan_return
8	77	57	#line 77 "C:\Users\Pascal\Documents\GitHub\SaSeRoS-Team359\Test\test.nxc"
8	78	57		mov __scanning_7qG2_scan_value_7qG2_000, __D0UltrasonicScan
8	77	59	#line 77 "C:\Users\Pascal\Documents\GitHub\SaSeRoS-Team359\Test\test.nxc"
8	77	59	#line 77 "C:\Users\Pascal\Documents\GitHub\SaSeRoS-Team359\Test\test.nxc"
8	80	59	#line 80 "C:\Users\Pascal\Documents\GitHub\SaSeRoS-Team359\Test\test.nxc"
8	81	59		jmp __NXC_Label_642
8	80	61	#line 80 "C:\Users\Pascal\Documents\GitHub\SaSeRoS-Team359\Test\test.nxc"
8	81	61		exit -1, -1
9	0	0		subret __heartbeat_Spawner_return
10	0	0		exit 0, 1
11	0	0		subret __scanning_Spawner_return
12	0	0		exit 0, 1
13	86	0	#line 86 "C:\Users\Pascal\Documents\GitHub\SaSeRoS-Team359\Test\test.nxc"
13	87	0		subret ____initialize_global_data_return
#CLUMPS
Clump	Name	Offset	File
0	main	0	C:\Users\Pascal\Documents\GitHub\SaSeRoS-Team359\Test\test.nxc
1	__RotateMotor2	9	NXTDefs.h
2	__ResetSensorSubroutine	178	NXTDefs.h
3	__ReadLSBytes3	191	NXTDefs.h
4	TurnTurret	276	C:\Users\Pascal\Documents\GitHub\SaSeRoS-Team359\Test\.\../scanner.h
5	CenterTurret	311	C:\Users\Pascal\Documents\GitHub\SaSeRoS-Team359\Test\.\../scanner.h
6	UltrasonicScan	347	C:\Users\Pascal\Documents\GitHub\SaSeRoS-Team359\Test\.\../scanner.h
7	heartbeat	523	C:\Users\Pascal\Documents\GitHub\SaSeRoS-Team359\Test\test.nxc
8	scanning	570	C:\Users\Pascal\Documents\GitHub\SaSeRoS-Team359\Test\test.nxc
9	__heartbeat_Returner	634	C:\Users\Pascal\Documents\GitHub\SaSeRoS-Team359\Test\test.nxc
10	__heartbeat_Spawner	636	C:\Users\Pascal\Documents\GitHub\SaSeRoS-Team359\Test\test.nxc
11	__scanning_Returner	639	C:\Users\Pascal\Documents\GitHub\SaSeRoS-Team359\Test\test.nxc
12	__scanning_Spawner	641	C:\Users\Pascal\Documents\GitHub\SaSeRoS-Team359\Test\test.nxc
13	__initialize_global_data	644	C:\Users\Pascal\Documents\GitHub\SaSeRoS-Team359\Test\test.nxc
