#SYMBOLS
Index	Identifier	Type	Flag	Data	Size	RefCount
0	__D0TestSensors	6	1	0	4	12
1	__DU0TestLightSensor	5	1	4	4	3
2	__D0TestUsSensor	6	1	8	4	5
3	__DU0TestSensors	5	1	12	4	8
4	__D0TestFrontTouchSensor	6	1	16	4	16
5	__DU0TestBackTouchSensor	5	1	20	4	4
6	__D0TestLightSensor	6	1	24	4	3
7	__DU0TestFrontTouchSensor	5	1	28	4	4
8	__DU0SetSensorLight_inline_TestSensors	5	1	32	4	2
9	__D0SetSensorLight_inline_TestSensors	6	1	36	4	3
10	__DU0SetSensorLowspeed_inline_SetSensorUltrasonic	5	1	40	4	4
11	__D0SetSensorLowspeed_inline_SetSensorUltrasonic	6	1	44	4	6
12	__D0TurnMotor	6	1	48	4	7
13	__DU0TestUsSensor	5	1	52	4	3
14	__D0UltrasonicScan	6	1	56	4	12
15	__D0TurnTurret	6	1	60	4	2
16	__D0TestBackTouchSensor	6	1	64	4	16
17	__D0control	6	1	68	4	2
18	__DU0CheckDirection	5	1	72	4	4
19	__D0detect_edges	6	1	76	4	4
20	__DU0control	5	1	80	4	4
21	__SPTArgsMutex	9	0	84	4	16
22	__RLSBmutex3	9	0	88	4	6
23	__D0CheckDirection	6	1	92	4	5
24	__D0CenterTurret	6	1	96	4	2
25	__DU0handle_edge_detected	5	1	100	4	2
26	__D0Drive_Forward	6	1	104	4	4
27	__D0PlaySound	6	1	108	4	48
28	__D0LongBeep	6	1	112	4	3
29	__D0DetectEdge	6	1	116	4	6
30	__DU0detect_edges	5	1	120	4	2
31	__D0Drive_Backward	6	1	124	4	4
32	__DU0DetectEdge	5	1	128	4	3
33	__signed_stack_002TurnMotor	6	1	132	4	4
34	__signed_stack_001TurnMotor	6	1	136	4	6
35	__signed_stack_004TurnMotor	6	1	140	4	4
36	__signed_stack_003TurnMotor	6	1	144	4	4
37	__signed_stack_001TestLightSensor	6	1	148	4	2
38	__unsigned_stack_002TestFrontTouchSensor	5	1	152	4	4
39	__signed_stack_001TestUsSensor	6	1	156	4	2
40	__signed_stack_001TestSensors	6	1	160	4	6
41	__Wait_7qG2_ms_7qG2_000_inline_handle_edge_detected	5	1	164	4	4
42	__Wait_7qG2_ms_7qG2_000_inline_UltrasonicScan	5	1	168	4	2
43	__Wait_7qG2_ms_7qG2_000_inline_detect_edges	5	1	172	4	2
44	__Wait_7qG2_ms_7qG2_000_inline_control	5	1	176	4	2
45	__signed_stack_001UltrasonicScan	6	1	180	4	4
46	__signed_stack_001TurnTurret	6	1	184	4	2
47	__Wait_7qG2_ms_7qG2_000_inline_CheckDirection	5	1	188	4	2
48	__constValf3P5	10	0	192	4	1
49	__unsigned_stack_001TestFrontTouchSensor	5	1	196	4	4
50	__signed_stack_002DetectEdge	6	1	200	4	2
51	__signed_stack_001DetectEdge	6	1	204	4	4
52	__signed_stack_002LongBeep	6	1	208	4	2
53	__signed_stack_001LongBeep	6	1	212	4	2
54	__signed_stack_001CheckDirection	6	1	216	4	2
55	__signed_stack_001CenterTurret	6	1	220	4	2
56	__signed_stack_002detect_edges	6	1	224	4	4
57	__signed_stack_001detect_edges	6	1	228	4	4
58	__unsigned_stack_001TestBackTouchSensor	5	1	232	4	4
59	__signed_stack_001TestBackTouchSensor	6	1	236	4	4
60	__signed_stack_001TestFrontTouchSensor	6	1	240	4	4
61	__unsigned_stack_002TestBackTouchSensor	5	1	244	4	4
62	__signed_stack_001PlaySound	6	1	248	4	38
63	__signed_stack_003LongBeep	6	1	252	4	2
64	__signed_stack_003PlaySound	6	1	256	4	14
65	__signed_stack_002PlaySound	6	1	260	4	14
66	__CLSWMutex3	9	0	264	4	2
67	__CLSCSMutex3	9	0	268	4	2
68	__TextOutMutex	9	0	272	4	6
69	__CLSRMutex3	9	0	276	4	2
70	__rotate_theAngle2	5	1	280	4	2
71	__rotate_angle3	6	1	284	4	6
72	__rotate_theAngle3	5	1	288	4	2
73	__rotate_angle2	6	1	292	4	6
74	__ResetSensorMutex	9	0	296	4	10
75	__rotateMutex2	9	0	300	4	4
76	__PlaySound_7qG2_i_7qG2_001	4	1	304	2	15
77	__constVal150	4	0	306	2	1
78	__UltrasonicScan_7qG2_sensor_value_7qG2_000	4	1	308	2	2
79	__constVal500	4	0	310	2	1
80	__constVal523	4	0	312	2	3
81	__Drive_Forward_7qG2_pwr_7qG2_000	4	1	314	2	3
82	scanner_currentRotation	4	1	316	2	6
83	__Drive_Backward_7qG2_pwr_7qG2_000	4	1	318	2	3
84	__TestLightSensor_7qG2_lightValue_7qG2_000	4	1	320	2	2
85	__CheckDirection_7qG2_dir_7qG2_000	4	1	322	2	4
86	__PlaySound_7qG2_aCode_7qG2_000	4	1	324	2	7
87	__TurnTurret_7qG2_deg_7qG2_000	4	1	326	2	7
88	__rotate_RotCount2	4	1	328	2	4
89	__constVal200	4	0	330	2	3
90	__rotate_OldRotCount3	4	1	332	2	2
91	__TurnRobot_7qG2_deg_7qG2_000	4	1	334	2	3
92	__UltrasonicScan_7qG2_returnval_7qG2_002	4	1	336	2	2
93	__rotate_RotCount3	4	1	338	2	4
94	__constValNeg180	4	0	340	2	1
95	__TurnMotor_7qG2_deg_7qG2_000	4	1	342	2	4
96	__rotate_OldRotCount2	4	1	344	2	2
97	__TurnMotor_7qG2_pwr_7qG2_000	4	1	346	2	3
98	__TurnRobot_7qG2_pwr_7qG2_000	4	1	348	2	3
99	__TestBackTouchSensor_return	1	1	350	1	6
100	__TestLightSensor_return	1	1	351	1	5
101	__TestBackTouchSensor_7qG2_button_7qG2_000	1	1	352	1	4
102	__TestUsSensor_return	1	1	353	1	5
103	__TestSensors_7qG2_touchSensorBack_7qG2_000	1	1	354	1	4
104	__TestSensors_7qG2_lightSensor_7qG2_000	1	1	355	1	4
105	__TestSensors_return	1	1	356	1	3
106	__TestSensors_7qG2_touchSensorFront_7qG2_000	1	1	357	1	4
107	__TestFrontTouchSensor_7qG2_button_7qG2_000	1	1	358	1	4
108	__Stop_Driving_return	1	1	359	1	4
109	__constVal63	2	0	360	1	6
110	__Drive_Forward_return	1	1	361	1	3
111	__TurnMotor_return	1	1	362	1	3
112	__constVal96	2	0	363	1	10
113	__TurnRobot_return	1	1	364	1	4
114	prevFront	1	0	365	1	3
115	prevBack	1	0	366	1	3
116	__TestFrontTouchSensor_return	1	1	367	1	6
117	__PlaySound_return	1	1	368	1	3
118	__Drive_Backward_return	1	1	369	1	3
119	__LongBeep_return	1	1	370	1	3
120	__SetSensorMode_7qG2_port_7qG2_000_inline_SetSensorLowspeed_inline_SetSensorUltrasonic_inline_UltrasonicScan	1	1	371	1	2
121	__SetSensorType_7qG2_type_7qG2_000_inline_SetSensorLowspeed_inline_SetSensorUltrasonic_inline_UltrasonicScan	1	1	372	1	2
122	__ResetSensor_7qG2_port_7qG2_000_inline_SetSensorLowspeed_inline_SetSensorUltrasonic_inline_UltrasonicScan	1	1	373	1	2
123	__SetSensorMode_7qG2_mode_7qG2_000_inline_SetSensorLowspeed_inline_SetSensorUltrasonic_inline_UltrasonicScan	1	1	374	1	2
124	__SetSensorType_7qG2_port_7qG2_000_inline_SetSensorLowspeed_inline_SetSensorUltrasonic_inline_UltrasonicScan	1	1	375	1	2
125	__UltrasonicScan_return	1	1	376	1	5
126	__CheckDirection_return	1	1	377	1	5
127	__SetSensorLowspeed_7qG2_bIsPowered_7qG2_000_inline_SetSensorUltrasonic_inline_UltrasonicScan	1	1	378	1	2
128	__SetSensorLowspeed_7qG2_port_7qG2_000_inline_SetSensorUltrasonic_inline_UltrasonicScan	1	1	379	1	4
129	____initialize_global_data_return	1	1	380	1	3
130	__OnRev_Tmp	2	1	381	1	4
131	__detect_edges_Spawner_return	1	1	382	1	1
132	__control_Spawner_return	1	1	383	1	1
133	__handle_obstacle_detected_return	1	1	384	1	3
134	edge_detected	1	1	385	1	3
135	__rotate_power2	1	1	386	1	5
136	__handle_edge_detected_return	1	1	387	1	3
137	obstacle_detected	1	1	388	1	1
138	__CenterTurret_return	1	1	389	1	4
139	__SetSensorMode_7qG2_port_7qG2_000_inline_SetSensorLight_inline_TestSensors	1	1	390	1	2
140	__SetSensorType_7qG2_type_7qG2_000_inline_SetSensorLight_inline_TestSensors	1	1	391	1	2
141	__ResetSensor_7qG2_port_7qG2_000_inline_SetSensorLight_inline_TestSensors	1	1	392	1	2
142	__SetSensorMode_7qG2_mode_7qG2_000_inline_SetSensorLight_inline_TestSensors	1	1	393	1	2
143	__SetSensorType_7qG2_port_7qG2_000_inline_SetSensorLight_inline_TestSensors	1	1	394	1	2
144	__SetSensorTouch_7qG2_port_7qG2_000_inline_TestSensors	1	1	395	1	8
145	__TestSensors_7qG2_usSensor_7qG2_000	1	1	396	1	4
146	__SetSensorLight_7qG2_bActive_7qG2_000_inline_TestSensors	1	1	397	1	2
147	__SetSensorLight_7qG2_port_7qG2_000_inline_TestSensors	1	1	398	1	4
148	__ResetSensor_7qG2_port_7qG2_000_inline_SetSensorLowspeed_inline_SetSensorUltrasonic_inline_TestSensors	1	1	399	1	2
149	__SetSensorMode_7qG2_mode_7qG2_000_inline_SetSensorLowspeed_inline_SetSensorUltrasonic_inline_TestSensors	1	1	400	1	2
150	__TurnTurret_return	1	1	401	1	7
151	__DetectEdge_return	1	1	402	1	5
152	__SetSensorMode_7qG2_port_7qG2_000_inline_SetSensorLowspeed_inline_SetSensorUltrasonic_inline_TestSensors	1	1	403	1	2
153	__SetSensorLowspeed_7qG2_bIsPowered_7qG2_000_inline_SetSensorUltrasonic_inline_TestSensors	1	1	404	1	2
154	__SetSensorLowspeed_7qG2_port_7qG2_000_inline_SetSensorUltrasonic_inline_TestSensors	1	1	405	1	4
155	__SetSensorType_7qG2_type_7qG2_000_inline_SetSensorLowspeed_inline_SetSensorUltrasonic_inline_TestSensors	1	1	406	1	2
156	__SetSensorType_7qG2_port_7qG2_000_inline_SetSensorLowspeed_inline_SetSensorUltrasonic_inline_TestSensors	1	1	407	1	2
157	____RotateMotor2_sign_tmp	2	1	408	1	4
158	____RotateMotor3_return	1	1	409	1	4
159	____RotateMotor2_return	1	1	410	1	4
160	__zfTestBackTouchSensor	1	1	411	1	14
161	__constVal3	2	0	412	1	8
162	__zfhandle_edge_detected	1	1	413	1	2
163	__zfPlaySound	1	1	414	1	27
164	____RotateMotor3_sign_tmp	2	1	415	1	4
165	__constVal50	2	0	416	1	3
166	__rotate_theTurnPct3	2	1	417	1	4
167	__constVal32	2	0	418	1	30
168	__rotate_thePower3	2	1	419	1	4
169	__zfTestSensors	1	1	420	1	17
170	__constVal0	2	1	421	1	48
171	__zfTestFrontTouchSensor	1	1	422	1	14
172	__zfTestLightSensor	1	1	423	1	3
173	__constVal1	2	0	424	1	23
174	__RLSBIterations3	1	1	425	1	4
175	__RLSBytesCount3	1	1	426	1	9
176	__constValNeg100	2	0	427	1	1
177	__constVal100	2	0	428	1	2
178	__constVal2	2	0	429	1	3
179	__constVal15	2	0	430	1	12
180	__RLSBResult3	2	1	431	1	7
181	____ReadLSBytes3_return	1	1	432	1	5
182	__PFTmp	1	1	433	1	1
183	__zfDetectEdge	1	1	434	1	3
184	__ResetSensorTmp	1	1	435	1	2
185	__constVal4	2	0	436	1	3
186	__ResetSensorPort	1	1	437	1	7
187	__zfcontrol	1	1	438	1	6
188	__zfCheckDirection	1	1	439	1	3
189	____ResetSensorSubroutine_return	1	1	440	1	7
190	__zfdetect_edges	1	1	441	1	4
191	__rotate_firstPort2	1	1	442	1	5
192	__rotate_rs2	1	1	443	1	2
193	__rotate_theRVD2	1	1	444	1	3
194	__rotate_sync2	1	1	445	1	3
195	__rotate_power3	1	1	446	1	5
196	__rotate_firstPort3	1	1	447	1	5
197	__rotate_thePower2	2	1	448	1	4
198	__rotate_theTurnPct2	2	1	449	1	4
199	__rotate_theOM2	1	1	450	1	7
200	__rotate_stop2	1	1	451	1	3
201	__rotate_turnpct2	2	1	452	1	4
202	__rotate_theUF2	1	1	453	1	6
203	__rotate_theRVP2	1	1	454	1	3
204	__rotate_theRVI2	1	1	455	1	3
205	__rotate_theRM2	1	1	456	1	4
206	__rotate_theRS2	1	1	457	1	3
207	__rotate_theRVP3	1	1	458	1	3
208	__rotate_rs3	1	1	459	1	2
209	__rotate_theRS3	1	1	460	1	3
210	__zfTurnMotor	1	1	461	1	3
211	__zfSetSensorLight_inline_TestSensors	1	1	462	1	2
212	__rotate_theRVI3	1	1	463	1	3
213	__zfUltrasonicScan	1	1	464	1	6
214	__rotate_theRVD3	1	1	465	1	3
215	__zfTestUsSensor	1	1	466	1	3
216	__rotate_turnpct3	2	1	467	1	4
217	__rotate_stop3	1	1	468	1	3
218	__rotate_sync3	1	1	469	1	3
219	__rotate_theUF3	1	1	470	1	6
220	__zfSetSensorLowspeed_inline_SetSensorUltrasonic	1	1	471	1	4
221	__rotate_theRM3	1	1	472	1	4
222	__rotate_theOM3	1	1	473	1	7
223	__PointOutArgs	8	0	3	12	4
224	__PointOutArgs.Result	2	1	476	1	4
225	__PointOutArgs.Location	8	0	2	4	4
226	__PointOutArgs.Location.X	4	1	480	2	4
227	__PointOutArgs.Location.Y	4	1	482	2	4
228	__PointOutArgs.Options	5	1	484	4	4
229	__CLSWArgs3	8	0	4	12	5
230	__CLSWArgs3.Result	2	1	488	1	5
231	__CLSWArgs3.Port	1	1	489	1	5
232	__CLSWArgs3.Buffer	7	0	490	4	5
233	__CLSWArgs3.Buffer.Buffer_type	1	0	0	1	0
234	__CLSWArgs3.ReturnLen	1	1	492	1	5
235	__CLSCSArgs3	8	0	3	4	4
236	__CLSCSArgs3.Result	2	1	496	1	4
237	__CLSCSArgs3.Port	1	1	497	1	4
238	__CLSCSArgs3.BytesReady	1	1	498	1	4
239	__CLSRArgs3	8	0	4	12	5
240	__CLSRArgs3.Result	2	1	500	1	5
241	__CLSRArgs3.Port	1	1	501	1	5
242	__CLSRArgs3.Buffer	7	0	502	4	5
243	__CLSRArgs3.Buffer.Buffer_type	1	0	0	1	0
244	__CLSRArgs3.BufferLen	1	1	504	1	5
245	__SPTArgs	8	0	5	8	48
246	__SPTArgs.Result	2	1	508	1	48
247	__SPTArgs.Frequency	3	1	510	2	48
248	__SPTArgs.Duration	3	1	512	2	48
249	__SPTArgs.Loop	1	1	514	1	48
250	__SPTArgs.Volume	1	1	515	1	48
251	__TextOutArgs	8	0	4	16	18
252	__TextOutArgs.Result	2	1	516	1	18
253	__TextOutArgs.Location	8	0	2	4	18
254	__TextOutArgs.Location.X	4	1	520	2	18
255	__TextOutArgs.Location.Y	4	1	522	2	18
256	__TextOutArgs.Text	7	0	524	4	18
257	__TextOutArgs.Text.Text_type	1	0	0	1	0
258	__TextOutArgs.Options	5	1	528	4	18
259	__constStr0017	7	0	532	4	1
260	__constStr0017.__constStr0017_type	1	1	0	1	0
261	__RLSBbufLSWrite1	7	0	534	4	3
262	__RLSBbufLSWrite1.__RLSBbufLSWrite1_type	1	0	0	1	0
263	__OUT_AB	7	0	536	4	2
264	__OUT_AB.__OUT_AB_type	1	0	0	1	0
265	__rotate_ports2	7	0	538	4	7
266	__rotate_ports2.__rotate_ports2_type	1	0	0	1	0
267	__strbufdetect_edges	7	0	540	4	4
268	__strbufdetect_edges.__strbufdetect_edges_type	1	0	0	1	0
269	__rotate_ports3	7	0	542	4	7
270	__rotate_ports3.__rotate_ports3_type	1	0	0	1	0
271	__constStr0016	7	0	544	4	1
272	__constStr0016.__constStr0016_type	1	1	0	1	0
273	__RLSLastGoodRead3	7	0	546	4	2
274	__RLSLastGoodRead3.__RLSLastGoodRead3_type	1	0	0	1	0
275	__RLSReadBuf3	7	0	548	4	12
276	__RLSReadBuf3.__RLSReadBuf3_type	1	0	0	1	0
#SOURCES
Clump	Line	PC	Source
0	76	0	#line 76 "C:\Users\Pascal\Documents\GitHub\SaSeRoS-Team359\main.nxc"
0	77	0		subcall __initialize_global_data, ____initialize_global_data_return
0	76	2	#line 76 "C:\Users\Pascal\Documents\GitHub\SaSeRoS-Team359\main.nxc"
0	78	2	#line 78 "C:\Users\Pascal\Documents\GitHub\SaSeRoS-Team359\main.nxc"
0	79	2		subcall TestSensors, __TestSensors_return
0	78	4	#line 78 "C:\Users\Pascal\Documents\GitHub\SaSeRoS-Team359\main.nxc"
0	80	4	#line 80 "C:\Users\Pascal\Documents\GitHub\SaSeRoS-Team359\main.nxc"
0	81	4		subcall __control_Spawner, __control_Spawner_return
0	80	6	#line 80 "C:\Users\Pascal\Documents\GitHub\SaSeRoS-Team359\main.nxc"
0	81	6	#line 81 "C:\Users\Pascal\Documents\GitHub\SaSeRoS-Team359\main.nxc"
0	82	6		subcall __detect_edges_Spawner, __detect_edges_Spawner_return
0	81	8	#line 81 "C:\Users\Pascal\Documents\GitHub\SaSeRoS-Team359\main.nxc"
0	82	8		exit -1, -1
1	4582	0		brtst 4, __rotate_Done2, __rotate_angle2
1	4583	3		set ____RotateMotor2_sign_tmp, 0
1	4583	6		brtst EQ, __sign_2, __rotate_angle2
1	4583	9		set ____RotateMotor2_sign_tmp, -1
1	4583	12		brtst LT, __sign_2, __rotate_angle2
1	4583	15		set ____RotateMotor2_sign_tmp, 1
1	4583	18	__sign_2:	mov __rotate_thePower2, ____RotateMotor2_sign_tmp
1	4584	20		abs __rotate_theAngle2, __rotate_angle2
1	4585	23		mul __rotate_thePower2, __rotate_thePower2, __rotate_power2
1	4587	27		set __rotate_theUF2, 23
1	4588	30		brtst 4, __rotate_NoSync2, __rotate_sync2
1	4589	33		set __rotate_theOM2, 7
1	4590	36		set __rotate_theRM2, 2
1	4591	39		mov __rotate_theTurnPct2, __rotate_turnpct2
1	4592	41		brtst 4, __rotate_Start2, __rotate_theTurnPct2
1	4593	44		add __rotate_theUF2, __rotate_theUF2, __constVal32
1	4594	48		jmp __rotate_Start2
1	4596	50		set __rotate_theOM2, 3
1	4597	53		set __rotate_theRM2, 0
1	4598	56		set __rotate_theTurnPct2, 0
1	4600	59		set __rotate_theRS2, 32
1	4601	62		setout __rotate_ports2, 1, __rotate_theOM2, 8, __rotate_theRM2, 5, __rotate_theAngle2, 6, __rotate_theRS2, 10, __rotate_theRVP2, 11, __rotate_theRVI2, 12, __rotate_theRVD2, 2, __rotate_thePower2, 7, __rotate_turnpct2, 0, __rotate_theUF2
1	4604	85		index __rotate_firstPort2, __rotate_ports2, 65535
1	4606	89		getout __rotate_power2, __rotate_firstPort2, 2
1	4607	93		brtst 4, __rotate_doneRunning2, __rotate_power2
1	4608	96		getout __rotate_rs2, __rotate_firstPort2, 6
1	4609	100		brcmp 4, __rotate_Running2, __rotate_rs2, __constVal32
1	4611	104		brtst 4, __rotate_Reset2, __rotate_stop2
1	4613	107		set __rotate_theOM2, 7
1	4614	110		set __rotate_theUF2, 7
1	4615	113		setout __rotate_ports2, 1, __rotate_theOM2, 8, __constVal1, 6, __rotate_theRS2, 2, __constVal0, 5, __constVal0, 0, __rotate_theUF2
1	4617	128		getout __rotate_RotCount2, __rotate_firstPort2, 14
1	4619	132		mov __rotate_OldRotCount2, __rotate_RotCount2
1	4620	134		wait2 NA, __constVal50
1	4622	137		getout __rotate_RotCount2, __rotate_firstPort2, 14
1	4623	141		brcmp 5, __rotate_Stabilize2, __rotate_OldRotCount2, __rotate_RotCount2
1	4624	145		set __rotate_theOM2, 4
1	4625	148		setout __rotate_ports2, 8, __rotate_theRM2, 6, __constVal0, 1, __rotate_theOM2, 0, __constVal1
1	4628	159		brtst 4, __rotate_Done2, __rotate_theTurnPct2
1	4629	162		setout __rotate_ports2, 0, __constVal32
1	4631	167		subret ____RotateMotor2_return
2	4635	0		brtst 4, __rotate_Done3, __rotate_angle3
2	4636	3		set ____RotateMotor3_sign_tmp, 0
2	4636	6		brtst EQ, __sign_3, __rotate_angle3
2	4636	9		set ____RotateMotor3_sign_tmp, -1
2	4636	12		brtst LT, __sign_3, __rotate_angle3
2	4636	15		set ____RotateMotor3_sign_tmp, 1
2	4636	18	__sign_3:	mov __rotate_thePower3, ____RotateMotor3_sign_tmp
2	4637	20		abs __rotate_theAngle3, __rotate_angle3
2	4638	23		mul __rotate_thePower3, __rotate_thePower3, __rotate_power3
2	4640	27		set __rotate_theUF3, 23
2	4641	30		brtst 4, __rotate_NoSync3, __rotate_sync3
2	4642	33		set __rotate_theOM3, 7
2	4643	36		set __rotate_theRM3, 2
2	4644	39		mov __rotate_theTurnPct3, __rotate_turnpct3
2	4645	41		brtst 4, __rotate_Start3, __rotate_theTurnPct3
2	4646	44		add __rotate_theUF3, __rotate_theUF3, __constVal32
2	4647	48		jmp __rotate_Start3
2	4649	50		set __rotate_theOM3, 3
2	4650	53		set __rotate_theRM3, 0
2	4651	56		set __rotate_theTurnPct3, 0
2	4653	59		set __rotate_theRS3, 32
2	4654	62		setout __rotate_ports3, 1, __rotate_theOM3, 8, __rotate_theRM3, 5, __rotate_theAngle3, 6, __rotate_theRS3, 10, __rotate_theRVP3, 11, __rotate_theRVI3, 12, __rotate_theRVD3, 2, __rotate_thePower3, 7, __rotate_turnpct3, 0, __rotate_theUF3
2	4657	85		index __rotate_firstPort3, __rotate_ports3, 65535
2	4659	89		getout __rotate_power3, __rotate_firstPort3, 2
2	4660	93		brtst 4, __rotate_doneRunning3, __rotate_power3
2	4661	96		getout __rotate_rs3, __rotate_firstPort3, 6
2	4662	100		brcmp 4, __rotate_Running3, __rotate_rs3, __constVal32
2	4664	104		brtst 4, __rotate_Reset3, __rotate_stop3
2	4666	107		set __rotate_theOM3, 7
2	4667	110		set __rotate_theUF3, 7
2	4668	113		setout __rotate_ports3, 1, __rotate_theOM3, 8, __constVal1, 6, __rotate_theRS3, 2, __constVal0, 5, __constVal0, 0, __rotate_theUF3
2	4670	128		getout __rotate_RotCount3, __rotate_firstPort3, 14
2	4672	132		mov __rotate_OldRotCount3, __rotate_RotCount3
2	4673	134		wait2 NA, __constVal50
2	4675	137		getout __rotate_RotCount3, __rotate_firstPort3, 14
2	4676	141		brcmp 5, __rotate_Stabilize3, __rotate_OldRotCount3, __rotate_RotCount3
2	4677	145		set __rotate_theOM3, 4
2	4678	148		setout __rotate_ports3, 8, __rotate_theRM3, 6, __constVal0, 1, __rotate_theOM3, 0, __constVal1
2	4681	159		brtst 4, __rotate_Done3, __rotate_theTurnPct3
2	4682	162		setout __rotate_ports3, 0, __constVal32
2	4684	167		subret ____RotateMotor3_return
3	4885	0		setin __constVal1, __ResetSensorPort, 5
3	4887	4		getin __ResetSensorTmp, __ResetSensorPort, 5
3	4888	8		brtst 5, __SensorStillInvalid, __ResetSensorTmp
3	4889	11		subret ____ResetSensorSubroutine_return
4	5784	0	#pragma macro 25
4	5784	0		acquire __CLSWMutex3
4	5784	1		set __CLSWArgs3.Port, 3
4	5784	4		mov __CLSWArgs3.ReturnLen, __RLSBytesCount3
4	5784	6		mov __CLSWArgs3.Buffer, __RLSReadBuf3
4	5784	8		syscall 21, __CLSWArgs3
4	5784	11		mov __RLSBResult3, __CLSWArgs3.Result
4	5784	13		release __CLSWMutex3
4	5784	14	#line 5784 "NXTDefs.h"
4	5785	14		brtst 4, __RLSBReturn3, __RLSBytesCount3
4	5786	17		arrinit __RLSReadBuf3, __constVal0, __RLSBytesCount3
4	5787	21		brtst 5, __RLSBError3, __RLSBResult3
4	5788	24		set __RLSBIterations3, 4
4	5790	27	#pragma macro 23
4	5790	27		acquire __CLSCSMutex3
4	5790	28		set __CLSCSArgs3.Port, 3
4	5790	31		syscall 23, __CLSCSArgs3
4	5790	34		mov __RLSBytesCount3, __CLSCSArgs3.BytesReady
4	5790	36		mov __RLSBResult3, __CLSCSArgs3.Result
4	5790	38		release __CLSCSMutex3
4	5790	39	#line 5790 "NXTDefs.h"
4	5791	39		sub __RLSBIterations3, __RLSBIterations3, __constVal1
4	5792	43		brtst 2, __RLSBError3, __RLSBIterations3
4	5793	46		brtst 0, __RLSBError3, __RLSBResult3
4	5794	49		brtst 4, __RLSBReadyToRead3, __RLSBResult3
4	5796	52		wait2 NA, __constVal15
4	5797	55		jmp __RLSBDoCheckStatus3
4	5800	57	#pragma macro 25
4	5800	57		acquire __CLSRMutex3
4	5800	58		set __CLSRArgs3.Port, 3
4	5800	61		mov __CLSRArgs3.BufferLen, __RLSBytesCount3
4	5800	63		syscall 22, __CLSRArgs3
4	5800	66		mov __RLSReadBuf3, __CLSRArgs3.Buffer
4	5800	68		mov __RLSBResult3, __CLSRArgs3.Result
4	5800	70		release __CLSRMutex3
4	5800	71	#line 5800 "NXTDefs.h"
4	5801	71		brtst 5, __RLSBError3, __RLSBResult3
4	5802	74		mov __RLSLastGoodRead3, __RLSReadBuf3
4	5803	76		jmp __RLSBDone3
4	5805	78		mov __RLSReadBuf3, __RLSLastGoodRead3
4	5807	80		arrsize __RLSBytesCount3, __RLSReadBuf3
4	5809	83		subret ____ReadLSBytes3_return
5	6518	0	#line 6518 "NXCDefs.h"
5	6519	0		mov __signed_stack_001PlaySound, __PlaySound_7qG2_aCode_7qG2_000
5	6518	2	#line 6518 "NXCDefs.h"
5	6519	2	#line 6519 "NXCDefs.h"
5	6520	2		set __D0PlaySound, 0
5	6519	5	#line 6519 "NXCDefs.h"
5	6520	5		cmp 4, __zfPlaySound, __signed_stack_001PlaySound, __D0PlaySound
5	6519	9	#line 6519 "NXCDefs.h"
5	6520	9		mov __D0PlaySound, __zfPlaySound
5	6519	12	#line 6519 "NXCDefs.h"
5	6520	12		brtst 4, __NXC_Label_56, __zfPlaySound
5	6519	15	#line 6519 "NXCDefs.h"
5	6520	15		set __signed_stack_001PlaySound, 600
5	6519	18	#line 6519 "NXCDefs.h"
5	6519	18	#line 6519 "NXCDefs.h"
5	6520	18		set __signed_stack_002PlaySound, 200
5	6519	21	#line 6519 "NXCDefs.h"
5	6519	21	#line 6519 "NXCDefs.h"
5	6520	21		set __signed_stack_003PlaySound, 4
5	6519	24	#line 6519 "NXCDefs.h"
5	6519	24	#line 6519 "NXCDefs.h"
5	6520	24		set __D0PlaySound, 0
5	6520	27	#line 6520 "NXCDefs.h"
5	6521	27		acquire __SPTArgsMutex
5	6520	28	#line 6520 "NXCDefs.h"
5	6521	28		mov __SPTArgs.Frequency, __signed_stack_001PlaySound
5	6520	31	#line 6520 "NXCDefs.h"
5	6521	31		mov __SPTArgs.Duration, __signed_stack_002PlaySound
5	6520	34	#line 6520 "NXCDefs.h"
5	6521	34		mov __SPTArgs.Volume, __signed_stack_003PlaySound
5	6520	37	#line 6520 "NXCDefs.h"
5	6521	37		mov __SPTArgs.Loop, __D0PlaySound
5	6520	40	#line 6520 "NXCDefs.h"
5	6521	40		syscall 10, __SPTArgs
5	6520	43	#line 6520 "NXCDefs.h"
5	6521	43		mov __D0PlaySound, __SPTArgs.Result
5	6520	46	#line 6520 "NXCDefs.h"
5	6521	46		release __SPTArgsMutex
5	6520	47	#line 6520 "NXCDefs.h"
5	6520	47	#line 6520 "NXCDefs.h"
5	6521	47		jmp __NXC_Label_65
5	6520	49	#line 6520 "NXCDefs.h"
5	6521	49		mov __signed_stack_001PlaySound, __PlaySound_7qG2_aCode_7qG2_000
5	6520	51	#line 6520 "NXCDefs.h"
5	6521	51	#line 6521 "NXCDefs.h"
5	6522	51		set __D0PlaySound, 1
5	6521	54	#line 6521 "NXCDefs.h"
5	6522	54		cmp 4, __zfPlaySound, __signed_stack_001PlaySound, __D0PlaySound
5	6521	58	#line 6521 "NXCDefs.h"
5	6522	58		mov __D0PlaySound, __zfPlaySound
5	6522	61	#line 6522 "NXCDefs.h"
5	6523	61		brtst 4, __NXC_Label_68, __zfPlaySound
5	6522	64	#line 6522 "NXCDefs.h"
5	6523	64		set __signed_stack_001PlaySound, 600
5	6522	67	#line 6522 "NXCDefs.h"
5	6522	67	#line 6522 "NXCDefs.h"
5	6523	67		set __signed_stack_002PlaySound, 150
5	6522	70	#line 6522 "NXCDefs.h"
5	6522	70	#line 6522 "NXCDefs.h"
5	6523	70		set __signed_stack_003PlaySound, 4
5	6522	73	#line 6522 "NXCDefs.h"
5	6522	73	#line 6522 "NXCDefs.h"
5	6523	73		set __D0PlaySound, 0
5	6523	76	#line 6523 "NXCDefs.h"
5	6524	76		acquire __SPTArgsMutex
5	6523	77	#line 6523 "NXCDefs.h"
5	6524	77		mov __SPTArgs.Frequency, __signed_stack_001PlaySound
5	6523	80	#line 6523 "NXCDefs.h"
5	6524	80		mov __SPTArgs.Duration, __signed_stack_002PlaySound
5	6523	83	#line 6523 "NXCDefs.h"
5	6524	83		mov __SPTArgs.Volume, __signed_stack_003PlaySound
5	6523	86	#line 6523 "NXCDefs.h"
5	6524	86		mov __SPTArgs.Loop, __D0PlaySound
5	6523	89	#line 6523 "NXCDefs.h"
5	6524	89		syscall 10, __SPTArgs
5	6523	92	#line 6523 "NXCDefs.h"
5	6524	92		mov __D0PlaySound, __SPTArgs.Result
5	6523	95	#line 6523 "NXCDefs.h"
5	6524	95		release __SPTArgsMutex
5	6523	96	#line 6523 "NXCDefs.h"
5	6523	96	#line 6523 "NXCDefs.h"
5	6524	96		wait2 NA, __constVal200
5	6523	99	#line 6523 "NXCDefs.h"
5	6523	99	#line 6523 "NXCDefs.h"
5	6524	99	#line 6524 "NXCDefs.h"
5	6525	99		set __signed_stack_001PlaySound, 600
5	6524	102	#line 6524 "NXCDefs.h"
5	6524	102	#line 6524 "NXCDefs.h"
5	6525	102		set __signed_stack_002PlaySound, 150
5	6524	105	#line 6524 "NXCDefs.h"
5	6524	105	#line 6524 "NXCDefs.h"
5	6525	105		set __signed_stack_003PlaySound, 4
5	6524	108	#line 6524 "NXCDefs.h"
5	6524	108	#line 6524 "NXCDefs.h"
5	6525	108		set __D0PlaySound, 0
5	6525	111	#line 6525 "NXCDefs.h"
5	6526	111		acquire __SPTArgsMutex
5	6525	112	#line 6525 "NXCDefs.h"
5	6526	112		mov __SPTArgs.Frequency, __signed_stack_001PlaySound
5	6525	115	#line 6525 "NXCDefs.h"
5	6526	115		mov __SPTArgs.Duration, __signed_stack_002PlaySound
5	6525	118	#line 6525 "NXCDefs.h"
5	6526	118		mov __SPTArgs.Volume, __signed_stack_003PlaySound
5	6525	121	#line 6525 "NXCDefs.h"
5	6526	121		mov __SPTArgs.Loop, __D0PlaySound
5	6525	124	#line 6525 "NXCDefs.h"
5	6526	124		syscall 10, __SPTArgs
5	6525	127	#line 6525 "NXCDefs.h"
5	6526	127		mov __D0PlaySound, __SPTArgs.Result
5	6525	130	#line 6525 "NXCDefs.h"
5	6526	130		release __SPTArgsMutex
5	6525	131	#line 6525 "NXCDefs.h"
5	6525	131	#line 6525 "NXCDefs.h"
5	6526	131		wait2 NA, __constVal150
5	6525	134	#line 6525 "NXCDefs.h"
5	6525	134	#line 6525 "NXCDefs.h"
5	6527	134	#line 6527 "NXCDefs.h"
5	6528	134		jmp __NXC_Label_85
5	6527	136	#line 6527 "NXCDefs.h"
5	6528	136		mov __signed_stack_001PlaySound, __PlaySound_7qG2_aCode_7qG2_000
5	6527	138	#line 6527 "NXCDefs.h"
5	6528	138	#line 6528 "NXCDefs.h"
5	6529	138		set __D0PlaySound, 3
5	6528	141	#line 6528 "NXCDefs.h"
5	6529	141		cmp 4, __zfPlaySound, __signed_stack_001PlaySound, __D0PlaySound
5	6528	145	#line 6528 "NXCDefs.h"
5	6529	145		mov __D0PlaySound, __zfPlaySound
5	6528	148	#line 6528 "NXCDefs.h"
5	6529	148		brtst 4, __NXC_Label_88, __zfPlaySound
5	6528	151	#line 6528 "NXCDefs.h"
5	6529	151		set __PlaySound_7qG2_i_7qG2_001, 4
5	6528	154	#line 6528 "NXCDefs.h"
5	6528	154	#line 6528 "NXCDefs.h"
5	6529	154		mov __signed_stack_001PlaySound, __PlaySound_7qG2_i_7qG2_001
5	6528	156	#line 6528 "NXCDefs.h"
5	6528	156	#line 6528 "NXCDefs.h"
5	6529	156		set __D0PlaySound, 8
5	6528	159	#line 6528 "NXCDefs.h"
5	6529	159		cmp 0, __zfPlaySound, __signed_stack_001PlaySound, __D0PlaySound
5	6528	163	#line 6528 "NXCDefs.h"
5	6529	163		mov __D0PlaySound, __zfPlaySound
5	6528	166	#line 6528 "NXCDefs.h"
5	6529	166		brtst 4, __NXC_Label_90, __zfPlaySound
5	6528	169	#line 6528 "NXCDefs.h"
5	6529	169		jmp __NXC_Label_91
5	6529	171	#line 6529 "NXCDefs.h"
5	6530	171		add __PlaySound_7qG2_i_7qG2_001, __PlaySound_7qG2_i_7qG2_001, __constVal1
5	6530	175	#line 6530 "NXCDefs.h"
5	6531	175		jmp __NXC_Label_89
5	6530	177	#line 6530 "NXCDefs.h"
5	6530	177	#line 6530 "NXCDefs.h"
5	6530	177	#line 6530 "NXCDefs.h"
5	6530	177	#line 6530 "NXCDefs.h"
5	6531	177		mul __signed_stack_001PlaySound, __constVal523, __PlaySound_7qG2_i_7qG2_001
5	6530	181	#line 6530 "NXCDefs.h"
5	6530	181	#line 6530 "NXCDefs.h"
5	6530	181	#line 6530 "NXCDefs.h"
5	6531	181		div __signed_stack_001PlaySound, __signed_stack_001PlaySound, __constVal4
5	6530	185	#line 6530 "NXCDefs.h"
5	6530	185	#line 6530 "NXCDefs.h"
5	6531	185		set __signed_stack_002PlaySound, 100
5	6530	188	#line 6530 "NXCDefs.h"
5	6530	188	#line 6530 "NXCDefs.h"
5	6531	188		set __signed_stack_003PlaySound, 4
5	6530	191	#line 6530 "NXCDefs.h"
5	6530	191	#line 6530 "NXCDefs.h"
5	6531	191		set __D0PlaySound, 0
5	6531	194	#line 6531 "NXCDefs.h"
5	6532	194		acquire __SPTArgsMutex
5	6531	195	#line 6531 "NXCDefs.h"
5	6532	195		mov __SPTArgs.Frequency, __signed_stack_001PlaySound
5	6531	198	#line 6531 "NXCDefs.h"
5	6532	198		mov __SPTArgs.Duration, __signed_stack_002PlaySound
5	6531	201	#line 6531 "NXCDefs.h"
5	6532	201		mov __SPTArgs.Volume, __signed_stack_003PlaySound
5	6531	204	#line 6531 "NXCDefs.h"
5	6532	204		mov __SPTArgs.Loop, __D0PlaySound
5	6531	207	#line 6531 "NXCDefs.h"
5	6532	207		syscall 10, __SPTArgs
5	6531	210	#line 6531 "NXCDefs.h"
5	6532	210		mov __D0PlaySound, __SPTArgs.Result
5	6531	213	#line 6531 "NXCDefs.h"
5	6532	213		release __SPTArgsMutex
5	6531	214	#line 6531 "NXCDefs.h"
5	6531	214	#line 6531 "NXCDefs.h"
5	6532	214		wait2 NA, __constVal100
5	6531	217	#line 6531 "NXCDefs.h"
5	6531	217	#line 6531 "NXCDefs.h"
5	6533	217	#line 6533 "NXCDefs.h"
5	6534	217		jmp __NXC_Label_92
5	6533	219	#line 6533 "NXCDefs.h"
5	6533	219	#line 6533 "NXCDefs.h"
5	6534	219		jmp __NXC_Label_105
5	6533	221	#line 6533 "NXCDefs.h"
5	6534	221		mov __signed_stack_001PlaySound, __PlaySound_7qG2_aCode_7qG2_000
5	6533	223	#line 6533 "NXCDefs.h"
5	6534	223	#line 6534 "NXCDefs.h"
5	6535	223		set __D0PlaySound, 2
5	6534	226	#line 6534 "NXCDefs.h"
5	6535	226		cmp 4, __zfPlaySound, __signed_stack_001PlaySound, __D0PlaySound
5	6534	230	#line 6534 "NXCDefs.h"
5	6535	230		mov __D0PlaySound, __zfPlaySound
5	6534	233	#line 6534 "NXCDefs.h"
5	6535	233		brtst 4, __NXC_Label_108, __zfPlaySound
5	6534	236	#line 6534 "NXCDefs.h"
5	6535	236		set __PlaySound_7qG2_i_7qG2_001, 7
5	6534	239	#line 6534 "NXCDefs.h"
5	6534	239	#line 6534 "NXCDefs.h"
5	6535	239		mov __signed_stack_001PlaySound, __PlaySound_7qG2_i_7qG2_001
5	6534	241	#line 6534 "NXCDefs.h"
5	6534	241	#line 6534 "NXCDefs.h"
5	6535	241		set __D0PlaySound, 3
5	6534	244	#line 6534 "NXCDefs.h"
5	6535	244		cmp 1, __zfPlaySound, __signed_stack_001PlaySound, __D0PlaySound
5	6534	248	#line 6534 "NXCDefs.h"
5	6535	248		mov __D0PlaySound, __zfPlaySound
5	6534	251	#line 6534 "NXCDefs.h"
5	6535	251		brtst 4, __NXC_Label_110, __zfPlaySound
5	6534	254	#line 6534 "NXCDefs.h"
5	6535	254		jmp __NXC_Label_111
5	6535	256	#line 6535 "NXCDefs.h"
5	6536	256		sub __PlaySound_7qG2_i_7qG2_001, __PlaySound_7qG2_i_7qG2_001, __constVal1
5	6536	260	#line 6536 "NXCDefs.h"
5	6537	260		jmp __NXC_Label_109
5	6536	262	#line 6536 "NXCDefs.h"
5	6536	262	#line 6536 "NXCDefs.h"
5	6536	262	#line 6536 "NXCDefs.h"
5	6536	262	#line 6536 "NXCDefs.h"
5	6537	262		mul __signed_stack_001PlaySound, __constVal523, __PlaySound_7qG2_i_7qG2_001
5	6536	266	#line 6536 "NXCDefs.h"
5	6536	266	#line 6536 "NXCDefs.h"
5	6536	266	#line 6536 "NXCDefs.h"
5	6537	266		div __signed_stack_001PlaySound, __signed_stack_001PlaySound, __constVal4
5	6536	270	#line 6536 "NXCDefs.h"
5	6536	270	#line 6536 "NXCDefs.h"
5	6537	270		set __signed_stack_002PlaySound, 100
5	6536	273	#line 6536 "NXCDefs.h"
5	6536	273	#line 6536 "NXCDefs.h"
5	6537	273		set __signed_stack_003PlaySound, 4
5	6536	276	#line 6536 "NXCDefs.h"
5	6536	276	#line 6536 "NXCDefs.h"
5	6537	276		set __D0PlaySound, 0
5	6537	279	#line 6537 "NXCDefs.h"
5	6538	279		acquire __SPTArgsMutex
5	6537	280	#line 6537 "NXCDefs.h"
5	6538	280		mov __SPTArgs.Frequency, __signed_stack_001PlaySound
5	6537	283	#line 6537 "NXCDefs.h"
5	6538	283		mov __SPTArgs.Duration, __signed_stack_002PlaySound
5	6537	286	#line 6537 "NXCDefs.h"
5	6538	286		mov __SPTArgs.Volume, __signed_stack_003PlaySound
5	6537	289	#line 6537 "NXCDefs.h"
5	6538	289		mov __SPTArgs.Loop, __D0PlaySound
5	6537	292	#line 6537 "NXCDefs.h"
5	6538	292		syscall 10, __SPTArgs
5	6537	295	#line 6537 "NXCDefs.h"
5	6538	295		mov __D0PlaySound, __SPTArgs.Result
5	6537	298	#line 6537 "NXCDefs.h"
5	6538	298		release __SPTArgsMutex
5	6537	299	#line 6537 "NXCDefs.h"
5	6537	299	#line 6537 "NXCDefs.h"
5	6538	299		wait2 NA, __constVal100
5	6537	302	#line 6537 "NXCDefs.h"
5	6537	302	#line 6537 "NXCDefs.h"
5	6539	302	#line 6539 "NXCDefs.h"
5	6540	302		jmp __NXC_Label_112
5	6539	304	#line 6539 "NXCDefs.h"
5	6539	304	#line 6539 "NXCDefs.h"
5	6540	304		jmp __NXC_Label_125
5	6539	306	#line 6539 "NXCDefs.h"
5	6540	306		mov __signed_stack_001PlaySound, __PlaySound_7qG2_aCode_7qG2_000
5	6539	308	#line 6539 "NXCDefs.h"
5	6540	308	#line 6540 "NXCDefs.h"
5	6541	308		set __D0PlaySound, 4
5	6540	311	#line 6540 "NXCDefs.h"
5	6541	311		cmp 4, __zfPlaySound, __signed_stack_001PlaySound, __D0PlaySound
5	6540	315	#line 6540 "NXCDefs.h"
5	6541	315		mov __D0PlaySound, __zfPlaySound
5	6541	318	#line 6541 "NXCDefs.h"
5	6542	318		brtst 4, __NXC_Label_128, __zfPlaySound
5	6541	321	#line 6541 "NXCDefs.h"
5	6542	321		set __signed_stack_001PlaySound, 100
5	6541	324	#line 6541 "NXCDefs.h"
5	6541	324	#line 6541 "NXCDefs.h"
5	6542	324		set __signed_stack_002PlaySound, 500
5	6541	327	#line 6541 "NXCDefs.h"
5	6541	327	#line 6541 "NXCDefs.h"
5	6542	327		set __signed_stack_003PlaySound, 4
5	6541	330	#line 6541 "NXCDefs.h"
5	6541	330	#line 6541 "NXCDefs.h"
5	6542	330		set __D0PlaySound, 0
5	6542	333	#line 6542 "NXCDefs.h"
5	6543	333		acquire __SPTArgsMutex
5	6542	334	#line 6542 "NXCDefs.h"
5	6543	334		mov __SPTArgs.Frequency, __signed_stack_001PlaySound
5	6542	337	#line 6542 "NXCDefs.h"
5	6543	337		mov __SPTArgs.Duration, __signed_stack_002PlaySound
5	6542	340	#line 6542 "NXCDefs.h"
5	6543	340		mov __SPTArgs.Volume, __signed_stack_003PlaySound
5	6542	343	#line 6542 "NXCDefs.h"
5	6543	343		mov __SPTArgs.Loop, __D0PlaySound
5	6542	346	#line 6542 "NXCDefs.h"
5	6543	346		syscall 10, __SPTArgs
5	6542	349	#line 6542 "NXCDefs.h"
5	6543	349		mov __D0PlaySound, __SPTArgs.Result
5	6542	352	#line 6542 "NXCDefs.h"
5	6543	352		release __SPTArgsMutex
5	6542	353	#line 6542 "NXCDefs.h"
5	6542	353	#line 6542 "NXCDefs.h"
5	6543	353		wait2 NA, __constVal500
5	6542	356	#line 6542 "NXCDefs.h"
5	6542	356	#line 6542 "NXCDefs.h"
5	6544	356	#line 6544 "NXCDefs.h"
5	6545	356		jmp __NXC_Label_137
5	6544	358	#line 6544 "NXCDefs.h"
5	6545	358		mov __signed_stack_001PlaySound, __PlaySound_7qG2_aCode_7qG2_000
5	6544	360	#line 6544 "NXCDefs.h"
5	6545	360	#line 6545 "NXCDefs.h"
5	6546	360		set __D0PlaySound, 5
5	6545	363	#line 6545 "NXCDefs.h"
5	6546	363		cmp 4, __zfPlaySound, __signed_stack_001PlaySound, __D0PlaySound
5	6545	367	#line 6545 "NXCDefs.h"
5	6546	367		mov __D0PlaySound, __zfPlaySound
5	6545	370	#line 6545 "NXCDefs.h"
5	6546	370		brtst 4, __NXC_Label_140, __zfPlaySound
5	6545	373	#line 6545 "NXCDefs.h"
5	6546	373		set __PlaySound_7qG2_i_7qG2_001, 4
5	6545	376	#line 6545 "NXCDefs.h"
5	6545	376	#line 6545 "NXCDefs.h"
5	6546	376		mov __signed_stack_001PlaySound, __PlaySound_7qG2_i_7qG2_001
5	6545	378	#line 6545 "NXCDefs.h"
5	6545	378	#line 6545 "NXCDefs.h"
5	6546	378		set __D0PlaySound, 8
5	6545	381	#line 6545 "NXCDefs.h"
5	6546	381		cmp 0, __zfPlaySound, __signed_stack_001PlaySound, __D0PlaySound
5	6545	385	#line 6545 "NXCDefs.h"
5	6546	385		mov __D0PlaySound, __zfPlaySound
5	6545	388	#line 6545 "NXCDefs.h"
5	6546	388		brtst 4, __NXC_Label_142, __zfPlaySound
5	6545	391	#line 6545 "NXCDefs.h"
5	6546	391		jmp __NXC_Label_143
5	6546	393	#line 6546 "NXCDefs.h"
5	6547	393		add __PlaySound_7qG2_i_7qG2_001, __PlaySound_7qG2_i_7qG2_001, __constVal1
5	6547	397	#line 6547 "NXCDefs.h"
5	6548	397		jmp __NXC_Label_141
5	6547	399	#line 6547 "NXCDefs.h"
5	6547	399	#line 6547 "NXCDefs.h"
5	6547	399	#line 6547 "NXCDefs.h"
5	6547	399	#line 6547 "NXCDefs.h"
5	6548	399		mul __signed_stack_001PlaySound, __constVal523, __PlaySound_7qG2_i_7qG2_001
5	6547	403	#line 6547 "NXCDefs.h"
5	6547	403	#line 6547 "NXCDefs.h"
5	6547	403	#line 6547 "NXCDefs.h"
5	6548	403		div __signed_stack_001PlaySound, __signed_stack_001PlaySound, __constVal4
5	6547	407	#line 6547 "NXCDefs.h"
5	6547	407	#line 6547 "NXCDefs.h"
5	6548	407		set __signed_stack_002PlaySound, 50
5	6547	410	#line 6547 "NXCDefs.h"
5	6547	410	#line 6547 "NXCDefs.h"
5	6548	410		set __signed_stack_003PlaySound, 4
5	6547	413	#line 6547 "NXCDefs.h"
5	6547	413	#line 6547 "NXCDefs.h"
5	6548	413		set __D0PlaySound, 0
5	6548	416	#line 6548 "NXCDefs.h"
5	6549	416		acquire __SPTArgsMutex
5	6548	417	#line 6548 "NXCDefs.h"
5	6549	417		mov __SPTArgs.Frequency, __signed_stack_001PlaySound
5	6548	420	#line 6548 "NXCDefs.h"
5	6549	420		mov __SPTArgs.Duration, __signed_stack_002PlaySound
5	6548	423	#line 6548 "NXCDefs.h"
5	6549	423		mov __SPTArgs.Volume, __signed_stack_003PlaySound
5	6548	426	#line 6548 "NXCDefs.h"
5	6549	426		mov __SPTArgs.Loop, __D0PlaySound
5	6548	429	#line 6548 "NXCDefs.h"
5	6549	429		syscall 10, __SPTArgs
5	6548	432	#line 6548 "NXCDefs.h"
5	6549	432		mov __D0PlaySound, __SPTArgs.Result
5	6548	435	#line 6548 "NXCDefs.h"
5	6549	435		release __SPTArgsMutex
5	6548	436	#line 6548 "NXCDefs.h"
5	6548	436	#line 6548 "NXCDefs.h"
5	6549	436		wait2 NA, __constVal50
5	6548	439	#line 6548 "NXCDefs.h"
5	6548	439	#line 6548 "NXCDefs.h"
5	6560	439	#line 6560 "NXCDefs.h"
5	6561	439		jmp __NXC_Label_144
5	6560	441	#line 6560 "NXCDefs.h"
5	6560	441	#line 6560 "NXCDefs.h"
5	6560	441	#line 6560 "NXCDefs.h"
5	6560	441	#line 6560 "NXCDefs.h"
5	6560	441	#line 6560 "NXCDefs.h"
5	6560	441	#line 6560 "NXCDefs.h"
5	6560	441	#line 6560 "NXCDefs.h"
5	6560	441	#line 6560 "NXCDefs.h"
5	6561	441		subret __PlaySound_return
6	20	0	#line 20 "C:\Users\Pascal\Documents\GitHub\SaSeRoS-Team359\.\basic_functions/functions.h"
6	21	0		mov __signed_stack_001TurnMotor, __TurnMotor_7qG2_deg_7qG2_000
6	20	2	#line 20 "C:\Users\Pascal\Documents\GitHub\SaSeRoS-Team359\.\basic_functions/functions.h"
6	20	2	#line 20 "C:\Users\Pascal\Documents\GitHub\SaSeRoS-Team359\.\basic_functions/functions.h"
6	21	2		set __D0TurnMotor, 0
6	20	5	#line 20 "C:\Users\Pascal\Documents\GitHub\SaSeRoS-Team359\.\basic_functions/functions.h"
6	21	5		cmp 0, __zfTurnMotor, __signed_stack_001TurnMotor, __D0TurnMotor
6	20	9	#line 20 "C:\Users\Pascal\Documents\GitHub\SaSeRoS-Team359\.\basic_functions/functions.h"
6	21	9		mov __D0TurnMotor, __zfTurnMotor
6	21	12	#line 21 "C:\Users\Pascal\Documents\GitHub\SaSeRoS-Team359\.\basic_functions/functions.h"
6	22	12		brtst 4, __NXC_Label_511, __zfTurnMotor
6	21	15	#line 21 "C:\Users\Pascal\Documents\GitHub\SaSeRoS-Team359\.\basic_functions/functions.h"
6	21	15	#line 21 "C:\Users\Pascal\Documents\GitHub\SaSeRoS-Team359\.\basic_functions/functions.h"
6	21	15	#line 21 "C:\Users\Pascal\Documents\GitHub\SaSeRoS-Team359\.\basic_functions/functions.h"
6	21	15	#line 21 "C:\Users\Pascal\Documents\GitHub\SaSeRoS-Team359\.\basic_functions/functions.h"
6	22	15		sub __signed_stack_001TurnMotor, __constVal0, __TurnMotor_7qG2_pwr_7qG2_000
6	21	19	#line 21 "C:\Users\Pascal\Documents\GitHub\SaSeRoS-Team359\.\basic_functions/functions.h"
6	21	19	#line 21 "C:\Users\Pascal\Documents\GitHub\SaSeRoS-Team359\.\basic_functions/functions.h"
6	22	19		mov __signed_stack_002TurnMotor, __TurnMotor_7qG2_deg_7qG2_000
6	21	21	#line 21 "C:\Users\Pascal\Documents\GitHub\SaSeRoS-Team359\.\basic_functions/functions.h"
6	21	21	#line 21 "C:\Users\Pascal\Documents\GitHub\SaSeRoS-Team359\.\basic_functions/functions.h"
6	22	21		mov __signed_stack_003TurnMotor, __constValNeg100
6	21	24	#line 21 "C:\Users\Pascal\Documents\GitHub\SaSeRoS-Team359\.\basic_functions/functions.h"
6	21	24	#line 21 "C:\Users\Pascal\Documents\GitHub\SaSeRoS-Team359\.\basic_functions/functions.h"
6	22	24		set __signed_stack_004TurnMotor, 1
6	21	27	#line 21 "C:\Users\Pascal\Documents\GitHub\SaSeRoS-Team359\.\basic_functions/functions.h"
6	21	27	#line 21 "C:\Users\Pascal\Documents\GitHub\SaSeRoS-Team359\.\basic_functions/functions.h"
6	22	27		set __D0TurnMotor, 1
6	22	30	#line 22 "C:\Users\Pascal\Documents\GitHub\SaSeRoS-Team359\.\basic_functions/functions.h"
6	23	30	#pragma macro 35
6	23	30		mov __rotate_ports3, __OUT_AB
6	23	32		mov __rotate_power3, __signed_stack_001TurnMotor
6	23	35		mov __rotate_angle3, __signed_stack_002TurnMotor
6	23	37		mov __rotate_turnpct3, __signed_stack_003TurnMotor
6	23	40		mov __rotate_sync3, __signed_stack_004TurnMotor
6	23	43		mov __rotate_stop3, __D0TurnMotor
6	23	46		mov __rotate_theRVP3, __constVal32
6	23	48		mov __rotate_theRVI3, __constVal0
6	23	50		mov __rotate_theRVD3, __constVal96
6	23	52		subcall __RotateMotor3, ____RotateMotor3_return
6	6593	55	#line 6593 "C:\Users\Pascal\Documents\GitHub\SaSeRoS-Team359\.\basic_functions/functions.h"
6	22	55	#line 22 "C:\Users\Pascal\Documents\GitHub\SaSeRoS-Team359\.\basic_functions/functions.h"
6	24	55	#line 24 "C:\Users\Pascal\Documents\GitHub\SaSeRoS-Team359\.\basic_functions/functions.h"
6	25	55		jmp __NXC_Label_522
6	24	57	#line 24 "C:\Users\Pascal\Documents\GitHub\SaSeRoS-Team359\.\basic_functions/functions.h"
6	24	57	#line 24 "C:\Users\Pascal\Documents\GitHub\SaSeRoS-Team359\.\basic_functions/functions.h"
6	24	57	#line 24 "C:\Users\Pascal\Documents\GitHub\SaSeRoS-Team359\.\basic_functions/functions.h"
6	24	57	#line 24 "C:\Users\Pascal\Documents\GitHub\SaSeRoS-Team359\.\basic_functions/functions.h"
6	25	57		sub __signed_stack_001TurnMotor, __constVal0, __TurnMotor_7qG2_pwr_7qG2_000
6	24	61	#line 24 "C:\Users\Pascal\Documents\GitHub\SaSeRoS-Team359\.\basic_functions/functions.h"
6	24	61	#line 24 "C:\Users\Pascal\Documents\GitHub\SaSeRoS-Team359\.\basic_functions/functions.h"
6	25	61		mov __signed_stack_002TurnMotor, __TurnMotor_7qG2_deg_7qG2_000
6	24	63	#line 24 "C:\Users\Pascal\Documents\GitHub\SaSeRoS-Team359\.\basic_functions/functions.h"
6	24	63	#line 24 "C:\Users\Pascal\Documents\GitHub\SaSeRoS-Team359\.\basic_functions/functions.h"
6	25	63		set __signed_stack_003TurnMotor, 100
6	24	66	#line 24 "C:\Users\Pascal\Documents\GitHub\SaSeRoS-Team359\.\basic_functions/functions.h"
6	24	66	#line 24 "C:\Users\Pascal\Documents\GitHub\SaSeRoS-Team359\.\basic_functions/functions.h"
6	25	66		set __signed_stack_004TurnMotor, 1
6	24	69	#line 24 "C:\Users\Pascal\Documents\GitHub\SaSeRoS-Team359\.\basic_functions/functions.h"
6	24	69	#line 24 "C:\Users\Pascal\Documents\GitHub\SaSeRoS-Team359\.\basic_functions/functions.h"
6	25	69		set __D0TurnMotor, 1
6	25	72	#line 25 "C:\Users\Pascal\Documents\GitHub\SaSeRoS-Team359\.\basic_functions/functions.h"
6	26	72	#pragma macro 35
6	26	72		mov __rotate_ports3, __OUT_AB
6	26	74		mov __rotate_power3, __signed_stack_001TurnMotor
6	26	77		mov __rotate_angle3, __signed_stack_002TurnMotor
6	26	79		mov __rotate_turnpct3, __signed_stack_003TurnMotor
6	26	82		mov __rotate_sync3, __signed_stack_004TurnMotor
6	26	85		mov __rotate_stop3, __D0TurnMotor
6	26	88		mov __rotate_theRVP3, __constVal32
6	26	90		mov __rotate_theRVI3, __constVal0
6	26	92		mov __rotate_theRVD3, __constVal96
6	26	94		subcall __RotateMotor3, ____RotateMotor3_return
6	6633	97	#line 6633 "C:\Users\Pascal\Documents\GitHub\SaSeRoS-Team359\.\basic_functions/functions.h"
6	25	97	#line 25 "C:\Users\Pascal\Documents\GitHub\SaSeRoS-Team359\.\basic_functions/functions.h"
6	29	97	#line 29 "C:\Users\Pascal\Documents\GitHub\SaSeRoS-Team359\.\basic_functions/functions.h"
6	29	97	#line 29 "C:\Users\Pascal\Documents\GitHub\SaSeRoS-Team359\.\basic_functions/functions.h"
6	30	97		subret __TurnMotor_return
7	31	0	#line 31 "C:\Users\Pascal\Documents\GitHub\SaSeRoS-Team359\.\basic_functions/functions.h"
7	31	0	#line 31 "C:\Users\Pascal\Documents\GitHub\SaSeRoS-Team359\.\basic_functions/functions.h"
7	31	0	#line 31 "C:\Users\Pascal\Documents\GitHub\SaSeRoS-Team359\.\basic_functions/functions.h"
7	31	0	#line 31 "C:\Users\Pascal\Documents\GitHub\SaSeRoS-Team359\.\basic_functions/functions.h"
7	31	0	#line 31 "C:\Users\Pascal\Documents\GitHub\SaSeRoS-Team359\.\basic_functions/functions.h"
7	31	0	#line 31 "C:\Users\Pascal\Documents\GitHub\SaSeRoS-Team359\.\basic_functions/functions.h"
7	32	0		mul __TurnMotor_7qG2_deg_7qG2_000, __TurnRobot_7qG2_deg_7qG2_000, __constValf3P5
7	31	4	#line 31 "C:\Users\Pascal\Documents\GitHub\SaSeRoS-Team359\.\basic_functions/functions.h"
7	31	4	#line 31 "C:\Users\Pascal\Documents\GitHub\SaSeRoS-Team359\.\basic_functions/functions.h"
7	32	4		mov __TurnMotor_7qG2_pwr_7qG2_000, __TurnRobot_7qG2_pwr_7qG2_000
7	31	6	#line 31 "C:\Users\Pascal\Documents\GitHub\SaSeRoS-Team359\.\basic_functions/functions.h"
7	32	6	#line 32 "C:\Users\Pascal\Documents\GitHub\SaSeRoS-Team359\.\basic_functions/functions.h"
7	33	6		subcall TurnMotor, __TurnMotor_return
7	32	8	#line 32 "C:\Users\Pascal\Documents\GitHub\SaSeRoS-Team359\.\basic_functions/functions.h"
7	34	8	#line 34 "C:\Users\Pascal\Documents\GitHub\SaSeRoS-Team359\.\basic_functions/functions.h"
7	35	8		subret __TurnRobot_return
8	36	0	#line 36 "C:\Users\Pascal\Documents\GitHub\SaSeRoS-Team359\.\basic_functions/functions.h"
8	37	0	#pragma macro 7
8	37	0		setout __constVal0, 2, __constVal0, 1, __constVal3, 8, __constVal0, 6, __constVal32, 7, __constVal0, 5, __constVal0, 10, __constVal96, 11, __constVal32, 12, __constVal32, 0, __constVal63
8	6687	23	#line 6687 "C:\Users\Pascal\Documents\GitHub\SaSeRoS-Team359\.\basic_functions/functions.h"
8	36	23	#line 36 "C:\Users\Pascal\Documents\GitHub\SaSeRoS-Team359\.\basic_functions/functions.h"
8	37	23	#line 37 "C:\Users\Pascal\Documents\GitHub\SaSeRoS-Team359\.\basic_functions/functions.h"
8	38	23	#pragma macro 7
8	38	23		setout __constVal1, 2, __constVal0, 1, __constVal3, 8, __constVal0, 6, __constVal32, 7, __constVal0, 5, __constVal0, 10, __constVal96, 11, __constVal32, 12, __constVal32, 0, __constVal63
8	6690	46	#line 6690 "C:\Users\Pascal\Documents\GitHub\SaSeRoS-Team359\.\basic_functions/functions.h"
8	37	46	#line 37 "C:\Users\Pascal\Documents\GitHub\SaSeRoS-Team359\.\basic_functions/functions.h"
8	39	46	#line 39 "C:\Users\Pascal\Documents\GitHub\SaSeRoS-Team359\.\basic_functions/functions.h"
8	40	46		subret __Stop_Driving_return
9	40	0	#line 40 "C:\Users\Pascal\Documents\GitHub\SaSeRoS-Team359\.\basic_functions/functions.h"
9	40	0	#line 40 "C:\Users\Pascal\Documents\GitHub\SaSeRoS-Team359\.\basic_functions/functions.h"
9	40	0	#line 40 "C:\Users\Pascal\Documents\GitHub\SaSeRoS-Team359\.\basic_functions/functions.h"
9	40	0	#line 40 "C:\Users\Pascal\Documents\GitHub\SaSeRoS-Team359\.\basic_functions/functions.h"
9	41	0		sub __D0Drive_Forward, __constVal0, __Drive_Forward_7qG2_pwr_7qG2_000
9	41	4	#line 41 "C:\Users\Pascal\Documents\GitHub\SaSeRoS-Team359\.\basic_functions/functions.h"
9	42	4	#pragma macro 7
9	42	4		setout __constVal0, 2, __D0Drive_Forward, 1, __constVal3, 8, __constVal0, 6, __constVal32, 7, __constVal0, 5, __constVal0, 10, __constVal96, 11, __constVal32, 12, __constVal32, 0, __constVal63
9	6712	27	#line 6712 "C:\Users\Pascal\Documents\GitHub\SaSeRoS-Team359\.\basic_functions/functions.h"
9	41	27	#line 41 "C:\Users\Pascal\Documents\GitHub\SaSeRoS-Team359\.\basic_functions/functions.h"
9	41	27	#line 41 "C:\Users\Pascal\Documents\GitHub\SaSeRoS-Team359\.\basic_functions/functions.h"
9	41	27	#line 41 "C:\Users\Pascal\Documents\GitHub\SaSeRoS-Team359\.\basic_functions/functions.h"
9	41	27	#line 41 "C:\Users\Pascal\Documents\GitHub\SaSeRoS-Team359\.\basic_functions/functions.h"
9	41	27	#line 41 "C:\Users\Pascal\Documents\GitHub\SaSeRoS-Team359\.\basic_functions/functions.h"
9	42	27		sub __D0Drive_Forward, __constVal0, __Drive_Forward_7qG2_pwr_7qG2_000
9	42	31	#line 42 "C:\Users\Pascal\Documents\GitHub\SaSeRoS-Team359\.\basic_functions/functions.h"
9	43	31	#pragma macro 7
9	43	31		setout __constVal1, 2, __D0Drive_Forward, 1, __constVal3, 8, __constVal0, 6, __constVal32, 7, __constVal0, 5, __constVal0, 10, __constVal96, 11, __constVal32, 12, __constVal32, 0, __constVal63
9	6725	54	#line 6725 "C:\Users\Pascal\Documents\GitHub\SaSeRoS-Team359\.\basic_functions/functions.h"
9	42	54	#line 42 "C:\Users\Pascal\Documents\GitHub\SaSeRoS-Team359\.\basic_functions/functions.h"
9	44	54	#line 44 "C:\Users\Pascal\Documents\GitHub\SaSeRoS-Team359\.\basic_functions/functions.h"
9	45	54		subret __Drive_Forward_return
10	45	0	#line 45 "C:\Users\Pascal\Documents\GitHub\SaSeRoS-Team359\.\basic_functions/functions.h"
10	45	0	#line 45 "C:\Users\Pascal\Documents\GitHub\SaSeRoS-Team359\.\basic_functions/functions.h"
10	45	0	#line 45 "C:\Users\Pascal\Documents\GitHub\SaSeRoS-Team359\.\basic_functions/functions.h"
10	45	0	#line 45 "C:\Users\Pascal\Documents\GitHub\SaSeRoS-Team359\.\basic_functions/functions.h"
10	46	0		sub __D0Drive_Backward, __constVal0, __Drive_Backward_7qG2_pwr_7qG2_000
10	46	4	#line 46 "C:\Users\Pascal\Documents\GitHub\SaSeRoS-Team359\.\basic_functions/functions.h"
10	47	4	#pragma macro 10
10	47	4		neg __OnRev_Tmp, __D0Drive_Backward
10	47	7		setout __constVal0, 2, __OnRev_Tmp, 1, __constVal3, 8, __constVal0, 6, __constVal32, 7, __constVal0, 5, __constVal0, 10, __constVal96, 11, __constVal32, 12, __constVal32, 0, __constVal63
10	6747	30	#line 6747 "C:\Users\Pascal\Documents\GitHub\SaSeRoS-Team359\.\basic_functions/functions.h"
10	46	30	#line 46 "C:\Users\Pascal\Documents\GitHub\SaSeRoS-Team359\.\basic_functions/functions.h"
10	46	30	#line 46 "C:\Users\Pascal\Documents\GitHub\SaSeRoS-Team359\.\basic_functions/functions.h"
10	46	30	#line 46 "C:\Users\Pascal\Documents\GitHub\SaSeRoS-Team359\.\basic_functions/functions.h"
10	46	30	#line 46 "C:\Users\Pascal\Documents\GitHub\SaSeRoS-Team359\.\basic_functions/functions.h"
10	46	30	#line 46 "C:\Users\Pascal\Documents\GitHub\SaSeRoS-Team359\.\basic_functions/functions.h"
10	47	30		sub __D0Drive_Backward, __constVal0, __Drive_Backward_7qG2_pwr_7qG2_000
10	47	34	#line 47 "C:\Users\Pascal\Documents\GitHub\SaSeRoS-Team359\.\basic_functions/functions.h"
10	48	34	#pragma macro 10
10	48	34		neg __OnRev_Tmp, __D0Drive_Backward
10	48	37		setout __constVal1, 2, __OnRev_Tmp, 1, __constVal3, 8, __constVal0, 6, __constVal32, 7, __constVal0, 5, __constVal0, 10, __constVal96, 11, __constVal32, 12, __constVal32, 0, __constVal63
10	6760	60	#line 6760 "C:\Users\Pascal\Documents\GitHub\SaSeRoS-Team359\.\basic_functions/functions.h"
10	47	60	#line 47 "C:\Users\Pascal\Documents\GitHub\SaSeRoS-Team359\.\basic_functions/functions.h"
10	49	60	#line 49 "C:\Users\Pascal\Documents\GitHub\SaSeRoS-Team359\.\basic_functions/functions.h"
10	50	60		subret __Drive_Backward_return
11	54	0	#line 54 "C:\Users\Pascal\Documents\GitHub\SaSeRoS-Team359\.\basic_functions/functions.h"
11	55	0		set __signed_stack_001LongBeep, 500
11	54	3	#line 54 "C:\Users\Pascal\Documents\GitHub\SaSeRoS-Team359\.\basic_functions/functions.h"
11	54	3	#line 54 "C:\Users\Pascal\Documents\GitHub\SaSeRoS-Team359\.\basic_functions/functions.h"
11	55	3		set __signed_stack_002LongBeep, 1000
11	54	6	#line 54 "C:\Users\Pascal\Documents\GitHub\SaSeRoS-Team359\.\basic_functions/functions.h"
11	54	6	#line 54 "C:\Users\Pascal\Documents\GitHub\SaSeRoS-Team359\.\basic_functions/functions.h"
11	55	6		set __signed_stack_003LongBeep, 4
11	54	9	#line 54 "C:\Users\Pascal\Documents\GitHub\SaSeRoS-Team359\.\basic_functions/functions.h"
11	54	9	#line 54 "C:\Users\Pascal\Documents\GitHub\SaSeRoS-Team359\.\basic_functions/functions.h"
11	55	9		set __D0LongBeep, 0
11	55	12	#line 55 "C:\Users\Pascal\Documents\GitHub\SaSeRoS-Team359\.\basic_functions/functions.h"
11	56	12		acquire __SPTArgsMutex
11	55	13	#line 55 "C:\Users\Pascal\Documents\GitHub\SaSeRoS-Team359\.\basic_functions/functions.h"
11	56	13		mov __SPTArgs.Frequency, __signed_stack_001LongBeep
11	55	16	#line 55 "C:\Users\Pascal\Documents\GitHub\SaSeRoS-Team359\.\basic_functions/functions.h"
11	56	16		mov __SPTArgs.Duration, __signed_stack_002LongBeep
11	55	19	#line 55 "C:\Users\Pascal\Documents\GitHub\SaSeRoS-Team359\.\basic_functions/functions.h"
11	56	19		mov __SPTArgs.Volume, __signed_stack_003LongBeep
11	55	22	#line 55 "C:\Users\Pascal\Documents\GitHub\SaSeRoS-Team359\.\basic_functions/functions.h"
11	56	22		mov __SPTArgs.Loop, __D0LongBeep
11	55	25	#line 55 "C:\Users\Pascal\Documents\GitHub\SaSeRoS-Team359\.\basic_functions/functions.h"
11	56	25		syscall 10, __SPTArgs
11	55	28	#line 55 "C:\Users\Pascal\Documents\GitHub\SaSeRoS-Team359\.\basic_functions/functions.h"
11	56	28		mov __D0LongBeep, __SPTArgs.Result
11	55	31	#line 55 "C:\Users\Pascal\Documents\GitHub\SaSeRoS-Team359\.\basic_functions/functions.h"
11	56	31		release __SPTArgsMutex
11	55	32	#line 55 "C:\Users\Pascal\Documents\GitHub\SaSeRoS-Team359\.\basic_functions/functions.h"
11	56	32	#line 56 "C:\Users\Pascal\Documents\GitHub\SaSeRoS-Team359\.\basic_functions/functions.h"
11	57	32		subret __LongBeep_return
12	16	0	#line 16 "C:\Users\Pascal\Documents\GitHub\SaSeRoS-Team359\.\Sensors testing/hardware_testing.nxc"
12	17	0		set __TestFrontTouchSensor_7qG2_button_7qG2_000, 1
12	16	3	#line 16 "C:\Users\Pascal\Documents\GitHub\SaSeRoS-Team359\.\Sensors testing/hardware_testing.nxc"
12	16	3	#line 16 "C:\Users\Pascal\Documents\GitHub\SaSeRoS-Team359\.\Sensors testing/hardware_testing.nxc"
12	17	3		getin __TestFrontTouchSensor_7qG2_button_7qG2_000, __constVal0, 4
12	16	7	#line 16 "C:\Users\Pascal\Documents\GitHub\SaSeRoS-Team359\.\Sensors testing/hardware_testing.nxc"
12	16	7	#line 16 "C:\Users\Pascal\Documents\GitHub\SaSeRoS-Team359\.\Sensors testing/hardware_testing.nxc"
12	16	7	#line 16 "C:\Users\Pascal\Documents\GitHub\SaSeRoS-Team359\.\Sensors testing/hardware_testing.nxc"
12	17	7	#line 17 "C:\Users\Pascal\Documents\GitHub\SaSeRoS-Team359\.\Sensors testing/hardware_testing.nxc"
12	18	7		mov __unsigned_stack_001TestFrontTouchSensor, __TestFrontTouchSensor_7qG2_button_7qG2_000
12	17	9	#line 17 "C:\Users\Pascal\Documents\GitHub\SaSeRoS-Team359\.\Sensors testing/hardware_testing.nxc"
12	17	9	#line 17 "C:\Users\Pascal\Documents\GitHub\SaSeRoS-Team359\.\Sensors testing/hardware_testing.nxc"
12	18	9		set __D0TestFrontTouchSensor, 1
12	17	12	#line 17 "C:\Users\Pascal\Documents\GitHub\SaSeRoS-Team359\.\Sensors testing/hardware_testing.nxc"
12	18	12		cmp 4, __zfTestFrontTouchSensor, __unsigned_stack_001TestFrontTouchSensor, __D0TestFrontTouchSensor
12	17	16	#line 17 "C:\Users\Pascal\Documents\GitHub\SaSeRoS-Team359\.\Sensors testing/hardware_testing.nxc"
12	18	16		mov __D0TestFrontTouchSensor, __zfTestFrontTouchSensor
12	17	19	#line 17 "C:\Users\Pascal\Documents\GitHub\SaSeRoS-Team359\.\Sensors testing/hardware_testing.nxc"
12	18	19		brtst 4, __NXC_Label_676, __zfTestFrontTouchSensor
12	17	22	#line 17 "C:\Users\Pascal\Documents\GitHub\SaSeRoS-Team359\.\Sensors testing/hardware_testing.nxc"
12	18	22		mov __signed_stack_001TestFrontTouchSensor, __D0TestFrontTouchSensor
12	17	24	#line 17 "C:\Users\Pascal\Documents\GitHub\SaSeRoS-Team359\.\Sensors testing/hardware_testing.nxc"
12	18	24		mov __unsigned_stack_002TestFrontTouchSensor, prevFront
12	17	26	#line 17 "C:\Users\Pascal\Documents\GitHub\SaSeRoS-Team359\.\Sensors testing/hardware_testing.nxc"
12	18	26	#line 18 "C:\Users\Pascal\Documents\GitHub\SaSeRoS-Team359\.\Sensors testing/hardware_testing.nxc"
12	19	26		set __D0TestFrontTouchSensor, 1
12	18	29	#line 18 "C:\Users\Pascal\Documents\GitHub\SaSeRoS-Team359\.\Sensors testing/hardware_testing.nxc"
12	19	29		cmp 4, __zfTestFrontTouchSensor, __unsigned_stack_002TestFrontTouchSensor, __D0TestFrontTouchSensor
12	18	33	#line 18 "C:\Users\Pascal\Documents\GitHub\SaSeRoS-Team359\.\Sensors testing/hardware_testing.nxc"
12	18	33	#line 18 "C:\Users\Pascal\Documents\GitHub\SaSeRoS-Team359\.\Sensors testing/hardware_testing.nxc"
12	19	33		and __D0TestFrontTouchSensor, __signed_stack_001TestFrontTouchSensor, __zfTestFrontTouchSensor
12	18	37	#line 18 "C:\Users\Pascal\Documents\GitHub\SaSeRoS-Team359\.\Sensors testing/hardware_testing.nxc"
12	19	37		tst 5, __zfTestFrontTouchSensor, __D0TestFrontTouchSensor
12	18	40	#line 18 "C:\Users\Pascal\Documents\GitHub\SaSeRoS-Team359\.\Sensors testing/hardware_testing.nxc"
12	19	40		brtst 4, __NXC_Label_677, __zfTestFrontTouchSensor
12	19	43	#line 19 "C:\Users\Pascal\Documents\GitHub\SaSeRoS-Team359\.\Sensors testing/hardware_testing.nxc"
12	20	43		set __DU0TestFrontTouchSensor, 0
12	19	46	#line 19 "C:\Users\Pascal\Documents\GitHub\SaSeRoS-Team359\.\Sensors testing/hardware_testing.nxc"
12	19	46	#line 19 "C:\Users\Pascal\Documents\GitHub\SaSeRoS-Team359\.\Sensors testing/hardware_testing.nxc"
12	20	46		subret __TestFrontTouchSensor_return
12	19	48	#line 19 "C:\Users\Pascal\Documents\GitHub\SaSeRoS-Team359\.\Sensors testing/hardware_testing.nxc"
12	19	48	#line 19 "C:\Users\Pascal\Documents\GitHub\SaSeRoS-Team359\.\Sensors testing/hardware_testing.nxc"
12	20	48		jmp __NXC_Label_680
12	19	50	#line 19 "C:\Users\Pascal\Documents\GitHub\SaSeRoS-Team359\.\Sensors testing/hardware_testing.nxc"
12	20	50		mov __unsigned_stack_001TestFrontTouchSensor, __TestFrontTouchSensor_7qG2_button_7qG2_000
12	19	52	#line 19 "C:\Users\Pascal\Documents\GitHub\SaSeRoS-Team359\.\Sensors testing/hardware_testing.nxc"
12	19	52	#line 19 "C:\Users\Pascal\Documents\GitHub\SaSeRoS-Team359\.\Sensors testing/hardware_testing.nxc"
12	20	52		set __D0TestFrontTouchSensor, 0
12	19	55	#line 19 "C:\Users\Pascal\Documents\GitHub\SaSeRoS-Team359\.\Sensors testing/hardware_testing.nxc"
12	20	55		cmp 4, __zfTestFrontTouchSensor, __unsigned_stack_001TestFrontTouchSensor, __D0TestFrontTouchSensor
12	19	59	#line 19 "C:\Users\Pascal\Documents\GitHub\SaSeRoS-Team359\.\Sensors testing/hardware_testing.nxc"
12	20	59		mov __D0TestFrontTouchSensor, __zfTestFrontTouchSensor
12	19	62	#line 19 "C:\Users\Pascal\Documents\GitHub\SaSeRoS-Team359\.\Sensors testing/hardware_testing.nxc"
12	20	62		brtst 4, __NXC_Label_682, __zfTestFrontTouchSensor
12	19	65	#line 19 "C:\Users\Pascal\Documents\GitHub\SaSeRoS-Team359\.\Sensors testing/hardware_testing.nxc"
12	20	65		mov __signed_stack_001TestFrontTouchSensor, __D0TestFrontTouchSensor
12	19	67	#line 19 "C:\Users\Pascal\Documents\GitHub\SaSeRoS-Team359\.\Sensors testing/hardware_testing.nxc"
12	20	67		mov __unsigned_stack_002TestFrontTouchSensor, prevFront
12	19	69	#line 19 "C:\Users\Pascal\Documents\GitHub\SaSeRoS-Team359\.\Sensors testing/hardware_testing.nxc"
12	19	69	#line 19 "C:\Users\Pascal\Documents\GitHub\SaSeRoS-Team359\.\Sensors testing/hardware_testing.nxc"
12	20	69		set __D0TestFrontTouchSensor, 1
12	19	72	#line 19 "C:\Users\Pascal\Documents\GitHub\SaSeRoS-Team359\.\Sensors testing/hardware_testing.nxc"
12	20	72		cmp 4, __zfTestFrontTouchSensor, __unsigned_stack_002TestFrontTouchSensor, __D0TestFrontTouchSensor
12	19	76	#line 19 "C:\Users\Pascal\Documents\GitHub\SaSeRoS-Team359\.\Sensors testing/hardware_testing.nxc"
12	19	76	#line 19 "C:\Users\Pascal\Documents\GitHub\SaSeRoS-Team359\.\Sensors testing/hardware_testing.nxc"
12	20	76		and __D0TestFrontTouchSensor, __signed_stack_001TestFrontTouchSensor, __zfTestFrontTouchSensor
12	20	80	#line 20 "C:\Users\Pascal\Documents\GitHub\SaSeRoS-Team359\.\Sensors testing/hardware_testing.nxc"
12	21	80		tst 5, __zfTestFrontTouchSensor, __D0TestFrontTouchSensor
12	20	83	#line 20 "C:\Users\Pascal\Documents\GitHub\SaSeRoS-Team359\.\Sensors testing/hardware_testing.nxc"
12	21	83		brtst 4, __NXC_Label_683, __zfTestFrontTouchSensor
12	21	86	#line 21 "C:\Users\Pascal\Documents\GitHub\SaSeRoS-Team359\.\Sensors testing/hardware_testing.nxc"
12	22	86		set prevFront, 0
12	21	89	#line 21 "C:\Users\Pascal\Documents\GitHub\SaSeRoS-Team359\.\Sensors testing/hardware_testing.nxc"
12	21	89	#line 21 "C:\Users\Pascal\Documents\GitHub\SaSeRoS-Team359\.\Sensors testing/hardware_testing.nxc"
12	22	89	#line 22 "C:\Users\Pascal\Documents\GitHub\SaSeRoS-Team359\.\Sensors testing/hardware_testing.nxc"
12	23	89		set __DU0TestFrontTouchSensor, 1
12	22	92	#line 22 "C:\Users\Pascal\Documents\GitHub\SaSeRoS-Team359\.\Sensors testing/hardware_testing.nxc"
12	22	92	#line 22 "C:\Users\Pascal\Documents\GitHub\SaSeRoS-Team359\.\Sensors testing/hardware_testing.nxc"
12	23	92		subret __TestFrontTouchSensor_return
12	22	94	#line 22 "C:\Users\Pascal\Documents\GitHub\SaSeRoS-Team359\.\Sensors testing/hardware_testing.nxc"
12	23	94	#line 23 "C:\Users\Pascal\Documents\GitHub\SaSeRoS-Team359\.\Sensors testing/hardware_testing.nxc"
12	24	94		jmp __NXC_Label_688
12	24	96	#line 24 "C:\Users\Pascal\Documents\GitHub\SaSeRoS-Team359\.\Sensors testing/hardware_testing.nxc"
12	25	96		set __DU0TestFrontTouchSensor, 1
12	24	99	#line 24 "C:\Users\Pascal\Documents\GitHub\SaSeRoS-Team359\.\Sensors testing/hardware_testing.nxc"
12	24	99	#line 24 "C:\Users\Pascal\Documents\GitHub\SaSeRoS-Team359\.\Sensors testing/hardware_testing.nxc"
12	25	99		subret __TestFrontTouchSensor_return
12	24	101	#line 24 "C:\Users\Pascal\Documents\GitHub\SaSeRoS-Team359\.\Sensors testing/hardware_testing.nxc"
12	24	101	#line 24 "C:\Users\Pascal\Documents\GitHub\SaSeRoS-Team359\.\Sensors testing/hardware_testing.nxc"
12	24	101	#line 24 "C:\Users\Pascal\Documents\GitHub\SaSeRoS-Team359\.\Sensors testing/hardware_testing.nxc"
12	26	101	#line 26 "C:\Users\Pascal\Documents\GitHub\SaSeRoS-Team359\.\Sensors testing/hardware_testing.nxc"
12	27	101		subret __TestFrontTouchSensor_return
13	29	0	#line 29 "C:\Users\Pascal\Documents\GitHub\SaSeRoS-Team359\.\Sensors testing/hardware_testing.nxc"
13	30	0		set __TestBackTouchSensor_7qG2_button_7qG2_000, 1
13	29	3	#line 29 "C:\Users\Pascal\Documents\GitHub\SaSeRoS-Team359\.\Sensors testing/hardware_testing.nxc"
13	29	3	#line 29 "C:\Users\Pascal\Documents\GitHub\SaSeRoS-Team359\.\Sensors testing/hardware_testing.nxc"
13	30	3		getin __TestBackTouchSensor_7qG2_button_7qG2_000, __constVal2, 4
13	29	7	#line 29 "C:\Users\Pascal\Documents\GitHub\SaSeRoS-Team359\.\Sensors testing/hardware_testing.nxc"
13	29	7	#line 29 "C:\Users\Pascal\Documents\GitHub\SaSeRoS-Team359\.\Sensors testing/hardware_testing.nxc"
13	29	7	#line 29 "C:\Users\Pascal\Documents\GitHub\SaSeRoS-Team359\.\Sensors testing/hardware_testing.nxc"
13	30	7	#line 30 "C:\Users\Pascal\Documents\GitHub\SaSeRoS-Team359\.\Sensors testing/hardware_testing.nxc"
13	31	7		mov __unsigned_stack_001TestBackTouchSensor, __TestBackTouchSensor_7qG2_button_7qG2_000
13	30	9	#line 30 "C:\Users\Pascal\Documents\GitHub\SaSeRoS-Team359\.\Sensors testing/hardware_testing.nxc"
13	30	9	#line 30 "C:\Users\Pascal\Documents\GitHub\SaSeRoS-Team359\.\Sensors testing/hardware_testing.nxc"
13	31	9		set __D0TestBackTouchSensor, 1
13	30	12	#line 30 "C:\Users\Pascal\Documents\GitHub\SaSeRoS-Team359\.\Sensors testing/hardware_testing.nxc"
13	31	12		cmp 4, __zfTestBackTouchSensor, __unsigned_stack_001TestBackTouchSensor, __D0TestBackTouchSensor
13	30	16	#line 30 "C:\Users\Pascal\Documents\GitHub\SaSeRoS-Team359\.\Sensors testing/hardware_testing.nxc"
13	31	16		mov __D0TestBackTouchSensor, __zfTestBackTouchSensor
13	30	19	#line 30 "C:\Users\Pascal\Documents\GitHub\SaSeRoS-Team359\.\Sensors testing/hardware_testing.nxc"
13	31	19		brtst 4, __NXC_Label_696, __zfTestBackTouchSensor
13	30	22	#line 30 "C:\Users\Pascal\Documents\GitHub\SaSeRoS-Team359\.\Sensors testing/hardware_testing.nxc"
13	31	22		mov __signed_stack_001TestBackTouchSensor, __D0TestBackTouchSensor
13	30	24	#line 30 "C:\Users\Pascal\Documents\GitHub\SaSeRoS-Team359\.\Sensors testing/hardware_testing.nxc"
13	31	24		mov __unsigned_stack_002TestBackTouchSensor, prevBack
13	30	26	#line 30 "C:\Users\Pascal\Documents\GitHub\SaSeRoS-Team359\.\Sensors testing/hardware_testing.nxc"
13	31	26	#line 31 "C:\Users\Pascal\Documents\GitHub\SaSeRoS-Team359\.\Sensors testing/hardware_testing.nxc"
13	32	26		set __D0TestBackTouchSensor, 1
13	31	29	#line 31 "C:\Users\Pascal\Documents\GitHub\SaSeRoS-Team359\.\Sensors testing/hardware_testing.nxc"
13	32	29		cmp 4, __zfTestBackTouchSensor, __unsigned_stack_002TestBackTouchSensor, __D0TestBackTouchSensor
13	31	33	#line 31 "C:\Users\Pascal\Documents\GitHub\SaSeRoS-Team359\.\Sensors testing/hardware_testing.nxc"
13	31	33	#line 31 "C:\Users\Pascal\Documents\GitHub\SaSeRoS-Team359\.\Sensors testing/hardware_testing.nxc"
13	32	33		and __D0TestBackTouchSensor, __signed_stack_001TestBackTouchSensor, __zfTestBackTouchSensor
13	31	37	#line 31 "C:\Users\Pascal\Documents\GitHub\SaSeRoS-Team359\.\Sensors testing/hardware_testing.nxc"
13	32	37		tst 5, __zfTestBackTouchSensor, __D0TestBackTouchSensor
13	31	40	#line 31 "C:\Users\Pascal\Documents\GitHub\SaSeRoS-Team359\.\Sensors testing/hardware_testing.nxc"
13	32	40		brtst 4, __NXC_Label_697, __zfTestBackTouchSensor
13	32	43	#line 32 "C:\Users\Pascal\Documents\GitHub\SaSeRoS-Team359\.\Sensors testing/hardware_testing.nxc"
13	33	43		set __DU0TestBackTouchSensor, 0
13	32	46	#line 32 "C:\Users\Pascal\Documents\GitHub\SaSeRoS-Team359\.\Sensors testing/hardware_testing.nxc"
13	32	46	#line 32 "C:\Users\Pascal\Documents\GitHub\SaSeRoS-Team359\.\Sensors testing/hardware_testing.nxc"
13	33	46		subret __TestBackTouchSensor_return
13	32	48	#line 32 "C:\Users\Pascal\Documents\GitHub\SaSeRoS-Team359\.\Sensors testing/hardware_testing.nxc"
13	32	48	#line 32 "C:\Users\Pascal\Documents\GitHub\SaSeRoS-Team359\.\Sensors testing/hardware_testing.nxc"
13	33	48		jmp __NXC_Label_700
13	32	50	#line 32 "C:\Users\Pascal\Documents\GitHub\SaSeRoS-Team359\.\Sensors testing/hardware_testing.nxc"
13	33	50		mov __unsigned_stack_001TestBackTouchSensor, __TestBackTouchSensor_7qG2_button_7qG2_000
13	32	52	#line 32 "C:\Users\Pascal\Documents\GitHub\SaSeRoS-Team359\.\Sensors testing/hardware_testing.nxc"
13	32	52	#line 32 "C:\Users\Pascal\Documents\GitHub\SaSeRoS-Team359\.\Sensors testing/hardware_testing.nxc"
13	33	52		set __D0TestBackTouchSensor, 0
13	32	55	#line 32 "C:\Users\Pascal\Documents\GitHub\SaSeRoS-Team359\.\Sensors testing/hardware_testing.nxc"
13	33	55		cmp 4, __zfTestBackTouchSensor, __unsigned_stack_001TestBackTouchSensor, __D0TestBackTouchSensor
13	32	59	#line 32 "C:\Users\Pascal\Documents\GitHub\SaSeRoS-Team359\.\Sensors testing/hardware_testing.nxc"
13	33	59		mov __D0TestBackTouchSensor, __zfTestBackTouchSensor
13	32	62	#line 32 "C:\Users\Pascal\Documents\GitHub\SaSeRoS-Team359\.\Sensors testing/hardware_testing.nxc"
13	33	62		brtst 4, __NXC_Label_702, __zfTestBackTouchSensor
13	32	65	#line 32 "C:\Users\Pascal\Documents\GitHub\SaSeRoS-Team359\.\Sensors testing/hardware_testing.nxc"
13	33	65		mov __signed_stack_001TestBackTouchSensor, __D0TestBackTouchSensor
13	32	67	#line 32 "C:\Users\Pascal\Documents\GitHub\SaSeRoS-Team359\.\Sensors testing/hardware_testing.nxc"
13	33	67		mov __unsigned_stack_002TestBackTouchSensor, prevBack
13	32	69	#line 32 "C:\Users\Pascal\Documents\GitHub\SaSeRoS-Team359\.\Sensors testing/hardware_testing.nxc"
13	32	69	#line 32 "C:\Users\Pascal\Documents\GitHub\SaSeRoS-Team359\.\Sensors testing/hardware_testing.nxc"
13	33	69		set __D0TestBackTouchSensor, 1
13	32	72	#line 32 "C:\Users\Pascal\Documents\GitHub\SaSeRoS-Team359\.\Sensors testing/hardware_testing.nxc"
13	33	72		cmp 4, __zfTestBackTouchSensor, __unsigned_stack_002TestBackTouchSensor, __D0TestBackTouchSensor
13	32	76	#line 32 "C:\Users\Pascal\Documents\GitHub\SaSeRoS-Team359\.\Sensors testing/hardware_testing.nxc"
13	32	76	#line 32 "C:\Users\Pascal\Documents\GitHub\SaSeRoS-Team359\.\Sensors testing/hardware_testing.nxc"
13	33	76		and __D0TestBackTouchSensor, __signed_stack_001TestBackTouchSensor, __zfTestBackTouchSensor
13	33	80	#line 33 "C:\Users\Pascal\Documents\GitHub\SaSeRoS-Team359\.\Sensors testing/hardware_testing.nxc"
13	34	80		tst 5, __zfTestBackTouchSensor, __D0TestBackTouchSensor
13	33	83	#line 33 "C:\Users\Pascal\Documents\GitHub\SaSeRoS-Team359\.\Sensors testing/hardware_testing.nxc"
13	34	83		brtst 4, __NXC_Label_703, __zfTestBackTouchSensor
13	34	86	#line 34 "C:\Users\Pascal\Documents\GitHub\SaSeRoS-Team359\.\Sensors testing/hardware_testing.nxc"
13	35	86		set prevBack, 0
13	34	89	#line 34 "C:\Users\Pascal\Documents\GitHub\SaSeRoS-Team359\.\Sensors testing/hardware_testing.nxc"
13	34	89	#line 34 "C:\Users\Pascal\Documents\GitHub\SaSeRoS-Team359\.\Sensors testing/hardware_testing.nxc"
13	35	89	#line 35 "C:\Users\Pascal\Documents\GitHub\SaSeRoS-Team359\.\Sensors testing/hardware_testing.nxc"
13	36	89		set __DU0TestBackTouchSensor, 1
13	35	92	#line 35 "C:\Users\Pascal\Documents\GitHub\SaSeRoS-Team359\.\Sensors testing/hardware_testing.nxc"
13	35	92	#line 35 "C:\Users\Pascal\Documents\GitHub\SaSeRoS-Team359\.\Sensors testing/hardware_testing.nxc"
13	36	92		subret __TestBackTouchSensor_return
13	35	94	#line 35 "C:\Users\Pascal\Documents\GitHub\SaSeRoS-Team359\.\Sensors testing/hardware_testing.nxc"
13	36	94	#line 36 "C:\Users\Pascal\Documents\GitHub\SaSeRoS-Team359\.\Sensors testing/hardware_testing.nxc"
13	37	94		jmp __NXC_Label_708
13	37	96	#line 37 "C:\Users\Pascal\Documents\GitHub\SaSeRoS-Team359\.\Sensors testing/hardware_testing.nxc"
13	38	96		set __DU0TestBackTouchSensor, 1
13	37	99	#line 37 "C:\Users\Pascal\Documents\GitHub\SaSeRoS-Team359\.\Sensors testing/hardware_testing.nxc"
13	37	99	#line 37 "C:\Users\Pascal\Documents\GitHub\SaSeRoS-Team359\.\Sensors testing/hardware_testing.nxc"
13	38	99		subret __TestBackTouchSensor_return
13	37	101	#line 37 "C:\Users\Pascal\Documents\GitHub\SaSeRoS-Team359\.\Sensors testing/hardware_testing.nxc"
13	37	101	#line 37 "C:\Users\Pascal\Documents\GitHub\SaSeRoS-Team359\.\Sensors testing/hardware_testing.nxc"
13	37	101	#line 37 "C:\Users\Pascal\Documents\GitHub\SaSeRoS-Team359\.\Sensors testing/hardware_testing.nxc"
13	39	101	#line 39 "C:\Users\Pascal\Documents\GitHub\SaSeRoS-Team359\.\Sensors testing/hardware_testing.nxc"
13	40	101		subret __TestBackTouchSensor_return
14	42	0	#line 42 "C:\Users\Pascal\Documents\GitHub\SaSeRoS-Team359\.\Sensors testing/hardware_testing.nxc"
14	43	0		getin __TestLightSensor_7qG2_lightValue_7qG2_000, __constVal1, 4
14	42	4	#line 42 "C:\Users\Pascal\Documents\GitHub\SaSeRoS-Team359\.\Sensors testing/hardware_testing.nxc"
14	42	4	#line 42 "C:\Users\Pascal\Documents\GitHub\SaSeRoS-Team359\.\Sensors testing/hardware_testing.nxc"
14	42	4	#line 42 "C:\Users\Pascal\Documents\GitHub\SaSeRoS-Team359\.\Sensors testing/hardware_testing.nxc"
14	43	4	#line 43 "C:\Users\Pascal\Documents\GitHub\SaSeRoS-Team359\.\Sensors testing/hardware_testing.nxc"
14	44	4		mov __signed_stack_001TestLightSensor, __TestLightSensor_7qG2_lightValue_7qG2_000
14	43	6	#line 43 "C:\Users\Pascal\Documents\GitHub\SaSeRoS-Team359\.\Sensors testing/hardware_testing.nxc"
14	44	6	#line 44 "C:\Users\Pascal\Documents\GitHub\SaSeRoS-Team359\.\Sensors testing/hardware_testing.nxc"
14	45	6		set __D0TestLightSensor, 0
14	44	9	#line 44 "C:\Users\Pascal\Documents\GitHub\SaSeRoS-Team359\.\Sensors testing/hardware_testing.nxc"
14	45	9		cmp 4, __zfTestLightSensor, __signed_stack_001TestLightSensor, __D0TestLightSensor
14	44	13	#line 44 "C:\Users\Pascal\Documents\GitHub\SaSeRoS-Team359\.\Sensors testing/hardware_testing.nxc"
14	45	13		mov __D0TestLightSensor, __zfTestLightSensor
14	44	16	#line 44 "C:\Users\Pascal\Documents\GitHub\SaSeRoS-Team359\.\Sensors testing/hardware_testing.nxc"
14	45	16		brtst 4, __NXC_Label_715, __zfTestLightSensor
14	45	19	#line 45 "C:\Users\Pascal\Documents\GitHub\SaSeRoS-Team359\.\Sensors testing/hardware_testing.nxc"
14	46	19		set __DU0TestLightSensor, 0
14	45	22	#line 45 "C:\Users\Pascal\Documents\GitHub\SaSeRoS-Team359\.\Sensors testing/hardware_testing.nxc"
14	45	22	#line 45 "C:\Users\Pascal\Documents\GitHub\SaSeRoS-Team359\.\Sensors testing/hardware_testing.nxc"
14	46	22		subret __TestLightSensor_return
14	45	24	#line 45 "C:\Users\Pascal\Documents\GitHub\SaSeRoS-Team359\.\Sensors testing/hardware_testing.nxc"
14	46	24	#line 46 "C:\Users\Pascal\Documents\GitHub\SaSeRoS-Team359\.\Sensors testing/hardware_testing.nxc"
14	47	24		jmp __NXC_Label_718
14	47	26	#line 47 "C:\Users\Pascal\Documents\GitHub\SaSeRoS-Team359\.\Sensors testing/hardware_testing.nxc"
14	48	26		set __DU0TestLightSensor, 1
14	47	29	#line 47 "C:\Users\Pascal\Documents\GitHub\SaSeRoS-Team359\.\Sensors testing/hardware_testing.nxc"
14	47	29	#line 47 "C:\Users\Pascal\Documents\GitHub\SaSeRoS-Team359\.\Sensors testing/hardware_testing.nxc"
14	48	29		subret __TestLightSensor_return
14	47	31	#line 47 "C:\Users\Pascal\Documents\GitHub\SaSeRoS-Team359\.\Sensors testing/hardware_testing.nxc"
14	47	31	#line 47 "C:\Users\Pascal\Documents\GitHub\SaSeRoS-Team359\.\Sensors testing/hardware_testing.nxc"
14	49	31	#line 49 "C:\Users\Pascal\Documents\GitHub\SaSeRoS-Team359\.\Sensors testing/hardware_testing.nxc"
14	50	31		subret __TestLightSensor_return
15	52	0	#line 52 "C:\Users\Pascal\Documents\GitHub\SaSeRoS-Team359\.\Sensors testing/hardware_testing.nxc"
15	53	0	#pragma macro 26
15	53	0		acquire __RLSBmutex3
15	53	1		mov __RLSReadBuf3, __RLSBbufLSWrite1
15	53	3		set __RLSBytesCount3, 1
15	53	6		wait2 NA, __constVal15
15	53	9		subcall __ReadLSBytes3, ____ReadLSBytes3_return
15	53	12		index __D0TestUsSensor, __RLSReadBuf3, 65535
15	53	16		release __RLSBmutex3
15	7824	17	#line 7824 "C:\Users\Pascal\Documents\GitHub\SaSeRoS-Team359\.\Sensors testing/hardware_testing.nxc"
15	52	17	#line 52 "C:\Users\Pascal\Documents\GitHub\SaSeRoS-Team359\.\Sensors testing/hardware_testing.nxc"
15	52	17	#line 52 "C:\Users\Pascal\Documents\GitHub\SaSeRoS-Team359\.\Sensors testing/hardware_testing.nxc"
15	52	17	#line 52 "C:\Users\Pascal\Documents\GitHub\SaSeRoS-Team359\.\Sensors testing/hardware_testing.nxc"
15	53	17	#line 53 "C:\Users\Pascal\Documents\GitHub\SaSeRoS-Team359\.\Sensors testing/hardware_testing.nxc"
15	54	17		mov __signed_stack_001TestUsSensor, __D0TestUsSensor
15	53	19	#line 53 "C:\Users\Pascal\Documents\GitHub\SaSeRoS-Team359\.\Sensors testing/hardware_testing.nxc"
15	54	19	#line 54 "C:\Users\Pascal\Documents\GitHub\SaSeRoS-Team359\.\Sensors testing/hardware_testing.nxc"
15	55	19		set __D0TestUsSensor, 0
15	54	22	#line 54 "C:\Users\Pascal\Documents\GitHub\SaSeRoS-Team359\.\Sensors testing/hardware_testing.nxc"
15	55	22		cmp 4, __zfTestUsSensor, __signed_stack_001TestUsSensor, __D0TestUsSensor
15	54	26	#line 54 "C:\Users\Pascal\Documents\GitHub\SaSeRoS-Team359\.\Sensors testing/hardware_testing.nxc"
15	55	26		mov __D0TestUsSensor, __zfTestUsSensor
15	54	29	#line 54 "C:\Users\Pascal\Documents\GitHub\SaSeRoS-Team359\.\Sensors testing/hardware_testing.nxc"
15	55	29		brtst 4, __NXC_Label_725, __zfTestUsSensor
15	55	32	#line 55 "C:\Users\Pascal\Documents\GitHub\SaSeRoS-Team359\.\Sensors testing/hardware_testing.nxc"
15	56	32		set __DU0TestUsSensor, 0
15	55	35	#line 55 "C:\Users\Pascal\Documents\GitHub\SaSeRoS-Team359\.\Sensors testing/hardware_testing.nxc"
15	55	35	#line 55 "C:\Users\Pascal\Documents\GitHub\SaSeRoS-Team359\.\Sensors testing/hardware_testing.nxc"
15	56	35		subret __TestUsSensor_return
15	55	37	#line 55 "C:\Users\Pascal\Documents\GitHub\SaSeRoS-Team359\.\Sensors testing/hardware_testing.nxc"
15	56	37	#line 56 "C:\Users\Pascal\Documents\GitHub\SaSeRoS-Team359\.\Sensors testing/hardware_testing.nxc"
15	57	37		jmp __NXC_Label_728
15	57	39	#line 57 "C:\Users\Pascal\Documents\GitHub\SaSeRoS-Team359\.\Sensors testing/hardware_testing.nxc"
15	58	39		set __DU0TestUsSensor, 1
15	57	42	#line 57 "C:\Users\Pascal\Documents\GitHub\SaSeRoS-Team359\.\Sensors testing/hardware_testing.nxc"
15	57	42	#line 57 "C:\Users\Pascal\Documents\GitHub\SaSeRoS-Team359\.\Sensors testing/hardware_testing.nxc"
15	58	42		subret __TestUsSensor_return
15	57	44	#line 57 "C:\Users\Pascal\Documents\GitHub\SaSeRoS-Team359\.\Sensors testing/hardware_testing.nxc"
15	57	44	#line 57 "C:\Users\Pascal\Documents\GitHub\SaSeRoS-Team359\.\Sensors testing/hardware_testing.nxc"
15	59	44	#line 59 "C:\Users\Pascal\Documents\GitHub\SaSeRoS-Team359\.\Sensors testing/hardware_testing.nxc"
15	60	44		subret __TestUsSensor_return
16	61	0	#line 61 "C:\Users\Pascal\Documents\GitHub\SaSeRoS-Team359\.\Sensors testing/hardware_testing.nxc"
16	62	0		set __TestSensors_7qG2_touchSensorFront_7qG2_000, 0
16	61	3	#line 61 "C:\Users\Pascal\Documents\GitHub\SaSeRoS-Team359\.\Sensors testing/hardware_testing.nxc"
16	62	3	#line 62 "C:\Users\Pascal\Documents\GitHub\SaSeRoS-Team359\.\Sensors testing/hardware_testing.nxc"
16	63	3		set __TestSensors_7qG2_lightSensor_7qG2_000, 0
16	62	6	#line 62 "C:\Users\Pascal\Documents\GitHub\SaSeRoS-Team359\.\Sensors testing/hardware_testing.nxc"
16	63	6	#line 63 "C:\Users\Pascal\Documents\GitHub\SaSeRoS-Team359\.\Sensors testing/hardware_testing.nxc"
16	64	6		set __TestSensors_7qG2_touchSensorBack_7qG2_000, 0
16	63	9	#line 63 "C:\Users\Pascal\Documents\GitHub\SaSeRoS-Team359\.\Sensors testing/hardware_testing.nxc"
16	65	9	#line 65 "C:\Users\Pascal\Documents\GitHub\SaSeRoS-Team359\.\Sensors testing/hardware_testing.nxc"
16	66	9		set __TestSensors_7qG2_usSensor_7qG2_000, 0
16	65	12	#line 65 "C:\Users\Pascal\Documents\GitHub\SaSeRoS-Team359\.\Sensors testing/hardware_testing.nxc"
16	65	12	#line 65 "C:\Users\Pascal\Documents\GitHub\SaSeRoS-Team359\.\Sensors testing/hardware_testing.nxc"
16	66	12		set __SetSensorTouch_7qG2_port_7qG2_000_inline_TestSensors, 0
16	65	15	#line 65 "C:\Users\Pascal\Documents\GitHub\SaSeRoS-Team359\.\Sensors testing/hardware_testing.nxc"
16	3718	15	#line 3718 "NXCDefs.h"
16	3719	15	#pragma macro 6
16	3719	15		setin __constVal1, __SetSensorTouch_7qG2_port_7qG2_000_inline_TestSensors, 0
16	3719	19		setin __constVal32, __SetSensorTouch_7qG2_port_7qG2_000_inline_TestSensors, 1
16	3719	23		acquire __ResetSensorMutex
16	3719	24		mov __ResetSensorPort, __SetSensorTouch_7qG2_port_7qG2_000_inline_TestSensors
16	3719	26		subcall __ResetSensorSubroutine, ____ResetSensorSubroutine_return
16	3719	29		release __ResetSensorMutex
16	7924	30	#line 7924 "NXCDefs.h"
16	3718	30	#line 3718 "NXCDefs.h"
16	66	30	#line 66 "C:\Users\Pascal\Documents\GitHub\SaSeRoS-Team359\.\Sensors testing/hardware_testing.nxc"
16	66	30	#line 66 "C:\Users\Pascal\Documents\GitHub\SaSeRoS-Team359\.\Sensors testing/hardware_testing.nxc"
16	67	30		set __SetSensorLight_7qG2_port_7qG2_000_inline_TestSensors, 1
16	66	33	#line 66 "C:\Users\Pascal\Documents\GitHub\SaSeRoS-Team359\.\Sensors testing/hardware_testing.nxc"
16	67	33	#line 67 "C:\Users\Pascal\Documents\GitHub\SaSeRoS-Team359\.\Sensors testing/hardware_testing.nxc"
16	68	33		mov __SetSensorLight_7qG2_bActive_7qG2_000_inline_TestSensors, __constVal1
16	3729	35	#line 3729 "NXCDefs.h"
16	3730	35		mov __SetSensorType_7qG2_port_7qG2_000_inline_SetSensorLight_inline_TestSensors, __SetSensorLight_7qG2_port_7qG2_000_inline_TestSensors
16	3729	37	#line 3729 "NXCDefs.h"
16	3729	37	#line 3729 "NXCDefs.h"
16	3730	37		mov __DU0SetSensorLight_inline_TestSensors, __SetSensorLight_7qG2_bActive_7qG2_000_inline_TestSensors
16	3729	40	#line 3729 "NXCDefs.h"
16	3730	40		tst 5, __zfSetSensorLight_inline_TestSensors, __DU0SetSensorLight_inline_TestSensors
16	3729	43	#line 3729 "NXCDefs.h"
16	3730	43		brtst 4, __002__NXC_Label_4, __zfSetSensorLight_inline_TestSensors
16	3729	46	#line 3729 "NXCDefs.h"
16	3730	46		set __D0SetSensorLight_inline_TestSensors, 5
16	3729	49	#line 3729 "NXCDefs.h"
16	3730	49		jmp __002__NXC_Label_5
16	3729	51	#line 3729 "NXCDefs.h"
16	3730	51		set __D0SetSensorLight_inline_TestSensors, 6
16	3729	54	#line 3729 "NXCDefs.h"
16	3730	54		mov __SetSensorType_7qG2_type_7qG2_000_inline_SetSensorLight_inline_TestSensors, __D0SetSensorLight_inline_TestSensors
16	3663	57	#line 3663 "NXCDefs.h"
16	3664	57		setin __SetSensorType_7qG2_type_7qG2_000_inline_SetSensorLight_inline_TestSensors, __SetSensorType_7qG2_port_7qG2_000_inline_SetSensorLight_inline_TestSensors, 0
16	3663	61	#line 3663 "NXCDefs.h"
16	3730	61	#line 3730 "NXCDefs.h"
16	3730	61	#line 3730 "NXCDefs.h"
16	3731	61		mov __SetSensorMode_7qG2_port_7qG2_000_inline_SetSensorLight_inline_TestSensors, __SetSensorLight_7qG2_port_7qG2_000_inline_TestSensors
16	3730	63	#line 3730 "NXCDefs.h"
16	3730	63	#line 3730 "NXCDefs.h"
16	3731	63		set __SetSensorMode_7qG2_mode_7qG2_000_inline_SetSensorLight_inline_TestSensors, 128
16	3730	66	#line 3730 "NXCDefs.h"
16	3676	66	#line 3676 "NXCDefs.h"
16	3677	66		setin __SetSensorMode_7qG2_mode_7qG2_000_inline_SetSensorLight_inline_TestSensors, __SetSensorMode_7qG2_port_7qG2_000_inline_SetSensorLight_inline_TestSensors, 1
16	3676	70	#line 3676 "NXCDefs.h"
16	3731	70	#line 3731 "NXCDefs.h"
16	3731	70	#line 3731 "NXCDefs.h"
16	3732	70		mov __ResetSensor_7qG2_port_7qG2_000_inline_SetSensorLight_inline_TestSensors, __SetSensorLight_7qG2_port_7qG2_000_inline_TestSensors
16	3731	72	#line 3731 "NXCDefs.h"
16	3694	72	#line 3694 "NXCDefs.h"
16	3695	72	#pragma macro 4
16	3695	72		acquire __ResetSensorMutex
16	3695	73		mov __ResetSensorPort, __ResetSensor_7qG2_port_7qG2_000_inline_SetSensorLight_inline_TestSensors
16	3695	75		subcall __ResetSensorSubroutine, ____ResetSensorSubroutine_return
16	3695	78		release __ResetSensorMutex
16	8018	79	#line 8018 "NXCDefs.h"
16	3694	79	#line 3694 "NXCDefs.h"
16	3732	79	#line 3732 "NXCDefs.h"
16	67	79	#line 67 "C:\Users\Pascal\Documents\GitHub\SaSeRoS-Team359\.\Sensors testing/hardware_testing.nxc"
16	67	79	#line 67 "C:\Users\Pascal\Documents\GitHub\SaSeRoS-Team359\.\Sensors testing/hardware_testing.nxc"
16	68	79		set __SetSensorTouch_7qG2_port_7qG2_000_inline_TestSensors, 2
16	67	82	#line 67 "C:\Users\Pascal\Documents\GitHub\SaSeRoS-Team359\.\Sensors testing/hardware_testing.nxc"
16	3718	82	#line 3718 "NXCDefs.h"
16	3719	82	#pragma macro 6
16	3719	82		setin __constVal1, __SetSensorTouch_7qG2_port_7qG2_000_inline_TestSensors, 0
16	3719	86		setin __constVal32, __SetSensorTouch_7qG2_port_7qG2_000_inline_TestSensors, 1
16	3719	90		acquire __ResetSensorMutex
16	3719	91		mov __ResetSensorPort, __SetSensorTouch_7qG2_port_7qG2_000_inline_TestSensors
16	3719	93		subcall __ResetSensorSubroutine, ____ResetSensorSubroutine_return
16	3719	96		release __ResetSensorMutex
16	8029	97	#line 8029 "NXCDefs.h"
16	3718	97	#line 3718 "NXCDefs.h"
16	68	97	#line 68 "C:\Users\Pascal\Documents\GitHub\SaSeRoS-Team359\.\Sensors testing/hardware_testing.nxc"
16	68	97	#line 68 "C:\Users\Pascal\Documents\GitHub\SaSeRoS-Team359\.\Sensors testing/hardware_testing.nxc"
16	68	97	#line 68 "C:\Users\Pascal\Documents\GitHub\SaSeRoS-Team359\.\Sensors testing/hardware_testing.nxc"
16	3768	97	#line 3768 "NXCDefs.h"
16	3769	97		mov __SetSensorLowspeed_7qG2_port_7qG2_000_inline_SetSensorUltrasonic_inline_TestSensors, __constVal3
16	3768	99	#line 3768 "NXCDefs.h"
16	3768	99	#line 3768 "NXCDefs.h"
16	3769	99		mov __SetSensorLowspeed_7qG2_bIsPowered_7qG2_000_inline_SetSensorUltrasonic_inline_TestSensors, __constVal1
16	3758	101	#line 3758 "NXCDefs.h"
16	3759	101		mov __SetSensorType_7qG2_port_7qG2_000_inline_SetSensorLowspeed_inline_SetSensorUltrasonic_inline_TestSensors, __SetSensorLowspeed_7qG2_port_7qG2_000_inline_SetSensorUltrasonic_inline_TestSensors
16	3758	103	#line 3758 "NXCDefs.h"
16	3758	103	#line 3758 "NXCDefs.h"
16	3759	103		mov __DU0SetSensorLowspeed_inline_SetSensorUltrasonic, __SetSensorLowspeed_7qG2_bIsPowered_7qG2_000_inline_SetSensorUltrasonic_inline_TestSensors
16	3758	106	#line 3758 "NXCDefs.h"
16	3759	106		tst 5, __zfSetSensorLowspeed_inline_SetSensorUltrasonic, __DU0SetSensorLowspeed_inline_SetSensorUltrasonic
16	3758	109	#line 3758 "NXCDefs.h"
16	3759	109		brtst 4, __001__002__NXC_Label_36, __zfSetSensorLowspeed_inline_SetSensorUltrasonic
16	3758	112	#line 3758 "NXCDefs.h"
16	3759	112		set __D0SetSensorLowspeed_inline_SetSensorUltrasonic, 11
16	3758	115	#line 3758 "NXCDefs.h"
16	3759	115		jmp __001__002__NXC_Label_37
16	3758	117	#line 3758 "NXCDefs.h"
16	3759	117		set __D0SetSensorLowspeed_inline_SetSensorUltrasonic, 10
16	3758	120	#line 3758 "NXCDefs.h"
16	3759	120		mov __SetSensorType_7qG2_type_7qG2_000_inline_SetSensorLowspeed_inline_SetSensorUltrasonic_inline_TestSensors, __D0SetSensorLowspeed_inline_SetSensorUltrasonic
16	3663	123	#line 3663 "NXCDefs.h"
16	3664	123		setin __SetSensorType_7qG2_type_7qG2_000_inline_SetSensorLowspeed_inline_SetSensorUltrasonic_inline_TestSensors, __SetSensorType_7qG2_port_7qG2_000_inline_SetSensorLowspeed_inline_SetSensorUltrasonic_inline_TestSensors, 0
16	3663	127	#line 3663 "NXCDefs.h"
16	3759	127	#line 3759 "NXCDefs.h"
16	3759	127	#line 3759 "NXCDefs.h"
16	3760	127		mov __SetSensorMode_7qG2_port_7qG2_000_inline_SetSensorLowspeed_inline_SetSensorUltrasonic_inline_TestSensors, __SetSensorLowspeed_7qG2_port_7qG2_000_inline_SetSensorUltrasonic_inline_TestSensors
16	3759	129	#line 3759 "NXCDefs.h"
16	3759	129	#line 3759 "NXCDefs.h"
16	3760	129		set __SetSensorMode_7qG2_mode_7qG2_000_inline_SetSensorLowspeed_inline_SetSensorUltrasonic_inline_TestSensors, 0
16	3759	132	#line 3759 "NXCDefs.h"
16	3676	132	#line 3676 "NXCDefs.h"
16	3677	132		setin __SetSensorMode_7qG2_mode_7qG2_000_inline_SetSensorLowspeed_inline_SetSensorUltrasonic_inline_TestSensors, __SetSensorMode_7qG2_port_7qG2_000_inline_SetSensorLowspeed_inline_SetSensorUltrasonic_inline_TestSensors, 1
16	3676	136	#line 3676 "NXCDefs.h"
16	3760	136	#line 3760 "NXCDefs.h"
16	3760	136	#line 3760 "NXCDefs.h"
16	3761	136		mov __ResetSensor_7qG2_port_7qG2_000_inline_SetSensorLowspeed_inline_SetSensorUltrasonic_inline_TestSensors, __SetSensorLowspeed_7qG2_port_7qG2_000_inline_SetSensorUltrasonic_inline_TestSensors
16	3760	138	#line 3760 "NXCDefs.h"
16	3694	138	#line 3694 "NXCDefs.h"
16	3695	138	#pragma macro 4
16	3695	138		acquire __ResetSensorMutex
16	3695	139		mov __ResetSensorPort, __ResetSensor_7qG2_port_7qG2_000_inline_SetSensorLowspeed_inline_SetSensorUltrasonic_inline_TestSensors
16	3695	141		subcall __ResetSensorSubroutine, ____ResetSensorSubroutine_return
16	3695	144		release __ResetSensorMutex
16	8133	145	#line 8133 "NXCDefs.h"
16	3694	145	#line 3694 "NXCDefs.h"
16	3761	145	#line 3761 "NXCDefs.h"
16	3768	145	#line 3768 "NXCDefs.h"
16	70	145	#line 70 "C:\Users\Pascal\Documents\GitHub\SaSeRoS-Team359\.\Sensors testing/hardware_testing.nxc"
16	72	145	#line 72 "C:\Users\Pascal\Documents\GitHub\SaSeRoS-Team359\.\Sensors testing/hardware_testing.nxc"
16	73	145		subcall TestFrontTouchSensor, __TestFrontTouchSensor_return
16	72	147	#line 72 "C:\Users\Pascal\Documents\GitHub\SaSeRoS-Team359\.\Sensors testing/hardware_testing.nxc"
16	73	147		mov __TestSensors_7qG2_touchSensorFront_7qG2_000, __DU0TestFrontTouchSensor
16	72	149	#line 72 "C:\Users\Pascal\Documents\GitHub\SaSeRoS-Team359\.\Sensors testing/hardware_testing.nxc"
16	72	149	#line 72 "C:\Users\Pascal\Documents\GitHub\SaSeRoS-Team359\.\Sensors testing/hardware_testing.nxc"
16	73	149	#line 73 "C:\Users\Pascal\Documents\GitHub\SaSeRoS-Team359\.\Sensors testing/hardware_testing.nxc"
16	74	149		subcall TestLightSensor, __TestLightSensor_return
16	73	151	#line 73 "C:\Users\Pascal\Documents\GitHub\SaSeRoS-Team359\.\Sensors testing/hardware_testing.nxc"
16	74	151		mov __TestSensors_7qG2_lightSensor_7qG2_000, __DU0TestLightSensor
16	73	153	#line 73 "C:\Users\Pascal\Documents\GitHub\SaSeRoS-Team359\.\Sensors testing/hardware_testing.nxc"
16	73	153	#line 73 "C:\Users\Pascal\Documents\GitHub\SaSeRoS-Team359\.\Sensors testing/hardware_testing.nxc"
16	74	153	#line 74 "C:\Users\Pascal\Documents\GitHub\SaSeRoS-Team359\.\Sensors testing/hardware_testing.nxc"
16	75	153		subcall TestBackTouchSensor, __TestBackTouchSensor_return
16	74	155	#line 74 "C:\Users\Pascal\Documents\GitHub\SaSeRoS-Team359\.\Sensors testing/hardware_testing.nxc"
16	75	155		mov __TestSensors_7qG2_touchSensorBack_7qG2_000, __DU0TestBackTouchSensor
16	74	157	#line 74 "C:\Users\Pascal\Documents\GitHub\SaSeRoS-Team359\.\Sensors testing/hardware_testing.nxc"
16	74	157	#line 74 "C:\Users\Pascal\Documents\GitHub\SaSeRoS-Team359\.\Sensors testing/hardware_testing.nxc"
16	75	157	#line 75 "C:\Users\Pascal\Documents\GitHub\SaSeRoS-Team359\.\Sensors testing/hardware_testing.nxc"
16	76	157		subcall TestUsSensor, __TestUsSensor_return
16	75	159	#line 75 "C:\Users\Pascal\Documents\GitHub\SaSeRoS-Team359\.\Sensors testing/hardware_testing.nxc"
16	76	159		mov __TestSensors_7qG2_usSensor_7qG2_000, __DU0TestUsSensor
16	75	162	#line 75 "C:\Users\Pascal\Documents\GitHub\SaSeRoS-Team359\.\Sensors testing/hardware_testing.nxc"
16	75	162	#line 75 "C:\Users\Pascal\Documents\GitHub\SaSeRoS-Team359\.\Sensors testing/hardware_testing.nxc"
16	75	162	#line 75 "C:\Users\Pascal\Documents\GitHub\SaSeRoS-Team359\.\Sensors testing/hardware_testing.nxc"
16	76	162		set __PlaySound_7qG2_aCode_7qG2_000, 1
16	75	165	#line 75 "C:\Users\Pascal\Documents\GitHub\SaSeRoS-Team359\.\Sensors testing/hardware_testing.nxc"
16	76	165	#line 76 "C:\Users\Pascal\Documents\GitHub\SaSeRoS-Team359\.\Sensors testing/hardware_testing.nxc"
16	77	165		subcall PlaySound, __PlaySound_return
16	76	167	#line 76 "C:\Users\Pascal\Documents\GitHub\SaSeRoS-Team359\.\Sensors testing/hardware_testing.nxc"
16	76	167	#line 76 "C:\Users\Pascal\Documents\GitHub\SaSeRoS-Team359\.\Sensors testing/hardware_testing.nxc"
16	76	167	#line 76 "C:\Users\Pascal\Documents\GitHub\SaSeRoS-Team359\.\Sensors testing/hardware_testing.nxc"
16	77	167		not __DU0TestSensors, __TestSensors_7qG2_touchSensorFront_7qG2_000
16	76	170	#line 76 "C:\Users\Pascal\Documents\GitHub\SaSeRoS-Team359\.\Sensors testing/hardware_testing.nxc"
16	77	170		tst 5, __zfTestSensors, __DU0TestSensors
16	76	173	#line 76 "C:\Users\Pascal\Documents\GitHub\SaSeRoS-Team359\.\Sensors testing/hardware_testing.nxc"
16	77	173		mov __D0TestSensors, __zfTestSensors
16	76	176	#line 76 "C:\Users\Pascal\Documents\GitHub\SaSeRoS-Team359\.\Sensors testing/hardware_testing.nxc"
16	77	176		brtst 5, __NXC_Label_759, __zfTestSensors
16	76	179	#line 76 "C:\Users\Pascal\Documents\GitHub\SaSeRoS-Team359\.\Sensors testing/hardware_testing.nxc"
16	77	179		mov __signed_stack_001TestSensors, __D0TestSensors
16	76	181	#line 76 "C:\Users\Pascal\Documents\GitHub\SaSeRoS-Team359\.\Sensors testing/hardware_testing.nxc"
16	76	181	#line 76 "C:\Users\Pascal\Documents\GitHub\SaSeRoS-Team359\.\Sensors testing/hardware_testing.nxc"
16	77	181		not __DU0TestSensors, __TestSensors_7qG2_touchSensorBack_7qG2_000
16	76	184	#line 76 "C:\Users\Pascal\Documents\GitHub\SaSeRoS-Team359\.\Sensors testing/hardware_testing.nxc"
16	77	184		tst 5, __zfTestSensors, __DU0TestSensors
16	76	187	#line 76 "C:\Users\Pascal\Documents\GitHub\SaSeRoS-Team359\.\Sensors testing/hardware_testing.nxc"
16	76	187	#line 76 "C:\Users\Pascal\Documents\GitHub\SaSeRoS-Team359\.\Sensors testing/hardware_testing.nxc"
16	77	187		or __D0TestSensors, __signed_stack_001TestSensors, __zfTestSensors
16	76	191	#line 76 "C:\Users\Pascal\Documents\GitHub\SaSeRoS-Team359\.\Sensors testing/hardware_testing.nxc"
16	77	191		tst 5, __zfTestSensors, __D0TestSensors
16	76	194	#line 76 "C:\Users\Pascal\Documents\GitHub\SaSeRoS-Team359\.\Sensors testing/hardware_testing.nxc"
16	77	194		mov __D0TestSensors, __zfTestSensors
16	76	197	#line 76 "C:\Users\Pascal\Documents\GitHub\SaSeRoS-Team359\.\Sensors testing/hardware_testing.nxc"
16	77	197		brtst 5, __NXC_Label_759, __zfTestSensors
16	76	200	#line 76 "C:\Users\Pascal\Documents\GitHub\SaSeRoS-Team359\.\Sensors testing/hardware_testing.nxc"
16	77	200		mov __signed_stack_001TestSensors, __D0TestSensors
16	76	202	#line 76 "C:\Users\Pascal\Documents\GitHub\SaSeRoS-Team359\.\Sensors testing/hardware_testing.nxc"
16	76	202	#line 76 "C:\Users\Pascal\Documents\GitHub\SaSeRoS-Team359\.\Sensors testing/hardware_testing.nxc"
16	77	202		not __DU0TestSensors, __TestSensors_7qG2_lightSensor_7qG2_000
16	76	205	#line 76 "C:\Users\Pascal\Documents\GitHub\SaSeRoS-Team359\.\Sensors testing/hardware_testing.nxc"
16	77	205		tst 5, __zfTestSensors, __DU0TestSensors
16	76	208	#line 76 "C:\Users\Pascal\Documents\GitHub\SaSeRoS-Team359\.\Sensors testing/hardware_testing.nxc"
16	76	208	#line 76 "C:\Users\Pascal\Documents\GitHub\SaSeRoS-Team359\.\Sensors testing/hardware_testing.nxc"
16	77	208		or __D0TestSensors, __signed_stack_001TestSensors, __zfTestSensors
16	76	212	#line 76 "C:\Users\Pascal\Documents\GitHub\SaSeRoS-Team359\.\Sensors testing/hardware_testing.nxc"
16	77	212		tst 5, __zfTestSensors, __D0TestSensors
16	76	215	#line 76 "C:\Users\Pascal\Documents\GitHub\SaSeRoS-Team359\.\Sensors testing/hardware_testing.nxc"
16	77	215		mov __D0TestSensors, __zfTestSensors
16	76	218	#line 76 "C:\Users\Pascal\Documents\GitHub\SaSeRoS-Team359\.\Sensors testing/hardware_testing.nxc"
16	77	218		brtst 5, __NXC_Label_759, __zfTestSensors
16	76	221	#line 76 "C:\Users\Pascal\Documents\GitHub\SaSeRoS-Team359\.\Sensors testing/hardware_testing.nxc"
16	77	221		mov __signed_stack_001TestSensors, __D0TestSensors
16	76	223	#line 76 "C:\Users\Pascal\Documents\GitHub\SaSeRoS-Team359\.\Sensors testing/hardware_testing.nxc"
16	76	223	#line 76 "C:\Users\Pascal\Documents\GitHub\SaSeRoS-Team359\.\Sensors testing/hardware_testing.nxc"
16	77	223		not __DU0TestSensors, __TestSensors_7qG2_usSensor_7qG2_000
16	76	226	#line 76 "C:\Users\Pascal\Documents\GitHub\SaSeRoS-Team359\.\Sensors testing/hardware_testing.nxc"
16	77	226		tst 5, __zfTestSensors, __DU0TestSensors
16	76	229	#line 76 "C:\Users\Pascal\Documents\GitHub\SaSeRoS-Team359\.\Sensors testing/hardware_testing.nxc"
16	76	229	#line 76 "C:\Users\Pascal\Documents\GitHub\SaSeRoS-Team359\.\Sensors testing/hardware_testing.nxc"
16	77	229		or __D0TestSensors, __signed_stack_001TestSensors, __zfTestSensors
16	77	233	#line 77 "C:\Users\Pascal\Documents\GitHub\SaSeRoS-Team359\.\Sensors testing/hardware_testing.nxc"
16	78	233		tst 5, __zfTestSensors, __D0TestSensors
16	77	236	#line 77 "C:\Users\Pascal\Documents\GitHub\SaSeRoS-Team359\.\Sensors testing/hardware_testing.nxc"
16	78	236		brtst 4, __NXC_Label_748, __zfTestSensors
16	77	239	#line 77 "C:\Users\Pascal\Documents\GitHub\SaSeRoS-Team359\.\Sensors testing/hardware_testing.nxc"
16	78	239		jmp __NXC_Label_747
16	77	241	#line 77 "C:\Users\Pascal\Documents\GitHub\SaSeRoS-Team359\.\Sensors testing/hardware_testing.nxc"
16	77	241	#line 77 "C:\Users\Pascal\Documents\GitHub\SaSeRoS-Team359\.\Sensors testing/hardware_testing.nxc"
16	79	241	#line 79 "C:\Users\Pascal\Documents\GitHub\SaSeRoS-Team359\.\Sensors testing/hardware_testing.nxc"
16	80	241		subret __TestSensors_return
17	6069	0	#line 6069 "NXCDefs.h"
17	6070	0	#pragma macro 6
17	6070	0		mov __PointOutArgs.Location.X, __constVal200
17	6070	3		mov __PointOutArgs.Location.Y, __constVal200
17	6070	6		mov __PointOutArgs.Options, __constVal1
17	6070	8		syscall 14, __PointOutArgs
17	8291	11	#line 8291 "NXCDefs.h"
17	6069	11	#line 6069 "NXCDefs.h"
17	5	11	#line 5 "C:\Users\Pascal\Documents\GitHub\SaSeRoS-Team359\.\edge_detection.h"
17	5	11	#line 5 "C:\Users\Pascal\Documents\GitHub\SaSeRoS-Team359\.\edge_detection.h"
17	6	11		set __signed_stack_001DetectEdge, 0
17	5	14	#line 5 "C:\Users\Pascal\Documents\GitHub\SaSeRoS-Team359\.\edge_detection.h"
17	5	14	#line 5 "C:\Users\Pascal\Documents\GitHub\SaSeRoS-Team359\.\edge_detection.h"
17	6	14		set __signed_stack_002DetectEdge, 0
17	5	17	#line 5 "C:\Users\Pascal\Documents\GitHub\SaSeRoS-Team359\.\edge_detection.h"
17	5	17	#line 5 "C:\Users\Pascal\Documents\GitHub\SaSeRoS-Team359\.\edge_detection.h"
17	6	17		getin __D0DetectEdge, __constVal1, 4
17	6	21	#line 6 "C:\Users\Pascal\Documents\GitHub\SaSeRoS-Team359\.\edge_detection.h"
17	7	21		acquire __TextOutMutex
17	6	22	#line 6 "C:\Users\Pascal\Documents\GitHub\SaSeRoS-Team359\.\edge_detection.h"
17	7	22		mov __TextOutArgs.Location.X, __signed_stack_001DetectEdge
17	6	25	#line 6 "C:\Users\Pascal\Documents\GitHub\SaSeRoS-Team359\.\edge_detection.h"
17	7	25		mov __TextOutArgs.Location.Y, __signed_stack_002DetectEdge
17	6	28	#line 6 "C:\Users\Pascal\Documents\GitHub\SaSeRoS-Team359\.\edge_detection.h"
17	7	28		set __TextOutArgs.Options, 0
17	6	31	#line 6 "C:\Users\Pascal\Documents\GitHub\SaSeRoS-Team359\.\edge_detection.h"
17	7	31		numtostr __TextOutArgs.Text, __D0DetectEdge
17	6	34	#line 6 "C:\Users\Pascal\Documents\GitHub\SaSeRoS-Team359\.\edge_detection.h"
17	7	34		syscall 13, __TextOutArgs
17	6	37	#line 6 "C:\Users\Pascal\Documents\GitHub\SaSeRoS-Team359\.\edge_detection.h"
17	7	37		mov __D0DetectEdge, __TextOutArgs.Result
17	6	40	#line 6 "C:\Users\Pascal\Documents\GitHub\SaSeRoS-Team359\.\edge_detection.h"
17	7	40		release __TextOutMutex
17	6	41	#line 6 "C:\Users\Pascal\Documents\GitHub\SaSeRoS-Team359\.\edge_detection.h"
17	6	41	#line 6 "C:\Users\Pascal\Documents\GitHub\SaSeRoS-Team359\.\edge_detection.h"
17	6	41	#line 6 "C:\Users\Pascal\Documents\GitHub\SaSeRoS-Team359\.\edge_detection.h"
17	7	41		getin __signed_stack_001DetectEdge, __constVal1, 4
17	6	45	#line 6 "C:\Users\Pascal\Documents\GitHub\SaSeRoS-Team359\.\edge_detection.h"
17	6	45	#line 6 "C:\Users\Pascal\Documents\GitHub\SaSeRoS-Team359\.\edge_detection.h"
17	7	45		set __D0DetectEdge, 40
17	6	48	#line 6 "C:\Users\Pascal\Documents\GitHub\SaSeRoS-Team359\.\edge_detection.h"
17	7	48		cmp 3, __zfDetectEdge, __signed_stack_001DetectEdge, __D0DetectEdge
17	6	52	#line 6 "C:\Users\Pascal\Documents\GitHub\SaSeRoS-Team359\.\edge_detection.h"
17	7	52		mov __D0DetectEdge, __zfDetectEdge
17	8	55	#line 8 "C:\Users\Pascal\Documents\GitHub\SaSeRoS-Team359\.\edge_detection.h"
17	9	55		brtst 4, __NXC_Label_778, __zfDetectEdge
17	9	58	#line 9 "C:\Users\Pascal\Documents\GitHub\SaSeRoS-Team359\.\edge_detection.h"
17	10	58		set __DU0DetectEdge, 0
17	9	61	#line 9 "C:\Users\Pascal\Documents\GitHub\SaSeRoS-Team359\.\edge_detection.h"
17	9	61	#line 9 "C:\Users\Pascal\Documents\GitHub\SaSeRoS-Team359\.\edge_detection.h"
17	10	61		subret __DetectEdge_return
17	9	63	#line 9 "C:\Users\Pascal\Documents\GitHub\SaSeRoS-Team359\.\edge_detection.h"
17	11	63	#line 11 "C:\Users\Pascal\Documents\GitHub\SaSeRoS-Team359\.\edge_detection.h"
17	12	63		jmp __NXC_Label_781
17	12	65	#line 12 "C:\Users\Pascal\Documents\GitHub\SaSeRoS-Team359\.\edge_detection.h"
17	13	65		set __DU0DetectEdge, 1
17	12	68	#line 12 "C:\Users\Pascal\Documents\GitHub\SaSeRoS-Team359\.\edge_detection.h"
17	12	68	#line 12 "C:\Users\Pascal\Documents\GitHub\SaSeRoS-Team359\.\edge_detection.h"
17	13	68		subret __DetectEdge_return
17	12	70	#line 12 "C:\Users\Pascal\Documents\GitHub\SaSeRoS-Team359\.\edge_detection.h"
17	14	70	#line 14 "C:\Users\Pascal\Documents\GitHub\SaSeRoS-Team359\.\edge_detection.h"
17	14	70	#line 14 "C:\Users\Pascal\Documents\GitHub\SaSeRoS-Team359\.\edge_detection.h"
17	15	70		subret __DetectEdge_return
18	16	0	#line 16 "C:\Users\Pascal\Documents\GitHub\SaSeRoS-Team359\.\scanner.h"
18	17	0		set __signed_stack_001TurnTurret, 30
18	16	3	#line 16 "C:\Users\Pascal\Documents\GitHub\SaSeRoS-Team359\.\scanner.h"
18	16	3	#line 16 "C:\Users\Pascal\Documents\GitHub\SaSeRoS-Team359\.\scanner.h"
18	17	3		mov __D0TurnTurret, __TurnTurret_7qG2_deg_7qG2_000
18	17	5	#line 17 "C:\Users\Pascal\Documents\GitHub\SaSeRoS-Team359\.\scanner.h"
18	18	5	#pragma macro 33
18	18	5		acquire __rotateMutex2
18	18	6		arrbuild __rotate_ports2, __constVal2
18	18	10		mov __rotate_power2, __signed_stack_001TurnTurret
18	18	12		mov __rotate_angle2, __D0TurnTurret
18	18	14		mov __rotate_turnpct2, __constVal0
18	18	16		mov __rotate_sync2, __constVal0
18	18	18		mov __rotate_stop2, __constVal1
18	18	20		mov __rotate_theRVP2, __constVal32
18	18	22		mov __rotate_theRVI2, __constVal0
18	18	24		mov __rotate_theRVD2, __constVal96
18	18	26		subcall __RotateMotor2, ____RotateMotor2_return
18	18	29		release __rotateMutex2
18	8393	30	#line 8393 "C:\Users\Pascal\Documents\GitHub\SaSeRoS-Team359\.\scanner.h"
18	17	30	#line 17 "C:\Users\Pascal\Documents\GitHub\SaSeRoS-Team359\.\scanner.h"
18	18	30	#line 18 "C:\Users\Pascal\Documents\GitHub\SaSeRoS-Team359\.\scanner.h"
18	18	30	#line 18 "C:\Users\Pascal\Documents\GitHub\SaSeRoS-Team359\.\scanner.h"
18	19	30		add scanner_currentRotation, scanner_currentRotation, __TurnTurret_7qG2_deg_7qG2_000
18	18	34	#line 18 "C:\Users\Pascal\Documents\GitHub\SaSeRoS-Team359\.\scanner.h"
18	20	34	#line 20 "C:\Users\Pascal\Documents\GitHub\SaSeRoS-Team359\.\scanner.h"
18	21	34		subret __TurnTurret_return
19	22	0	#line 22 "C:\Users\Pascal\Documents\GitHub\SaSeRoS-Team359\.\scanner.h"
19	23	0		set __signed_stack_001CenterTurret, 30
19	22	3	#line 22 "C:\Users\Pascal\Documents\GitHub\SaSeRoS-Team359\.\scanner.h"
19	22	3	#line 22 "C:\Users\Pascal\Documents\GitHub\SaSeRoS-Team359\.\scanner.h"
19	22	3	#line 22 "C:\Users\Pascal\Documents\GitHub\SaSeRoS-Team359\.\scanner.h"
19	22	3	#line 22 "C:\Users\Pascal\Documents\GitHub\SaSeRoS-Team359\.\scanner.h"
19	22	3	#line 22 "C:\Users\Pascal\Documents\GitHub\SaSeRoS-Team359\.\scanner.h"
19	23	3		sub __D0CenterTurret, __constVal0, scanner_currentRotation
19	23	7	#line 23 "C:\Users\Pascal\Documents\GitHub\SaSeRoS-Team359\.\scanner.h"
19	24	7	#pragma macro 33
19	24	7		acquire __rotateMutex2
19	24	8		arrbuild __rotate_ports2, __constVal2
19	24	12		mov __rotate_power2, __signed_stack_001CenterTurret
19	24	14		mov __rotate_angle2, __D0CenterTurret
19	24	16		mov __rotate_turnpct2, __constVal0
19	24	18		mov __rotate_sync2, __constVal0
19	24	20		mov __rotate_stop2, __constVal1
19	24	22		mov __rotate_theRVP2, __constVal32
19	24	24		mov __rotate_theRVI2, __constVal0
19	24	26		mov __rotate_theRVD2, __constVal96
19	24	28		subcall __RotateMotor2, ____RotateMotor2_return
19	24	31		release __rotateMutex2
19	8424	32	#line 8424 "C:\Users\Pascal\Documents\GitHub\SaSeRoS-Team359\.\scanner.h"
19	23	32	#line 23 "C:\Users\Pascal\Documents\GitHub\SaSeRoS-Team359\.\scanner.h"
19	24	32	#line 24 "C:\Users\Pascal\Documents\GitHub\SaSeRoS-Team359\.\scanner.h"
19	25	32		set scanner_currentRotation, 0
19	24	35	#line 24 "C:\Users\Pascal\Documents\GitHub\SaSeRoS-Team359\.\scanner.h"
19	24	35	#line 24 "C:\Users\Pascal\Documents\GitHub\SaSeRoS-Team359\.\scanner.h"
19	27	35	#line 27 "C:\Users\Pascal\Documents\GitHub\SaSeRoS-Team359\.\scanner.h"
19	28	35		subret __CenterTurret_return
20	28	0	#line 28 "C:\Users\Pascal\Documents\GitHub\SaSeRoS-Team359\.\scanner.h"
20	29	0		mov __TurnTurret_7qG2_deg_7qG2_000, __CheckDirection_7qG2_dir_7qG2_000
20	28	2	#line 28 "C:\Users\Pascal\Documents\GitHub\SaSeRoS-Team359\.\scanner.h"
20	29	2	#line 29 "C:\Users\Pascal\Documents\GitHub\SaSeRoS-Team359\.\scanner.h"
20	30	2		subcall TurnTurret, __TurnTurret_return
20	29	5	#line 29 "C:\Users\Pascal\Documents\GitHub\SaSeRoS-Team359\.\scanner.h"
20	29	5	#line 29 "C:\Users\Pascal\Documents\GitHub\SaSeRoS-Team359\.\scanner.h"
20	30	5		set __Wait_7qG2_ms_7qG2_000_inline_CheckDirection, 300
20	29	8	#line 29 "C:\Users\Pascal\Documents\GitHub\SaSeRoS-Team359\.\scanner.h"
20	7921	8	#line 7921 "NXCDefs.h"
20	7922	8		wait2 NA, __Wait_7qG2_ms_7qG2_000_inline_CheckDirection
20	7921	11	#line 7921 "NXCDefs.h"
20	30	11	#line 30 "C:\Users\Pascal\Documents\GitHub\SaSeRoS-Team359\.\scanner.h"
20	30	11	#line 30 "C:\Users\Pascal\Documents\GitHub\SaSeRoS-Team359\.\scanner.h"
20	31	11	#pragma macro 26
20	31	11		acquire __RLSBmutex3
20	31	12		mov __RLSReadBuf3, __RLSBbufLSWrite1
20	31	14		set __RLSBytesCount3, 1
20	31	17		wait2 NA, __constVal15
20	31	20		subcall __ReadLSBytes3, ____ReadLSBytes3_return
20	31	23		index __D0CheckDirection, __RLSReadBuf3, 65535
20	31	27		release __RLSBmutex3
20	8466	28	#line 8466 "C:\Users\Pascal\Documents\GitHub\SaSeRoS-Team359\.\scanner.h"
20	30	28	#line 30 "C:\Users\Pascal\Documents\GitHub\SaSeRoS-Team359\.\scanner.h"
20	31	28		mov __signed_stack_001CheckDirection, __D0CheckDirection
20	30	30	#line 30 "C:\Users\Pascal\Documents\GitHub\SaSeRoS-Team359\.\scanner.h"
20	31	30		set __D0CheckDirection, 30
20	30	33	#line 30 "C:\Users\Pascal\Documents\GitHub\SaSeRoS-Team359\.\scanner.h"
20	31	33		cmp 1, __zfCheckDirection, __signed_stack_001CheckDirection, __D0CheckDirection
20	30	37	#line 30 "C:\Users\Pascal\Documents\GitHub\SaSeRoS-Team359\.\scanner.h"
20	31	37		mov __D0CheckDirection, __zfCheckDirection
20	31	40	#line 31 "C:\Users\Pascal\Documents\GitHub\SaSeRoS-Team359\.\scanner.h"
20	32	40		brtst 4, __NXC_Label_802, __zfCheckDirection
20	31	43	#line 31 "C:\Users\Pascal\Documents\GitHub\SaSeRoS-Team359\.\scanner.h"
20	31	43	#line 31 "C:\Users\Pascal\Documents\GitHub\SaSeRoS-Team359\.\scanner.h"
20	31	43	#line 31 "C:\Users\Pascal\Documents\GitHub\SaSeRoS-Team359\.\scanner.h"
20	31	43	#line 31 "C:\Users\Pascal\Documents\GitHub\SaSeRoS-Team359\.\scanner.h"
20	32	43		sub __TurnTurret_7qG2_deg_7qG2_000, __constVal0, __CheckDirection_7qG2_dir_7qG2_000
20	31	47	#line 31 "C:\Users\Pascal\Documents\GitHub\SaSeRoS-Team359\.\scanner.h"
20	32	47	#line 32 "C:\Users\Pascal\Documents\GitHub\SaSeRoS-Team359\.\scanner.h"
20	33	47		subcall TurnTurret, __TurnTurret_return
20	32	50	#line 32 "C:\Users\Pascal\Documents\GitHub\SaSeRoS-Team359\.\scanner.h"
20	33	50	#line 33 "C:\Users\Pascal\Documents\GitHub\SaSeRoS-Team359\.\scanner.h"
20	34	50		set __DU0CheckDirection, 1
20	33	53	#line 33 "C:\Users\Pascal\Documents\GitHub\SaSeRoS-Team359\.\scanner.h"
20	33	53	#line 33 "C:\Users\Pascal\Documents\GitHub\SaSeRoS-Team359\.\scanner.h"
20	34	53		subret __CheckDirection_return
20	33	55	#line 33 "C:\Users\Pascal\Documents\GitHub\SaSeRoS-Team359\.\scanner.h"
20	35	55	#line 35 "C:\Users\Pascal\Documents\GitHub\SaSeRoS-Team359\.\scanner.h"
20	36	55		jmp __NXC_Label_807
20	35	57	#line 35 "C:\Users\Pascal\Documents\GitHub\SaSeRoS-Team359\.\scanner.h"
20	35	57	#line 35 "C:\Users\Pascal\Documents\GitHub\SaSeRoS-Team359\.\scanner.h"
20	35	57	#line 35 "C:\Users\Pascal\Documents\GitHub\SaSeRoS-Team359\.\scanner.h"
20	35	57	#line 35 "C:\Users\Pascal\Documents\GitHub\SaSeRoS-Team359\.\scanner.h"
20	36	57		sub __TurnTurret_7qG2_deg_7qG2_000, __constVal0, __CheckDirection_7qG2_dir_7qG2_000
20	35	61	#line 35 "C:\Users\Pascal\Documents\GitHub\SaSeRoS-Team359\.\scanner.h"
20	36	61	#line 36 "C:\Users\Pascal\Documents\GitHub\SaSeRoS-Team359\.\scanner.h"
20	37	61		subcall TurnTurret, __TurnTurret_return
20	36	64	#line 36 "C:\Users\Pascal\Documents\GitHub\SaSeRoS-Team359\.\scanner.h"
20	37	64	#line 37 "C:\Users\Pascal\Documents\GitHub\SaSeRoS-Team359\.\scanner.h"
20	38	64		set __DU0CheckDirection, 0
20	37	67	#line 37 "C:\Users\Pascal\Documents\GitHub\SaSeRoS-Team359\.\scanner.h"
20	37	67	#line 37 "C:\Users\Pascal\Documents\GitHub\SaSeRoS-Team359\.\scanner.h"
20	38	67		subret __CheckDirection_return
20	37	69	#line 37 "C:\Users\Pascal\Documents\GitHub\SaSeRoS-Team359\.\scanner.h"
20	43	69	#line 43 "C:\Users\Pascal\Documents\GitHub\SaSeRoS-Team359\.\scanner.h"
20	43	69	#line 43 "C:\Users\Pascal\Documents\GitHub\SaSeRoS-Team359\.\scanner.h"
20	44	69		subret __CheckDirection_return
21	45	0	#line 45 "C:\Users\Pascal\Documents\GitHub\SaSeRoS-Team359\.\scanner.h"
21	46	0		set __UltrasonicScan_7qG2_sensor_value_7qG2_000, 0
21	45	3	#line 45 "C:\Users\Pascal\Documents\GitHub\SaSeRoS-Team359\.\scanner.h"
21	45	3	#line 45 "C:\Users\Pascal\Documents\GitHub\SaSeRoS-Team359\.\scanner.h"
21	45	3	#line 45 "C:\Users\Pascal\Documents\GitHub\SaSeRoS-Team359\.\scanner.h"
21	3768	3	#line 3768 "NXCDefs.h"
21	3769	3		mov __SetSensorLowspeed_7qG2_port_7qG2_000_inline_SetSensorUltrasonic_inline_UltrasonicScan, __constVal3
21	3768	5	#line 3768 "NXCDefs.h"
21	3768	5	#line 3768 "NXCDefs.h"
21	3769	5		mov __SetSensorLowspeed_7qG2_bIsPowered_7qG2_000_inline_SetSensorUltrasonic_inline_UltrasonicScan, __constVal1
21	3758	7	#line 3758 "NXCDefs.h"
21	3759	7		mov __SetSensorType_7qG2_port_7qG2_000_inline_SetSensorLowspeed_inline_SetSensorUltrasonic_inline_UltrasonicScan, __SetSensorLowspeed_7qG2_port_7qG2_000_inline_SetSensorUltrasonic_inline_UltrasonicScan
21	3758	9	#line 3758 "NXCDefs.h"
21	3758	9	#line 3758 "NXCDefs.h"
21	3759	9		mov __DU0SetSensorLowspeed_inline_SetSensorUltrasonic, __SetSensorLowspeed_7qG2_bIsPowered_7qG2_000_inline_SetSensorUltrasonic_inline_UltrasonicScan
21	3758	11	#line 3758 "NXCDefs.h"
21	3759	11		tst 5, __zfSetSensorLowspeed_inline_SetSensorUltrasonic, __DU0SetSensorLowspeed_inline_SetSensorUltrasonic
21	3758	14	#line 3758 "NXCDefs.h"
21	3759	14		brtst 4, __001__003__NXC_Label_36, __zfSetSensorLowspeed_inline_SetSensorUltrasonic
21	3758	17	#line 3758 "NXCDefs.h"
21	3759	17		set __D0SetSensorLowspeed_inline_SetSensorUltrasonic, 11
21	3758	20	#line 3758 "NXCDefs.h"
21	3759	20		jmp __001__003__NXC_Label_37
21	3758	22	#line 3758 "NXCDefs.h"
21	3759	22		set __D0SetSensorLowspeed_inline_SetSensorUltrasonic, 10
21	3758	25	#line 3758 "NXCDefs.h"
21	3759	25		mov __SetSensorType_7qG2_type_7qG2_000_inline_SetSensorLowspeed_inline_SetSensorUltrasonic_inline_UltrasonicScan, __D0SetSensorLowspeed_inline_SetSensorUltrasonic
21	3663	27	#line 3663 "NXCDefs.h"
21	3664	27		setin __SetSensorType_7qG2_type_7qG2_000_inline_SetSensorLowspeed_inline_SetSensorUltrasonic_inline_UltrasonicScan, __SetSensorType_7qG2_port_7qG2_000_inline_SetSensorLowspeed_inline_SetSensorUltrasonic_inline_UltrasonicScan, 0
21	3663	31	#line 3663 "NXCDefs.h"
21	3759	31	#line 3759 "NXCDefs.h"
21	3759	31	#line 3759 "NXCDefs.h"
21	3760	31		mov __SetSensorMode_7qG2_port_7qG2_000_inline_SetSensorLowspeed_inline_SetSensorUltrasonic_inline_UltrasonicScan, __SetSensorLowspeed_7qG2_port_7qG2_000_inline_SetSensorUltrasonic_inline_UltrasonicScan
21	3759	33	#line 3759 "NXCDefs.h"
21	3759	33	#line 3759 "NXCDefs.h"
21	3760	33		set __SetSensorMode_7qG2_mode_7qG2_000_inline_SetSensorLowspeed_inline_SetSensorUltrasonic_inline_UltrasonicScan, 0
21	3759	36	#line 3759 "NXCDefs.h"
21	3676	36	#line 3676 "NXCDefs.h"
21	3677	36		setin __SetSensorMode_7qG2_mode_7qG2_000_inline_SetSensorLowspeed_inline_SetSensorUltrasonic_inline_UltrasonicScan, __SetSensorMode_7qG2_port_7qG2_000_inline_SetSensorLowspeed_inline_SetSensorUltrasonic_inline_UltrasonicScan, 1
21	3676	40	#line 3676 "NXCDefs.h"
21	3760	40	#line 3760 "NXCDefs.h"
21	3760	40	#line 3760 "NXCDefs.h"
21	3761	40		mov __ResetSensor_7qG2_port_7qG2_000_inline_SetSensorLowspeed_inline_SetSensorUltrasonic_inline_UltrasonicScan, __SetSensorLowspeed_7qG2_port_7qG2_000_inline_SetSensorUltrasonic_inline_UltrasonicScan
21	3760	42	#line 3760 "NXCDefs.h"
21	3694	42	#line 3694 "NXCDefs.h"
21	3695	42	#pragma macro 4
21	3695	42		acquire __ResetSensorMutex
21	3695	43		mov __ResetSensorPort, __ResetSensor_7qG2_port_7qG2_000_inline_SetSensorLowspeed_inline_SetSensorUltrasonic_inline_UltrasonicScan
21	3695	45		subcall __ResetSensorSubroutine, ____ResetSensorSubroutine_return
21	3695	48		release __ResetSensorMutex
21	8648	49	#line 8648 "NXCDefs.h"
21	3694	49	#line 3694 "NXCDefs.h"
21	3761	49	#line 3761 "NXCDefs.h"
21	3768	49	#line 3768 "NXCDefs.h"
21	48	49	#line 48 "C:\Users\Pascal\Documents\GitHub\SaSeRoS-Team359\.\scanner.h"
21	48	49	#line 48 "C:\Users\Pascal\Documents\GitHub\SaSeRoS-Team359\.\scanner.h"
21	49	49		mov __TurnTurret_7qG2_deg_7qG2_000, __constValNeg180
21	48	51	#line 48 "C:\Users\Pascal\Documents\GitHub\SaSeRoS-Team359\.\scanner.h"
21	50	51	#line 50 "C:\Users\Pascal\Documents\GitHub\SaSeRoS-Team359\.\scanner.h"
21	51	51		subcall TurnTurret, __TurnTurret_return
21	50	54	#line 50 "C:\Users\Pascal\Documents\GitHub\SaSeRoS-Team359\.\scanner.h"
21	50	54	#line 50 "C:\Users\Pascal\Documents\GitHub\SaSeRoS-Team359\.\scanner.h"
21	51	54		mov __signed_stack_001UltrasonicScan, scanner_currentRotation
21	50	56	#line 50 "C:\Users\Pascal\Documents\GitHub\SaSeRoS-Team359\.\scanner.h"
21	50	56	#line 50 "C:\Users\Pascal\Documents\GitHub\SaSeRoS-Team359\.\scanner.h"
21	51	56		set __D0UltrasonicScan, 180
21	50	59	#line 50 "C:\Users\Pascal\Documents\GitHub\SaSeRoS-Team359\.\scanner.h"
21	51	59		cmp 0, __zfUltrasonicScan, __signed_stack_001UltrasonicScan, __D0UltrasonicScan
21	50	63	#line 50 "C:\Users\Pascal\Documents\GitHub\SaSeRoS-Team359\.\scanner.h"
21	51	63		mov __D0UltrasonicScan, __zfUltrasonicScan
21	52	66	#line 52 "C:\Users\Pascal\Documents\GitHub\SaSeRoS-Team359\.\scanner.h"
21	53	66		brtst 4, __NXC_Label_819, __zfUltrasonicScan
21	52	69	#line 52 "C:\Users\Pascal\Documents\GitHub\SaSeRoS-Team359\.\scanner.h"
21	53	69		set __TurnTurret_7qG2_deg_7qG2_000, 20
21	52	72	#line 52 "C:\Users\Pascal\Documents\GitHub\SaSeRoS-Team359\.\scanner.h"
21	55	72	#line 55 "C:\Users\Pascal\Documents\GitHub\SaSeRoS-Team359\.\scanner.h"
21	56	72		subcall TurnTurret, __TurnTurret_return
21	55	75	#line 55 "C:\Users\Pascal\Documents\GitHub\SaSeRoS-Team359\.\scanner.h"
21	55	75	#line 55 "C:\Users\Pascal\Documents\GitHub\SaSeRoS-Team359\.\scanner.h"
21	56	75		set __Wait_7qG2_ms_7qG2_000_inline_UltrasonicScan, 300
21	55	78	#line 55 "C:\Users\Pascal\Documents\GitHub\SaSeRoS-Team359\.\scanner.h"
21	7921	78	#line 7921 "NXCDefs.h"
21	7922	78		wait2 NA, __Wait_7qG2_ms_7qG2_000_inline_UltrasonicScan
21	7921	81	#line 7921 "NXCDefs.h"
21	58	81	#line 58 "C:\Users\Pascal\Documents\GitHub\SaSeRoS-Team359\.\scanner.h"
21	58	81	#line 58 "C:\Users\Pascal\Documents\GitHub\SaSeRoS-Team359\.\scanner.h"
21	59	81	#pragma macro 26
21	59	81		acquire __RLSBmutex3
21	59	82		mov __RLSReadBuf3, __RLSBbufLSWrite1
21	59	84		set __RLSBytesCount3, 1
21	59	87		wait2 NA, __constVal15
21	59	90		subcall __ReadLSBytes3, ____ReadLSBytes3_return
21	59	93		index __D0UltrasonicScan, __RLSReadBuf3, 65535
21	59	97		release __RLSBmutex3
21	8701	98	#line 8701 "C:\Users\Pascal\Documents\GitHub\SaSeRoS-Team359\.\scanner.h"
21	58	98	#line 58 "C:\Users\Pascal\Documents\GitHub\SaSeRoS-Team359\.\scanner.h"
21	59	98		mov __UltrasonicScan_7qG2_sensor_value_7qG2_000, __D0UltrasonicScan
21	58	100	#line 58 "C:\Users\Pascal\Documents\GitHub\SaSeRoS-Team359\.\scanner.h"
21	58	100	#line 58 "C:\Users\Pascal\Documents\GitHub\SaSeRoS-Team359\.\scanner.h"
21	61	100	#line 61 "C:\Users\Pascal\Documents\GitHub\SaSeRoS-Team359\.\scanner.h"
21	62	100		mov __signed_stack_001UltrasonicScan, __D0UltrasonicScan
21	61	102	#line 61 "C:\Users\Pascal\Documents\GitHub\SaSeRoS-Team359\.\scanner.h"
21	61	102	#line 61 "C:\Users\Pascal\Documents\GitHub\SaSeRoS-Team359\.\scanner.h"
21	62	102		set __D0UltrasonicScan, 30
21	61	105	#line 61 "C:\Users\Pascal\Documents\GitHub\SaSeRoS-Team359\.\scanner.h"
21	62	105		cmp 1, __zfUltrasonicScan, __signed_stack_001UltrasonicScan, __D0UltrasonicScan
21	61	109	#line 61 "C:\Users\Pascal\Documents\GitHub\SaSeRoS-Team359\.\scanner.h"
21	62	109		mov __D0UltrasonicScan, __zfUltrasonicScan
21	63	112	#line 63 "C:\Users\Pascal\Documents\GitHub\SaSeRoS-Team359\.\scanner.h"
21	64	112		brtst 4, __NXC_Label_830, __zfUltrasonicScan
21	64	115	#line 64 "C:\Users\Pascal\Documents\GitHub\SaSeRoS-Team359\.\scanner.h"
21	65	115		mov __UltrasonicScan_7qG2_returnval_7qG2_002, scanner_currentRotation
21	64	117	#line 64 "C:\Users\Pascal\Documents\GitHub\SaSeRoS-Team359\.\scanner.h"
21	65	117	#line 65 "C:\Users\Pascal\Documents\GitHub\SaSeRoS-Team359\.\scanner.h"
21	66	117		subcall CenterTurret, __CenterTurret_return
21	65	119	#line 65 "C:\Users\Pascal\Documents\GitHub\SaSeRoS-Team359\.\scanner.h"
21	66	119	#line 66 "C:\Users\Pascal\Documents\GitHub\SaSeRoS-Team359\.\scanner.h"
21	67	119		mov __D0UltrasonicScan, __UltrasonicScan_7qG2_returnval_7qG2_002
21	66	121	#line 66 "C:\Users\Pascal\Documents\GitHub\SaSeRoS-Team359\.\scanner.h"
21	67	121		subret __UltrasonicScan_return
21	66	123	#line 66 "C:\Users\Pascal\Documents\GitHub\SaSeRoS-Team359\.\scanner.h"
21	71	123	#line 71 "C:\Users\Pascal\Documents\GitHub\SaSeRoS-Team359\.\scanner.h"
21	71	123	#line 71 "C:\Users\Pascal\Documents\GitHub\SaSeRoS-Team359\.\scanner.h"
21	72	123		jmp __NXC_Label_818
21	71	125	#line 71 "C:\Users\Pascal\Documents\GitHub\SaSeRoS-Team359\.\scanner.h"
21	72	125	#line 72 "C:\Users\Pascal\Documents\GitHub\SaSeRoS-Team359\.\scanner.h"
21	73	125		subcall CenterTurret, __CenterTurret_return
21	72	127	#line 72 "C:\Users\Pascal\Documents\GitHub\SaSeRoS-Team359\.\scanner.h"
21	73	127	#line 73 "C:\Users\Pascal\Documents\GitHub\SaSeRoS-Team359\.\scanner.h"
21	74	127		set __D0UltrasonicScan, 0
21	73	130	#line 73 "C:\Users\Pascal\Documents\GitHub\SaSeRoS-Team359\.\scanner.h"
21	74	130		subret __UltrasonicScan_return
21	73	132	#line 73 "C:\Users\Pascal\Documents\GitHub\SaSeRoS-Team359\.\scanner.h"
21	74	132	#line 74 "C:\Users\Pascal\Documents\GitHub\SaSeRoS-Team359\.\scanner.h"
21	75	132		subret __UltrasonicScan_return
22	17	0	#line 17 "C:\Users\Pascal\Documents\GitHub\SaSeRoS-Team359\main.nxc"
22	18	0		subcall Stop_Driving, __Stop_Driving_return
22	17	2	#line 17 "C:\Users\Pascal\Documents\GitHub\SaSeRoS-Team359\main.nxc"
22	17	2	#line 17 "C:\Users\Pascal\Documents\GitHub\SaSeRoS-Team359\main.nxc"
22	18	2		set __CheckDirection_7qG2_dir_7qG2_000, 180
22	17	5	#line 17 "C:\Users\Pascal\Documents\GitHub\SaSeRoS-Team359\main.nxc"
22	17	5	#line 17 "C:\Users\Pascal\Documents\GitHub\SaSeRoS-Team359\main.nxc"
22	18	5		subcall CheckDirection, __CheckDirection_return
22	17	7	#line 17 "C:\Users\Pascal\Documents\GitHub\SaSeRoS-Team359\main.nxc"
22	17	7	#line 17 "C:\Users\Pascal\Documents\GitHub\SaSeRoS-Team359\main.nxc"
22	18	7		not __DU0handle_edge_detected, __DU0CheckDirection
22	21	10	#line 21 "C:\Users\Pascal\Documents\GitHub\SaSeRoS-Team359\main.nxc"
22	22	10		tst 5, __zfhandle_edge_detected, __DU0handle_edge_detected
22	21	13	#line 21 "C:\Users\Pascal\Documents\GitHub\SaSeRoS-Team359\main.nxc"
22	22	13		brtst 4, __NXC_Label_954, __zfhandle_edge_detected
22	22	16	#line 22 "C:\Users\Pascal\Documents\GitHub\SaSeRoS-Team359\main.nxc"
22	23	16		subcall LongBeep, __LongBeep_return
22	22	18	#line 22 "C:\Users\Pascal\Documents\GitHub\SaSeRoS-Team359\main.nxc"
22	22	18	#line 22 "C:\Users\Pascal\Documents\GitHub\SaSeRoS-Team359\main.nxc"
22	23	18		set __Wait_7qG2_ms_7qG2_000_inline_handle_edge_detected, 3000
22	22	21	#line 22 "C:\Users\Pascal\Documents\GitHub\SaSeRoS-Team359\main.nxc"
22	7921	21	#line 7921 "NXCDefs.h"
22	7922	21		wait2 NA, __Wait_7qG2_ms_7qG2_000_inline_handle_edge_detected
22	7921	24	#line 7921 "NXCDefs.h"
22	23	24	#line 23 "C:\Users\Pascal\Documents\GitHub\SaSeRoS-Team359\main.nxc"
22	24	24	#line 24 "C:\Users\Pascal\Documents\GitHub\SaSeRoS-Team359\main.nxc"
22	24	24	#line 24 "C:\Users\Pascal\Documents\GitHub\SaSeRoS-Team359\main.nxc"
22	25	24		set __Drive_Backward_7qG2_pwr_7qG2_000, 50
22	24	27	#line 24 "C:\Users\Pascal\Documents\GitHub\SaSeRoS-Team359\main.nxc"
22	25	27	#line 25 "C:\Users\Pascal\Documents\GitHub\SaSeRoS-Team359\main.nxc"
22	26	27		subcall Drive_Backward, __Drive_Backward_return
22	25	29	#line 25 "C:\Users\Pascal\Documents\GitHub\SaSeRoS-Team359\main.nxc"
22	25	29	#line 25 "C:\Users\Pascal\Documents\GitHub\SaSeRoS-Team359\main.nxc"
22	26	29		set __Wait_7qG2_ms_7qG2_000_inline_handle_edge_detected, 300
22	25	32	#line 25 "C:\Users\Pascal\Documents\GitHub\SaSeRoS-Team359\main.nxc"
22	7921	32	#line 7921 "NXCDefs.h"
22	7922	32		wait2 NA, __Wait_7qG2_ms_7qG2_000_inline_handle_edge_detected
22	7921	35	#line 7921 "NXCDefs.h"
22	26	35	#line 26 "C:\Users\Pascal\Documents\GitHub\SaSeRoS-Team359\main.nxc"
22	26	35	#line 26 "C:\Users\Pascal\Documents\GitHub\SaSeRoS-Team359\main.nxc"
22	27	35		set __TurnRobot_7qG2_deg_7qG2_000, 90
22	26	38	#line 26 "C:\Users\Pascal\Documents\GitHub\SaSeRoS-Team359\main.nxc"
22	26	38	#line 26 "C:\Users\Pascal\Documents\GitHub\SaSeRoS-Team359\main.nxc"
22	27	38		set __TurnRobot_7qG2_pwr_7qG2_000, 50
22	26	41	#line 26 "C:\Users\Pascal\Documents\GitHub\SaSeRoS-Team359\main.nxc"
22	27	41	#line 27 "C:\Users\Pascal\Documents\GitHub\SaSeRoS-Team359\main.nxc"
22	28	41		subcall TurnRobot, __TurnRobot_return
22	27	43	#line 27 "C:\Users\Pascal\Documents\GitHub\SaSeRoS-Team359\main.nxc"
22	29	43	#line 29 "C:\Users\Pascal\Documents\GitHub\SaSeRoS-Team359\main.nxc"
22	30	43		subret __handle_edge_detected_return
23	31	0	#line 31 "C:\Users\Pascal\Documents\GitHub\SaSeRoS-Team359\main.nxc"
23	32	0		subcall Stop_Driving, __Stop_Driving_return
23	31	2	#line 31 "C:\Users\Pascal\Documents\GitHub\SaSeRoS-Team359\main.nxc"
23	32	2	#line 32 "C:\Users\Pascal\Documents\GitHub\SaSeRoS-Team359\main.nxc"
23	33	2		subcall UltrasonicScan, __UltrasonicScan_return
23	32	4	#line 32 "C:\Users\Pascal\Documents\GitHub\SaSeRoS-Team359\main.nxc"
23	32	4	#line 32 "C:\Users\Pascal\Documents\GitHub\SaSeRoS-Team359\main.nxc"
23	32	4	#line 32 "C:\Users\Pascal\Documents\GitHub\SaSeRoS-Team359\main.nxc"
23	32	4	#line 32 "C:\Users\Pascal\Documents\GitHub\SaSeRoS-Team359\main.nxc"
23	33	4		mov __TurnRobot_7qG2_deg_7qG2_000, __D0UltrasonicScan
23	32	6	#line 32 "C:\Users\Pascal\Documents\GitHub\SaSeRoS-Team359\main.nxc"
23	32	6	#line 32 "C:\Users\Pascal\Documents\GitHub\SaSeRoS-Team359\main.nxc"
23	33	6		set __TurnRobot_7qG2_pwr_7qG2_000, 50
23	32	9	#line 32 "C:\Users\Pascal\Documents\GitHub\SaSeRoS-Team359\main.nxc"
23	33	9	#line 33 "C:\Users\Pascal\Documents\GitHub\SaSeRoS-Team359\main.nxc"
23	34	9		subcall TurnRobot, __TurnRobot_return
23	33	11	#line 33 "C:\Users\Pascal\Documents\GitHub\SaSeRoS-Team359\main.nxc"
23	35	11	#line 35 "C:\Users\Pascal\Documents\GitHub\SaSeRoS-Team359\main.nxc"
23	36	11		subret __handle_obstacle_detected_return
24	36	0	#line 36 "C:\Users\Pascal\Documents\GitHub\SaSeRoS-Team359\main.nxc"
24	37	0		set __D0control, 1
24	37	3	#line 37 "C:\Users\Pascal\Documents\GitHub\SaSeRoS-Team359\main.nxc"
24	38	3		tst 5, __zfcontrol, __D0control
24	37	6	#line 37 "C:\Users\Pascal\Documents\GitHub\SaSeRoS-Team359\main.nxc"
24	38	6		brtst 4, __NXC_Label_972, __zfcontrol
24	37	9	#line 37 "C:\Users\Pascal\Documents\GitHub\SaSeRoS-Team359\main.nxc"
24	38	9		mov __DU0control, edge_detected
24	38	11	#line 38 "C:\Users\Pascal\Documents\GitHub\SaSeRoS-Team359\main.nxc"
24	39	11		tst 5, __zfcontrol, __DU0control
24	38	14	#line 38 "C:\Users\Pascal\Documents\GitHub\SaSeRoS-Team359\main.nxc"
24	39	14		brtst 4, __NXC_Label_977, __zfcontrol
24	39	17	#line 39 "C:\Users\Pascal\Documents\GitHub\SaSeRoS-Team359\main.nxc"
24	40	17		subcall handle_edge_detected, __handle_edge_detected_return
24	39	19	#line 39 "C:\Users\Pascal\Documents\GitHub\SaSeRoS-Team359\main.nxc"
24	40	19	#line 40 "C:\Users\Pascal\Documents\GitHub\SaSeRoS-Team359\main.nxc"
24	41	19		jmp __NXC_Label_978
24	40	21	#line 40 "C:\Users\Pascal\Documents\GitHub\SaSeRoS-Team359\main.nxc"
24	41	21		mov __DU0control, obstacle_detected
24	41	23	#line 41 "C:\Users\Pascal\Documents\GitHub\SaSeRoS-Team359\main.nxc"
24	42	23		tst 5, __zfcontrol, __DU0control
24	41	26	#line 41 "C:\Users\Pascal\Documents\GitHub\SaSeRoS-Team359\main.nxc"
24	42	26		brtst 4, __NXC_Label_981, __zfcontrol
24	42	29	#line 42 "C:\Users\Pascal\Documents\GitHub\SaSeRoS-Team359\main.nxc"
24	43	29		subcall handle_obstacle_detected, __handle_obstacle_detected_return
24	42	31	#line 42 "C:\Users\Pascal\Documents\GitHub\SaSeRoS-Team359\main.nxc"
24	44	31	#line 44 "C:\Users\Pascal\Documents\GitHub\SaSeRoS-Team359\main.nxc"
24	45	31		jmp __NXC_Label_982
24	44	33	#line 44 "C:\Users\Pascal\Documents\GitHub\SaSeRoS-Team359\main.nxc"
24	45	33		set __Drive_Forward_7qG2_pwr_7qG2_000, 50
24	44	36	#line 44 "C:\Users\Pascal\Documents\GitHub\SaSeRoS-Team359\main.nxc"
24	45	36	#line 45 "C:\Users\Pascal\Documents\GitHub\SaSeRoS-Team359\main.nxc"
24	46	36		subcall Drive_Forward, __Drive_Forward_return
24	45	38	#line 45 "C:\Users\Pascal\Documents\GitHub\SaSeRoS-Team359\main.nxc"
24	46	38	#line 46 "C:\Users\Pascal\Documents\GitHub\SaSeRoS-Team359\main.nxc"
24	46	38	#line 46 "C:\Users\Pascal\Documents\GitHub\SaSeRoS-Team359\main.nxc"
24	46	38	#line 46 "C:\Users\Pascal\Documents\GitHub\SaSeRoS-Team359\main.nxc"
24	47	38		set __Wait_7qG2_ms_7qG2_000_inline_control, 100
24	46	41	#line 46 "C:\Users\Pascal\Documents\GitHub\SaSeRoS-Team359\main.nxc"
24	7921	41	#line 7921 "NXCDefs.h"
24	7922	41		wait2 NA, __Wait_7qG2_ms_7qG2_000_inline_control
24	7921	44	#line 7921 "NXCDefs.h"
24	47	44	#line 47 "C:\Users\Pascal\Documents\GitHub\SaSeRoS-Team359\main.nxc"
24	50	44	#line 50 "C:\Users\Pascal\Documents\GitHub\SaSeRoS-Team359\main.nxc"
24	51	44		jmp __NXC_Label_971
24	50	46	#line 50 "C:\Users\Pascal\Documents\GitHub\SaSeRoS-Team359\main.nxc"
24	51	46		exit -1, -1
25	63	0	#line 63 "C:\Users\Pascal\Documents\GitHub\SaSeRoS-Team359\main.nxc"
25	64	0		set __D0detect_edges, 1
25	64	3	#line 64 "C:\Users\Pascal\Documents\GitHub\SaSeRoS-Team359\main.nxc"
25	65	3		tst 5, __zfdetect_edges, __D0detect_edges
25	64	6	#line 64 "C:\Users\Pascal\Documents\GitHub\SaSeRoS-Team359\main.nxc"
25	65	6		brtst 4, __NXC_Label_1002, __zfdetect_edges
25	64	9	#line 64 "C:\Users\Pascal\Documents\GitHub\SaSeRoS-Team359\main.nxc"
25	65	9		subcall DetectEdge, __DetectEdge_return
25	64	12	#line 64 "C:\Users\Pascal\Documents\GitHub\SaSeRoS-Team359\main.nxc"
25	65	12		mov __DU0detect_edges, __DU0DetectEdge
25	65	14	#line 65 "C:\Users\Pascal\Documents\GitHub\SaSeRoS-Team359\main.nxc"
25	66	14		tst 5, __zfdetect_edges, __DU0detect_edges
25	65	17	#line 65 "C:\Users\Pascal\Documents\GitHub\SaSeRoS-Team359\main.nxc"
25	66	17		brtst 4, __NXC_Label_1007, __zfdetect_edges
25	65	20	#line 65 "C:\Users\Pascal\Documents\GitHub\SaSeRoS-Team359\main.nxc"
25	66	20		set __signed_stack_001detect_edges, 0
25	65	23	#line 65 "C:\Users\Pascal\Documents\GitHub\SaSeRoS-Team359\main.nxc"
25	65	23	#line 65 "C:\Users\Pascal\Documents\GitHub\SaSeRoS-Team359\main.nxc"
25	66	23		set __signed_stack_002detect_edges, 0
25	65	26	#line 65 "C:\Users\Pascal\Documents\GitHub\SaSeRoS-Team359\main.nxc"
25	65	26	#line 65 "C:\Users\Pascal\Documents\GitHub\SaSeRoS-Team359\main.nxc"
25	66	26		strcat __strbufdetect_edges, __constStr0016
25	66	30	#line 66 "C:\Users\Pascal\Documents\GitHub\SaSeRoS-Team359\main.nxc"
25	67	30		acquire __TextOutMutex
25	66	31	#line 66 "C:\Users\Pascal\Documents\GitHub\SaSeRoS-Team359\main.nxc"
25	67	31		mov __TextOutArgs.Location.X, __signed_stack_001detect_edges
25	66	34	#line 66 "C:\Users\Pascal\Documents\GitHub\SaSeRoS-Team359\main.nxc"
25	67	34		mov __TextOutArgs.Location.Y, __signed_stack_002detect_edges
25	66	37	#line 66 "C:\Users\Pascal\Documents\GitHub\SaSeRoS-Team359\main.nxc"
25	67	37		set __TextOutArgs.Options, 0
25	66	40	#line 66 "C:\Users\Pascal\Documents\GitHub\SaSeRoS-Team359\main.nxc"
25	67	40		mov __TextOutArgs.Text, __strbufdetect_edges
25	66	42	#line 66 "C:\Users\Pascal\Documents\GitHub\SaSeRoS-Team359\main.nxc"
25	67	42		syscall 13, __TextOutArgs
25	66	45	#line 66 "C:\Users\Pascal\Documents\GitHub\SaSeRoS-Team359\main.nxc"
25	67	45		mov __D0detect_edges, __TextOutArgs.Result
25	66	48	#line 66 "C:\Users\Pascal\Documents\GitHub\SaSeRoS-Team359\main.nxc"
25	67	48		release __TextOutMutex
25	66	49	#line 66 "C:\Users\Pascal\Documents\GitHub\SaSeRoS-Team359\main.nxc"
25	67	49	#line 67 "C:\Users\Pascal\Documents\GitHub\SaSeRoS-Team359\main.nxc"
25	68	49		set edge_detected, 1
25	67	52	#line 67 "C:\Users\Pascal\Documents\GitHub\SaSeRoS-Team359\main.nxc"
25	67	52	#line 67 "C:\Users\Pascal\Documents\GitHub\SaSeRoS-Team359\main.nxc"
25	68	52	#line 68 "C:\Users\Pascal\Documents\GitHub\SaSeRoS-Team359\main.nxc"
25	69	52		jmp __NXC_Label_1014
25	68	54	#line 68 "C:\Users\Pascal\Documents\GitHub\SaSeRoS-Team359\main.nxc"
25	69	54		set __signed_stack_001detect_edges, 0
25	68	57	#line 68 "C:\Users\Pascal\Documents\GitHub\SaSeRoS-Team359\main.nxc"
25	68	57	#line 68 "C:\Users\Pascal\Documents\GitHub\SaSeRoS-Team359\main.nxc"
25	69	57		set __signed_stack_002detect_edges, 0
25	68	60	#line 68 "C:\Users\Pascal\Documents\GitHub\SaSeRoS-Team359\main.nxc"
25	68	60	#line 68 "C:\Users\Pascal\Documents\GitHub\SaSeRoS-Team359\main.nxc"
25	69	60		strcat __strbufdetect_edges, __constStr0017
25	69	64	#line 69 "C:\Users\Pascal\Documents\GitHub\SaSeRoS-Team359\main.nxc"
25	70	64		acquire __TextOutMutex
25	69	65	#line 69 "C:\Users\Pascal\Documents\GitHub\SaSeRoS-Team359\main.nxc"
25	70	65		mov __TextOutArgs.Location.X, __signed_stack_001detect_edges
25	69	68	#line 69 "C:\Users\Pascal\Documents\GitHub\SaSeRoS-Team359\main.nxc"
25	70	68		mov __TextOutArgs.Location.Y, __signed_stack_002detect_edges
25	69	71	#line 69 "C:\Users\Pascal\Documents\GitHub\SaSeRoS-Team359\main.nxc"
25	70	71		set __TextOutArgs.Options, 0
25	69	74	#line 69 "C:\Users\Pascal\Documents\GitHub\SaSeRoS-Team359\main.nxc"
25	70	74		mov __TextOutArgs.Text, __strbufdetect_edges
25	69	76	#line 69 "C:\Users\Pascal\Documents\GitHub\SaSeRoS-Team359\main.nxc"
25	70	76		syscall 13, __TextOutArgs
25	69	79	#line 69 "C:\Users\Pascal\Documents\GitHub\SaSeRoS-Team359\main.nxc"
25	70	79		mov __D0detect_edges, __TextOutArgs.Result
25	69	82	#line 69 "C:\Users\Pascal\Documents\GitHub\SaSeRoS-Team359\main.nxc"
25	70	82		release __TextOutMutex
25	69	83	#line 69 "C:\Users\Pascal\Documents\GitHub\SaSeRoS-Team359\main.nxc"
25	70	83	#line 70 "C:\Users\Pascal\Documents\GitHub\SaSeRoS-Team359\main.nxc"
25	71	83		set edge_detected, 0
25	70	86	#line 70 "C:\Users\Pascal\Documents\GitHub\SaSeRoS-Team359\main.nxc"
25	70	86	#line 70 "C:\Users\Pascal\Documents\GitHub\SaSeRoS-Team359\main.nxc"
25	71	86	#line 71 "C:\Users\Pascal\Documents\GitHub\SaSeRoS-Team359\main.nxc"
25	71	86	#line 71 "C:\Users\Pascal\Documents\GitHub\SaSeRoS-Team359\main.nxc"
25	72	86		set __Wait_7qG2_ms_7qG2_000_inline_detect_edges, 100
25	71	89	#line 71 "C:\Users\Pascal\Documents\GitHub\SaSeRoS-Team359\main.nxc"
25	7921	89	#line 7921 "NXCDefs.h"
25	7922	89		wait2 NA, __Wait_7qG2_ms_7qG2_000_inline_detect_edges
25	7921	92	#line 7921 "NXCDefs.h"
25	72	92	#line 72 "C:\Users\Pascal\Documents\GitHub\SaSeRoS-Team359\main.nxc"
25	75	92	#line 75 "C:\Users\Pascal\Documents\GitHub\SaSeRoS-Team359\main.nxc"
25	76	92		jmp __NXC_Label_1001
25	75	94	#line 75 "C:\Users\Pascal\Documents\GitHub\SaSeRoS-Team359\main.nxc"
25	76	94		exit -1, -1
26	0	0		subret __control_Spawner_return
27	0	0		exit 0, 1
28	0	0		subret __detect_edges_Spawner_return
29	0	0		exit 0, 1
30	85	0	#line 85 "C:\Users\Pascal\Documents\GitHub\SaSeRoS-Team359\main.nxc"
30	86	0		subret ____initialize_global_data_return
#CLUMPS
Clump	Name	Offset	File
0	main	0	C:\Users\Pascal\Documents\GitHub\SaSeRoS-Team359\main.nxc
1	__RotateMotor2	11	NXTDefs.h
2	__RotateMotor3	180	NXTDefs.h
3	__ResetSensorSubroutine	349	NXTDefs.h
4	__ReadLSBytes3	362	NXTDefs.h
5	PlaySound	447	NXCDefs.h
6	TurnMotor	890	C:\Users\Pascal\Documents\GitHub\SaSeRoS-Team359\.\basic_functions/functions.h
7	TurnRobot	989	C:\Users\Pascal\Documents\GitHub\SaSeRoS-Team359\.\basic_functions/functions.h
8	Stop_Driving	999	C:\Users\Pascal\Documents\GitHub\SaSeRoS-Team359\.\basic_functions/functions.h
9	Drive_Forward	1047	C:\Users\Pascal\Documents\GitHub\SaSeRoS-Team359\.\basic_functions/functions.h
10	Drive_Backward	1103	C:\Users\Pascal\Documents\GitHub\SaSeRoS-Team359\.\basic_functions/functions.h
11	LongBeep	1165	C:\Users\Pascal\Documents\GitHub\SaSeRoS-Team359\.\basic_functions/functions.h
12	TestFrontTouchSensor	1199	C:\Users\Pascal\Documents\GitHub\SaSeRoS-Team359\.\Sensors testing/hardware_testing.nxc
13	TestBackTouchSensor	1302	C:\Users\Pascal\Documents\GitHub\SaSeRoS-Team359\.\Sensors testing/hardware_testing.nxc
14	TestLightSensor	1405	C:\Users\Pascal\Documents\GitHub\SaSeRoS-Team359\.\Sensors testing/hardware_testing.nxc
15	TestUsSensor	1438	C:\Users\Pascal\Documents\GitHub\SaSeRoS-Team359\.\Sensors testing/hardware_testing.nxc
16	TestSensors	1484	C:\Users\Pascal\Documents\GitHub\SaSeRoS-Team359\.\Sensors testing/hardware_testing.nxc
17	DetectEdge	1727	C:\Users\Pascal\Documents\GitHub\SaSeRoS-Team359\.\edge_detection.h
18	TurnTurret	1799	C:\Users\Pascal\Documents\GitHub\SaSeRoS-Team359\.\scanner.h
19	CenterTurret	1835	C:\Users\Pascal\Documents\GitHub\SaSeRoS-Team359\.\scanner.h
20	CheckDirection	1872	C:\Users\Pascal\Documents\GitHub\SaSeRoS-Team359\.\scanner.h
21	UltrasonicScan	1943	C:\Users\Pascal\Documents\GitHub\SaSeRoS-Team359\.\scanner.h
22	handle_edge_detected	2077	C:\Users\Pascal\Documents\GitHub\SaSeRoS-Team359\main.nxc
23	handle_obstacle_detected	2122	C:\Users\Pascal\Documents\GitHub\SaSeRoS-Team359\main.nxc
24	control	2135	C:\Users\Pascal\Documents\GitHub\SaSeRoS-Team359\main.nxc
25	detect_edges	2184	C:\Users\Pascal\Documents\GitHub\SaSeRoS-Team359\main.nxc
26	__control_Returner	2281	C:\Users\Pascal\Documents\GitHub\SaSeRoS-Team359\main.nxc
27	__control_Spawner	2283	C:\Users\Pascal\Documents\GitHub\SaSeRoS-Team359\main.nxc
28	__detect_edges_Returner	2286	C:\Users\Pascal\Documents\GitHub\SaSeRoS-Team359\main.nxc
29	__detect_edges_Spawner	2288	C:\Users\Pascal\Documents\GitHub\SaSeRoS-Team359\main.nxc
30	__initialize_global_data	2291	C:\Users\Pascal\Documents\GitHub\SaSeRoS-Team359\main.nxc
