#SYMBOLS
Index	Identifier	Type	Flag	Data	Size	RefCount
0	__DU0Object_Detection	5	1	0	4	2
1	__D0ShortBeep	6	1	4	4	3
2	__D0TurnMotor	6	1	8	4	7
3	__D0LongBeep	6	1	12	4	3
4	__D0Look_Back	6	1	16	4	15
5	__D0Object_Detection	6	1	20	4	12
6	__DU0SetSensorLight_inline_Light_Sens_Init	5	1	24	4	2
7	__D0SetSensorLowspeed_inline_SetSensorUltrasonic	6	1	28	4	6
8	__DU0SetSensorLowspeed_inline_SetSensorUltrasonic	5	1	32	4	4
9	__D0TurnTurret	6	1	36	4	2
10	__D0UltrasonicScan	6	1	40	4	14
11	__D0SetSensorLight_inline_Light_Sens_Init	6	1	44	4	3
12	__CLSRMutex3	9	0	48	4	2
13	__TextOutMutex	9	0	52	4	36
14	__PointOutMutex	9	0	56	4	2
15	__ResetSensorMutex	9	0	60	4	6
16	__CLSCSMutex3	9	0	64	4	2
17	__CLSWMutex3	9	0	68	4	2
18	__D0Drive_Backward	6	1	72	4	4
19	__D0Drive_Forward	6	1	76	4	4
20	__D0initialise	6	1	80	4	35
21	__RLSBmutex3	9	0	84	4	10
22	__SPTArgsMutex	9	0	88	4	4
23	__D0CenterTurret	6	1	92	4	2
24	__signed_stack_001CenterTurret	6	1	96	4	2
25	__signed_stack_003TurnMotor	6	1	100	4	4
26	__signed_stack_004TurnMotor	6	1	104	4	4
27	__signed_stack_001TurnTurret	6	1	108	4	2
28	__signed_stack_003ShortBeep	6	1	112	4	2
29	__signed_stack_001TurnMotor	6	1	116	4	6
30	__signed_stack_002TurnMotor	6	1	120	4	4
31	__Wait_7qG2_ms_7qG2_000_inline_UltrasonicScan	5	1	124	4	2
32	__Wait_7qG2_ms_7qG2_000_inline_Look_Back	5	1	128	4	2
33	__Wait_7qG2_ms_7qG2_000_inline_Object_Detection	5	1	132	4	2
34	__signed_stack_001UltrasonicScan	6	1	136	4	4
35	__constValf3P5	10	0	140	4	1
36	__Wait_7qG2_ms_7qG2_000_inline_initialise	5	1	144	4	14
37	__signed_stack_002LongBeep	6	1	148	4	2
38	__signed_stack_003LongBeep	6	1	152	4	2
39	__signed_stack_001Look_Back	6	1	156	4	2
40	__signed_stack_001initialise	6	1	160	4	26
41	__signed_stack_002initialise	6	1	164	4	22
42	__signed_stack_001LongBeep	6	1	168	4	2
43	__signed_stack_002Object_Detection	6	1	172	4	2
44	__signed_stack_001ShortBeep	6	1	176	4	2
45	__signed_stack_002ShortBeep	6	1	180	4	2
46	__signed_stack_002Look_Back	6	1	184	4	2
47	__unsigned_stack_001Look_Back	5	1	188	4	4
48	__signed_stack_001Object_Detection	6	1	192	4	4
49	__rotate_theAngle2	5	1	196	4	2
50	__rotate_angle3	6	1	200	4	6
51	__rotate_theAngle3	5	1	204	4	2
52	__OnRevMutex	9	0	208	4	4
53	__rotateMutex2	9	0	212	4	4
54	__rotate_angle2	6	1	216	4	6
55	__Light_Sens_Init_7qG2_Port_7qG2_000	4	1	220	2	3
56	scanner_currentRotation	4	1	222	2	6
57	__initialise_7qG2_Range_7qG2_000	4	1	224	2	3
58	__initialise_7qG2_Light_7qG2_000	4	1	226	2	3
59	__rotate_OldRotCount2	4	1	228	2	2
60	__UltrasonicScan_7qG2_sensor_value_7qG2_000	4	1	230	2	2
61	__TurnTurret_7qG2_deg_7qG2_000	4	1	232	2	4
62	__rotate_RotCount2	4	1	234	2	4
63	__constVal200	4	0	236	2	2
64	__TurnRobot_7qG2_deg_7qG2_000	4	1	238	2	4
65	__TurnRobot_7qG2_pwr_7qG2_000	4	1	240	2	4
66	__TurnMotor_7qG2_pwr_7qG2_000	4	1	242	2	3
67	__TurnMotor_7qG2_deg_7qG2_000	4	1	244	2	4
68	__rotate_OldRotCount3	4	1	246	2	2
69	__rotate_RotCount3	4	1	248	2	4
70	__Drive_Forward_7qG2_pwr_7qG2_000	4	1	250	2	6
71	__Drive_Backward_7qG2_pwr_7qG2_000	4	1	252	2	4
72	__UltrasonicScan_7qG2_returnval_7qG2_002	4	1	254	2	2
73	__constValNeg180	4	0	256	2	1
74	angle	4	1	258	2	4
75	__Touch_Init_7qG2_Port_7qG2_000	4	1	260	2	4
76	__Range_Sens_Init_7qG2_Port_7qG2_000	4	1	262	2	3
77	__SetSensorMode_7qG2_port_7qG2_000_inline_SetSensorLight_inline_Light_Sens_Init	1	1	264	1	2
78	__SetSensorMode_7qG2_mode_7qG2_000_inline_SetSensorLight_inline_Light_Sens_Init	1	1	265	1	2
79	__ResetSensor_7qG2_port_7qG2_000_inline_SetSensorLight_inline_Light_Sens_Init	1	1	266	1	2
80	__SetSensorMode_7qG2_port_7qG2_000_inline_Range_Sens_Init	1	1	267	1	2
81	__SetSensorType_7qG2_type_7qG2_000_inline_SetSensorLight_inline_Light_Sens_Init	1	1	268	1	2
82	__SetSensorMode_7qG2_mode_7qG2_000_inline_Touch_Init	1	1	269	1	2
83	__SetSensorMode_7qG2_mode_7qG2_000_inline_Light_Sens_Init	1	1	270	1	2
84	__SetSensorType_7qG2_port_7qG2_000_inline_Touch_Init	1	1	271	1	2
85	__ResetSensor_7qG2_port_7qG2_000_inline_SetSensorLowspeed_inline_SetSensorUltrasonic_inline_Range_Sens_Init	1	1	272	1	2
86	__SetSensorMode_7qG2_port_7qG2_000_inline_Light_Sens_Init	1	1	273	1	2
87	__SetSensorMode_7qG2_port_7qG2_000_inline_Touch_Init	1	1	274	1	2
88	__SetSensorType_7qG2_type_7qG2_000_inline_Touch_Init	1	1	275	1	2
89	__SetSensorLowspeed_7qG2_port_7qG2_000_inline_SetSensorUltrasonic_inline_Range_Sens_Init	1	1	276	1	4
90	__SetSensorType_7qG2_type_7qG2_000_inline_SetSensorLowspeed_inline_SetSensorUltrasonic_inline_Range_Sens_Init	1	1	277	1	2
91	__Range_Sens_Init_return	1	1	278	1	3
92	__SetSensorType_7qG2_port_7qG2_000_inline_SetSensorLowspeed_inline_SetSensorUltrasonic_inline_Range_Sens_Init	1	1	279	1	2
93	__SetSensorMode_7qG2_mode_7qG2_000_inline_Range_Sens_Init	1	1	280	1	2
94	__SetSensorLowspeed_7qG2_bIsPowered_7qG2_000_inline_SetSensorUltrasonic_inline_Range_Sens_Init	1	1	281	1	2
95	__SetSensorMode_7qG2_mode_7qG2_000_inline_SetSensorLowspeed_inline_SetSensorUltrasonic_inline_Range_Sens_Init	1	1	282	1	2
96	__SetSensorLight_7qG2_bActive_7qG2_000_inline_Light_Sens_Init	1	1	283	1	2
97	__SetSensorType_7qG2_port_7qG2_000_inline_SetSensorLight_inline_Light_Sens_Init	1	1	284	1	2
98	__Light_Sens_Init_return	1	1	285	1	3
99	__SetSensorLight_7qG2_port_7qG2_000_inline_Light_Sens_Init	1	1	286	1	4
100	__SetSensorMode_7qG2_port_7qG2_000_inline_SetSensorLowspeed_inline_SetSensorUltrasonic_inline_Range_Sens_Init	1	1	287	1	2
101	__SetSensorType_7qG2_type_7qG2_000_inline_SetSensorLowspeed_inline_SetSensorUltrasonic_inline_UltrasonicScan	1	1	288	1	2
102	__SetSensorMode_7qG2_port_7qG2_000_inline_SetSensorLowspeed_inline_SetSensorUltrasonic_inline_UltrasonicScan	1	1	289	1	2
103	__SetSensorMode_7qG2_mode_7qG2_000_inline_SetSensorLowspeed_inline_SetSensorUltrasonic_inline_UltrasonicScan	1	1	290	1	2
104	__SetSensorType_7qG2_port_7qG2_000_inline_SetSensorLowspeed_inline_SetSensorUltrasonic_inline_UltrasonicScan	1	1	291	1	2
105	__UltrasonicScan_return	1	1	292	1	6
106	__SetSensorLowspeed_7qG2_port_7qG2_000_inline_SetSensorUltrasonic_inline_UltrasonicScan	1	1	293	1	4
107	__SetSensorLowspeed_7qG2_bIsPowered_7qG2_000_inline_SetSensorUltrasonic_inline_UltrasonicScan	1	1	294	1	2
108	__ResetSensor_7qG2_port_7qG2_000_inline_SetSensorLowspeed_inline_SetSensorUltrasonic_inline_UltrasonicScan	1	1	295	1	2
109	____initialize_global_data_return	1	1	296	1	3
110	__Object_Detection_Spawner_return	1	1	297	1	1
111	__Look_Back_Spawner_return	1	1	298	1	1
112	__OnRev_Tmp	2	1	299	1	4
113	____RotateMotor2_sign_tmp	2	1	300	1	4
114	stuck	1	1	301	1	3
115	reverse	1	1	302	1	4
116	__Stop_Driving_return	1	1	303	1	7
117	__constVal63	2	0	304	1	6
118	__Drive_Forward_return	1	1	305	1	6
119	__rotate_power2	1	1	306	1	5
120	__TurnMotor_return	1	1	307	1	3
121	__constVal96	2	0	308	1	10
122	__TurnRobot_return	1	1	309	1	5
123	__Drive_Backward_return	1	1	310	1	4
124	__ClearLine_7qG2_line_7qG2_000_inline_initialise	1	1	311	1	14
125	__TurnTurret_return	1	1	312	1	4
126	__CenterTurret_return	1	1	313	1	4
127	____RotateMotor3_return	1	1	314	1	4
128	__ShortBeep_return	1	1	315	1	3
129	__LongBeep_return	1	1	316	1	3
130	__initialise_return	1	1	317	1	3
131	__Touch_Init_return	1	1	318	1	4
132	__rotate_rs3	1	1	319	1	2
133	__rotate_theRVD3	1	1	320	1	3
134	__zfinitialise	1	1	321	1	18
135	__rotate_thePower3	2	1	322	1	4
136	__constVal100	2	0	323	1	2
137	__constValNeg100	2	0	324	1	1
138	__PFTmp	1	1	325	1	1
139	__rotate_theRM3	1	1	326	1	4
140	__zfObject_Detection	1	1	327	1	7
141	__rotate_theOM3	1	1	328	1	7
142	__rotate_theRS3	1	1	329	1	3
143	__rotate_theRVI3	1	1	330	1	3
144	__rotate_theRVP3	1	1	331	1	3
145	__zfLook_Back	1	1	332	1	10
146	__constVal10	2	0	333	1	2
147	__constVal1	2	0	334	1	18
148	__constVal32	2	0	335	1	28
149	__rotate_theTurnPct3	2	1	336	1	4
150	__constVal0	2	1	337	1	61
151	__ResetSensorTmp	1	1	338	1	2
152	____ResetSensorSubroutine_return	1	1	339	1	5
153	__constVal50	2	0	340	1	2
154	__RLSBResult3	2	1	341	1	7
155	__RLSBytesCount3	1	1	342	1	11
156	__RLSBIterations3	1	1	343	1	4
157	__ResetSensorPort	1	1	344	1	5
158	__constVal15	2	0	345	1	12
159	__constVal2	2	0	346	1	5
160	____ReadLSBytes3_return	1	1	347	1	7
161	__rotate_firstPort2	1	1	348	1	5
162	__rotate_sync2	1	1	349	1	3
163	__rotate_stop2	1	1	350	1	3
164	__rotate_thePower2	2	1	351	1	4
165	__rotate_theTurnPct2	2	1	352	1	4
166	__constVal3	2	0	353	1	7
167	__rotate_theUF2	1	1	354	1	6
168	__rotate_rs2	1	1	355	1	2
169	__rotate_theRS2	1	1	356	1	3
170	__rotate_theRM2	1	1	357	1	4
171	__rotate_theOM2	1	1	358	1	7
172	__rotate_theRVP2	1	1	359	1	3
173	__rotate_theRVD2	1	1	360	1	3
174	__rotate_theRVI2	1	1	361	1	3
175	__rotate_turnpct2	2	1	362	1	4
176	____RotateMotor3_sign_tmp	2	1	363	1	4
177	__zfSetSensorLight_inline_Light_Sens_Init	1	1	364	1	2
178	__rotate_stop3	1	1	365	1	3
179	__rotate_sync3	1	1	366	1	3
180	__rotate_firstPort3	1	1	367	1	5
181	__zfUltrasonicScan	1	1	368	1	6
182	__zfSetSensorLowspeed_inline_SetSensorUltrasonic	1	1	369	1	4
183	__rotate_theUF3	1	1	370	1	6
184	__rotate_power3	1	1	371	1	5
185	__rotate_turnpct3	2	1	372	1	4
186	__zfTurnMotor	1	1	373	1	3
187	____RotateMotor2_return	1	1	374	1	4
188	__CLSCSArgs3	8	0	3	4	4
189	__CLSCSArgs3.Result	2	1	376	1	4
190	__CLSCSArgs3.Port	1	1	377	1	4
191	__CLSCSArgs3.BytesReady	1	1	378	1	4
192	__TextOutArgs	8	0	4	16	101
193	__TextOutArgs.Result	2	1	380	1	101
194	__TextOutArgs.Location	8	0	2	4	101
195	__TextOutArgs.Location.X	4	1	384	2	101
196	__TextOutArgs.Location.Y	4	1	386	2	101
197	__TextOutArgs.Text	7	0	388	4	101
198	__TextOutArgs.Text.Text_type	1	0	0	1	0
199	__TextOutArgs.Options	5	1	392	4	101
200	__SPTArgs	8	0	5	8	12
201	__SPTArgs.Result	2	1	396	1	12
202	__SPTArgs.Frequency	3	1	398	2	12
203	__SPTArgs.Duration	3	1	400	2	12
204	__SPTArgs.Loop	1	1	402	1	12
205	__SPTArgs.Volume	1	1	403	1	12
206	__PointOutArgs	8	0	3	12	4
207	__PointOutArgs.Result	2	1	404	1	4
208	__PointOutArgs.Location	8	0	2	4	4
209	__PointOutArgs.Location.X	4	1	408	2	4
210	__PointOutArgs.Location.Y	4	1	410	2	4
211	__PointOutArgs.Options	5	1	412	4	4
212	__CLSRArgs3	8	0	4	12	5
213	__CLSRArgs3.Result	2	1	416	1	5
214	__CLSRArgs3.Port	1	1	417	1	5
215	__CLSRArgs3.Buffer	7	0	418	4	5
216	__CLSRArgs3.Buffer.Buffer_type	1	0	0	1	0
217	__CLSRArgs3.BufferLen	1	1	420	1	5
218	__CLSWArgs3	8	0	4	12	5
219	__CLSWArgs3.Result	2	1	424	1	5
220	__CLSWArgs3.Port	1	1	425	1	5
221	__CLSWArgs3.Buffer	7	0	426	4	5
222	__CLSWArgs3.Buffer.Buffer_type	1	0	0	1	0
223	__CLSWArgs3.ReturnLen	1	1	428	1	5
224	__rotate_ports2	7	0	430	4	7
225	__rotate_ports2.__rotate_ports2_type	1	0	0	1	0
226	__OUT_AB	7	0	432	4	2
227	__OUT_AB.__OUT_AB_type	1	0	0	1	0
228	__constStr0015	7	0	434	4	1
229	__constStr0015.__constStr0015_type	1	1	0	1	0
230	__BlankLine	7	0	436	4	7
231	__BlankLine.__BlankLine_type	1	0	0	1	0
232	__constStr0009	7	0	438	4	1
233	__constStr0009.__constStr0009_type	1	1	0	1	0
234	__constStr0010	7	0	440	4	4
235	__constStr0010.__constStr0010_type	1	1	0	1	0
236	__constStr0011	7	0	442	4	1
237	__constStr0011.__constStr0011_type	1	1	0	1	0
238	__strbufLook_Back	7	0	444	4	2
239	__strbufLook_Back.__strbufLook_Back_type	1	0	0	1	0
240	__strbufinitialise	7	0	446	4	18
241	__strbufinitialise.__strbufinitialise_type	1	0	0	1	0
242	__rotate_ports3	7	0	448	4	7
243	__rotate_ports3.__rotate_ports3_type	1	0	0	1	0
244	__RLSReadBuf3	7	0	450	4	16
245	__RLSReadBuf3.__RLSReadBuf3_type	1	0	0	1	0
246	__RLSLastGoodRead3	7	0	452	4	2
247	__RLSLastGoodRead3.__RLSLastGoodRead3_type	1	0	0	1	0
248	__RLSBbufLSWrite1	7	0	454	4	5
249	__RLSBbufLSWrite1.__RLSBbufLSWrite1_type	1	0	0	1	0
250	__constStr0012	7	0	456	4	1
251	__constStr0012.__constStr0012_type	1	1	0	1	0
252	__constStr0013	7	0	458	4	1
253	__constStr0013.__constStr0013_type	1	1	0	1	0
254	__constStr0014	7	0	460	4	1
255	__constStr0014.__constStr0014_type	1	1	0	1	0
#SOURCES
Clump	Line	PC	Source
0	86	0	#line 86 "C:\Users\kjeld\Documents\GitHub\SaSeRoS-Team359\Object_detection\Object_detection.nxc"
0	87	0		subcall __initialize_global_data, ____initialize_global_data_return
0	86	2	#line 86 "C:\Users\kjeld\Documents\GitHub\SaSeRoS-Team359\Object_detection\Object_detection.nxc"
0	87	2	#line 87 "C:\Users\kjeld\Documents\GitHub\SaSeRoS-Team359\Object_detection\Object_detection.nxc"
0	88	2		subcall initialise, __initialise_return
0	87	4	#line 87 "C:\Users\kjeld\Documents\GitHub\SaSeRoS-Team359\Object_detection\Object_detection.nxc"
0	87	4	#line 87 "C:\Users\kjeld\Documents\GitHub\SaSeRoS-Team359\Object_detection\Object_detection.nxc"
0	88	4		set __Drive_Forward_7qG2_pwr_7qG2_000, 50
0	87	7	#line 87 "C:\Users\kjeld\Documents\GitHub\SaSeRoS-Team359\Object_detection\Object_detection.nxc"
0	88	7	#line 88 "C:\Users\kjeld\Documents\GitHub\SaSeRoS-Team359\Object_detection\Object_detection.nxc"
0	89	7		subcall Drive_Forward, __Drive_Forward_return
0	88	9	#line 88 "C:\Users\kjeld\Documents\GitHub\SaSeRoS-Team359\Object_detection\Object_detection.nxc"
0	90	9	#line 90 "C:\Users\kjeld\Documents\GitHub\SaSeRoS-Team359\Object_detection\Object_detection.nxc"
0	91	9		subcall __Object_Detection_Spawner, __Object_Detection_Spawner_return
0	90	11	#line 90 "C:\Users\kjeld\Documents\GitHub\SaSeRoS-Team359\Object_detection\Object_detection.nxc"
0	91	11	#line 91 "C:\Users\kjeld\Documents\GitHub\SaSeRoS-Team359\Object_detection\Object_detection.nxc"
0	92	11		subcall __Look_Back_Spawner, __Look_Back_Spawner_return
0	91	13	#line 91 "C:\Users\kjeld\Documents\GitHub\SaSeRoS-Team359\Object_detection\Object_detection.nxc"
0	92	13		exit -1, -1
1	4582	0		brtst 4, __rotate_Done2, __rotate_angle2
1	4583	3		set ____RotateMotor2_sign_tmp, 0
1	4583	6		brtst EQ, __sign_2, __rotate_angle2
1	4583	9		set ____RotateMotor2_sign_tmp, -1
1	4583	12		brtst LT, __sign_2, __rotate_angle2
1	4583	15		set ____RotateMotor2_sign_tmp, 1
1	4583	18	__sign_2:	mov __rotate_thePower2, ____RotateMotor2_sign_tmp
1	4584	20		abs __rotate_theAngle2, __rotate_angle2
1	4585	23		mul __rotate_thePower2, __rotate_thePower2, __rotate_power2
1	4587	27		set __rotate_theUF2, 23
1	4588	30		brtst 4, __rotate_NoSync2, __rotate_sync2
1	4589	33		set __rotate_theOM2, 7
1	4590	36		set __rotate_theRM2, 2
1	4591	39		mov __rotate_theTurnPct2, __rotate_turnpct2
1	4592	41		brtst 4, __rotate_Start2, __rotate_theTurnPct2
1	4593	44		add __rotate_theUF2, __rotate_theUF2, __constVal32
1	4594	48		jmp __rotate_Start2
1	4596	50		set __rotate_theOM2, 3
1	4597	53		set __rotate_theRM2, 0
1	4598	56		set __rotate_theTurnPct2, 0
1	4600	59		set __rotate_theRS2, 32
1	4601	62		setout __rotate_ports2, 1, __rotate_theOM2, 8, __rotate_theRM2, 5, __rotate_theAngle2, 6, __rotate_theRS2, 10, __rotate_theRVP2, 11, __rotate_theRVI2, 12, __rotate_theRVD2, 2, __rotate_thePower2, 7, __rotate_turnpct2, 0, __rotate_theUF2
1	4604	85		index __rotate_firstPort2, __rotate_ports2, 65535
1	4606	89		getout __rotate_power2, __rotate_firstPort2, 2
1	4607	93		brtst 4, __rotate_doneRunning2, __rotate_power2
1	4608	96		getout __rotate_rs2, __rotate_firstPort2, 6
1	4609	100		brcmp 4, __rotate_Running2, __rotate_rs2, __constVal32
1	4611	104		brtst 4, __rotate_Reset2, __rotate_stop2
1	4613	107		set __rotate_theOM2, 7
1	4614	110		set __rotate_theUF2, 7
1	4615	113		setout __rotate_ports2, 1, __rotate_theOM2, 8, __constVal1, 6, __rotate_theRS2, 2, __constVal0, 5, __constVal0, 0, __rotate_theUF2
1	4617	128		getout __rotate_RotCount2, __rotate_firstPort2, 14
1	4619	132		mov __rotate_OldRotCount2, __rotate_RotCount2
1	4620	134		wait2 NA, __constVal50
1	4622	137		getout __rotate_RotCount2, __rotate_firstPort2, 14
1	4623	141		brcmp 5, __rotate_Stabilize2, __rotate_OldRotCount2, __rotate_RotCount2
1	4624	145		set __rotate_theOM2, 4
1	4625	148		setout __rotate_ports2, 8, __rotate_theRM2, 6, __constVal0, 1, __rotate_theOM2, 0, __constVal1
1	4628	159		brtst 4, __rotate_Done2, __rotate_theTurnPct2
1	4629	162		setout __rotate_ports2, 0, __constVal32
1	4631	167		subret ____RotateMotor2_return
2	4635	0		brtst 4, __rotate_Done3, __rotate_angle3
2	4636	3		set ____RotateMotor3_sign_tmp, 0
2	4636	6		brtst EQ, __sign_3, __rotate_angle3
2	4636	9		set ____RotateMotor3_sign_tmp, -1
2	4636	12		brtst LT, __sign_3, __rotate_angle3
2	4636	15		set ____RotateMotor3_sign_tmp, 1
2	4636	18	__sign_3:	mov __rotate_thePower3, ____RotateMotor3_sign_tmp
2	4637	20		abs __rotate_theAngle3, __rotate_angle3
2	4638	23		mul __rotate_thePower3, __rotate_thePower3, __rotate_power3
2	4640	27		set __rotate_theUF3, 23
2	4641	30		brtst 4, __rotate_NoSync3, __rotate_sync3
2	4642	33		set __rotate_theOM3, 7
2	4643	36		set __rotate_theRM3, 2
2	4644	39		mov __rotate_theTurnPct3, __rotate_turnpct3
2	4645	41		brtst 4, __rotate_Start3, __rotate_theTurnPct3
2	4646	44		add __rotate_theUF3, __rotate_theUF3, __constVal32
2	4647	48		jmp __rotate_Start3
2	4649	50		set __rotate_theOM3, 3
2	4650	53		set __rotate_theRM3, 0
2	4651	56		set __rotate_theTurnPct3, 0
2	4653	59		set __rotate_theRS3, 32
2	4654	62		setout __rotate_ports3, 1, __rotate_theOM3, 8, __rotate_theRM3, 5, __rotate_theAngle3, 6, __rotate_theRS3, 10, __rotate_theRVP3, 11, __rotate_theRVI3, 12, __rotate_theRVD3, 2, __rotate_thePower3, 7, __rotate_turnpct3, 0, __rotate_theUF3
2	4657	85		index __rotate_firstPort3, __rotate_ports3, 65535
2	4659	89		getout __rotate_power3, __rotate_firstPort3, 2
2	4660	93		brtst 4, __rotate_doneRunning3, __rotate_power3
2	4661	96		getout __rotate_rs3, __rotate_firstPort3, 6
2	4662	100		brcmp 4, __rotate_Running3, __rotate_rs3, __constVal32
2	4664	104		brtst 4, __rotate_Reset3, __rotate_stop3
2	4666	107		set __rotate_theOM3, 7
2	4667	110		set __rotate_theUF3, 7
2	4668	113		setout __rotate_ports3, 1, __rotate_theOM3, 8, __constVal1, 6, __rotate_theRS3, 2, __constVal0, 5, __constVal0, 0, __rotate_theUF3
2	4670	128		getout __rotate_RotCount3, __rotate_firstPort3, 14
2	4672	132		mov __rotate_OldRotCount3, __rotate_RotCount3
2	4673	134		wait2 NA, __constVal50
2	4675	137		getout __rotate_RotCount3, __rotate_firstPort3, 14
2	4676	141		brcmp 5, __rotate_Stabilize3, __rotate_OldRotCount3, __rotate_RotCount3
2	4677	145		set __rotate_theOM3, 4
2	4678	148		setout __rotate_ports3, 8, __rotate_theRM3, 6, __constVal0, 1, __rotate_theOM3, 0, __constVal1
2	4681	159		brtst 4, __rotate_Done3, __rotate_theTurnPct3
2	4682	162		setout __rotate_ports3, 0, __constVal32
2	4684	167		subret ____RotateMotor3_return
3	4885	0		setin __constVal1, __ResetSensorPort, 5
3	4887	4		getin __ResetSensorTmp, __ResetSensorPort, 5
3	4888	8		brtst 5, __SensorStillInvalid, __ResetSensorTmp
3	4889	11		subret ____ResetSensorSubroutine_return
4	5784	0	#pragma macro 25
4	5784	0		acquire __CLSWMutex3
4	5784	1		set __CLSWArgs3.Port, 3
4	5784	4		mov __CLSWArgs3.ReturnLen, __RLSBytesCount3
4	5784	6		mov __CLSWArgs3.Buffer, __RLSReadBuf3
4	5784	8		syscall 21, __CLSWArgs3
4	5784	11		mov __RLSBResult3, __CLSWArgs3.Result
4	5784	13		release __CLSWMutex3
4	5784	14	#line 5784 "NXTDefs.h"
4	5785	14		brtst 4, __RLSBReturn3, __RLSBytesCount3
4	5786	17		arrinit __RLSReadBuf3, __constVal0, __RLSBytesCount3
4	5787	21		brtst 5, __RLSBError3, __RLSBResult3
4	5788	24		set __RLSBIterations3, 4
4	5790	27	#pragma macro 23
4	5790	27		acquire __CLSCSMutex3
4	5790	28		set __CLSCSArgs3.Port, 3
4	5790	31		syscall 23, __CLSCSArgs3
4	5790	34		mov __RLSBytesCount3, __CLSCSArgs3.BytesReady
4	5790	36		mov __RLSBResult3, __CLSCSArgs3.Result
4	5790	38		release __CLSCSMutex3
4	5790	39	#line 5790 "NXTDefs.h"
4	5791	39		sub __RLSBIterations3, __RLSBIterations3, __constVal1
4	5792	43		brtst 2, __RLSBError3, __RLSBIterations3
4	5793	46		brtst 0, __RLSBError3, __RLSBResult3
4	5794	49		brtst 4, __RLSBReadyToRead3, __RLSBResult3
4	5796	52		wait2 NA, __constVal15
4	5797	55		jmp __RLSBDoCheckStatus3
4	5800	57	#pragma macro 25
4	5800	57		acquire __CLSRMutex3
4	5800	58		set __CLSRArgs3.Port, 3
4	5800	61		mov __CLSRArgs3.BufferLen, __RLSBytesCount3
4	5800	63		syscall 22, __CLSRArgs3
4	5800	66		mov __RLSReadBuf3, __CLSRArgs3.Buffer
4	5800	68		mov __RLSBResult3, __CLSRArgs3.Result
4	5800	70		release __CLSRMutex3
4	5800	71	#line 5800 "NXTDefs.h"
4	5801	71		brtst 5, __RLSBError3, __RLSBResult3
4	5802	74		mov __RLSLastGoodRead3, __RLSReadBuf3
4	5803	76		jmp __RLSBDone3
4	5805	78		mov __RLSReadBuf3, __RLSLastGoodRead3
4	5807	80		arrsize __RLSBytesCount3, __RLSReadBuf3
4	5809	83		subret ____ReadLSBytes3_return
5	4	0	#line 4 "C:\Users\kjeld\Documents\GitHub\SaSeRoS-Team359\Object_detection\.\../basic_functions/functions.h"
5	5	0		mov __SetSensorType_7qG2_port_7qG2_000_inline_Touch_Init, __Touch_Init_7qG2_Port_7qG2_000
5	4	2	#line 4 "C:\Users\kjeld\Documents\GitHub\SaSeRoS-Team359\Object_detection\.\../basic_functions/functions.h"
5	4	2	#line 4 "C:\Users\kjeld\Documents\GitHub\SaSeRoS-Team359\Object_detection\.\../basic_functions/functions.h"
5	5	2		set __SetSensorType_7qG2_type_7qG2_000_inline_Touch_Init, 1
5	4	5	#line 4 "C:\Users\kjeld\Documents\GitHub\SaSeRoS-Team359\Object_detection\.\../basic_functions/functions.h"
5	3663	5	#line 3663 "NXCDefs.h"
5	3664	5		setin __SetSensorType_7qG2_type_7qG2_000_inline_Touch_Init, __SetSensorType_7qG2_port_7qG2_000_inline_Touch_Init, 0
5	3663	9	#line 3663 "NXCDefs.h"
5	5	9	#line 5 "C:\Users\kjeld\Documents\GitHub\SaSeRoS-Team359\Object_detection\.\../basic_functions/functions.h"
5	5	9	#line 5 "C:\Users\kjeld\Documents\GitHub\SaSeRoS-Team359\Object_detection\.\../basic_functions/functions.h"
5	6	9		mov __SetSensorMode_7qG2_port_7qG2_000_inline_Touch_Init, __Touch_Init_7qG2_Port_7qG2_000
5	5	11	#line 5 "C:\Users\kjeld\Documents\GitHub\SaSeRoS-Team359\Object_detection\.\../basic_functions/functions.h"
5	5	11	#line 5 "C:\Users\kjeld\Documents\GitHub\SaSeRoS-Team359\Object_detection\.\../basic_functions/functions.h"
5	6	11		set __SetSensorMode_7qG2_mode_7qG2_000_inline_Touch_Init, 32
5	5	14	#line 5 "C:\Users\kjeld\Documents\GitHub\SaSeRoS-Team359\Object_detection\.\../basic_functions/functions.h"
5	3676	14	#line 3676 "NXCDefs.h"
5	3677	14		setin __SetSensorMode_7qG2_mode_7qG2_000_inline_Touch_Init, __SetSensorMode_7qG2_port_7qG2_000_inline_Touch_Init, 1
5	3676	18	#line 3676 "NXCDefs.h"
5	6	18	#line 6 "C:\Users\kjeld\Documents\GitHub\SaSeRoS-Team359\Object_detection\.\../basic_functions/functions.h"
5	8	18	#line 8 "C:\Users\kjeld\Documents\GitHub\SaSeRoS-Team359\Object_detection\.\../basic_functions/functions.h"
5	9	18		subret __Touch_Init_return
6	9	0	#line 9 "C:\Users\kjeld\Documents\GitHub\SaSeRoS-Team359\Object_detection\.\../basic_functions/functions.h"
6	9	0	#line 9 "C:\Users\kjeld\Documents\GitHub\SaSeRoS-Team359\Object_detection\.\../basic_functions/functions.h"
6	3768	0	#line 3768 "NXCDefs.h"
6	3769	0		mov __SetSensorLowspeed_7qG2_port_7qG2_000_inline_SetSensorUltrasonic_inline_Range_Sens_Init, __Range_Sens_Init_7qG2_Port_7qG2_000
6	3768	2	#line 3768 "NXCDefs.h"
6	3768	2	#line 3768 "NXCDefs.h"
6	3769	2		mov __SetSensorLowspeed_7qG2_bIsPowered_7qG2_000_inline_SetSensorUltrasonic_inline_Range_Sens_Init, __constVal1
6	3758	4	#line 3758 "NXCDefs.h"
6	3759	4		mov __SetSensorType_7qG2_port_7qG2_000_inline_SetSensorLowspeed_inline_SetSensorUltrasonic_inline_Range_Sens_Init, __SetSensorLowspeed_7qG2_port_7qG2_000_inline_SetSensorUltrasonic_inline_Range_Sens_Init
6	3758	6	#line 3758 "NXCDefs.h"
6	3758	6	#line 3758 "NXCDefs.h"
6	3759	6		mov __DU0SetSensorLowspeed_inline_SetSensorUltrasonic, __SetSensorLowspeed_7qG2_bIsPowered_7qG2_000_inline_SetSensorUltrasonic_inline_Range_Sens_Init
6	3758	8	#line 3758 "NXCDefs.h"
6	3759	8		tst 5, __zfSetSensorLowspeed_inline_SetSensorUltrasonic, __DU0SetSensorLowspeed_inline_SetSensorUltrasonic
6	3758	11	#line 3758 "NXCDefs.h"
6	3759	11		brtst 4, __001__001__NXC_Label_36, __zfSetSensorLowspeed_inline_SetSensorUltrasonic
6	3758	14	#line 3758 "NXCDefs.h"
6	3759	14		set __D0SetSensorLowspeed_inline_SetSensorUltrasonic, 11
6	3758	17	#line 3758 "NXCDefs.h"
6	3759	17		jmp __001__001__NXC_Label_37
6	3758	19	#line 3758 "NXCDefs.h"
6	3759	19		set __D0SetSensorLowspeed_inline_SetSensorUltrasonic, 10
6	3758	22	#line 3758 "NXCDefs.h"
6	3759	22		mov __SetSensorType_7qG2_type_7qG2_000_inline_SetSensorLowspeed_inline_SetSensorUltrasonic_inline_Range_Sens_Init, __D0SetSensorLowspeed_inline_SetSensorUltrasonic
6	3663	24	#line 3663 "NXCDefs.h"
6	3664	24		setin __SetSensorType_7qG2_type_7qG2_000_inline_SetSensorLowspeed_inline_SetSensorUltrasonic_inline_Range_Sens_Init, __SetSensorType_7qG2_port_7qG2_000_inline_SetSensorLowspeed_inline_SetSensorUltrasonic_inline_Range_Sens_Init, 0
6	3663	28	#line 3663 "NXCDefs.h"
6	3759	28	#line 3759 "NXCDefs.h"
6	3759	28	#line 3759 "NXCDefs.h"
6	3760	28		mov __SetSensorMode_7qG2_port_7qG2_000_inline_SetSensorLowspeed_inline_SetSensorUltrasonic_inline_Range_Sens_Init, __SetSensorLowspeed_7qG2_port_7qG2_000_inline_SetSensorUltrasonic_inline_Range_Sens_Init
6	3759	30	#line 3759 "NXCDefs.h"
6	3759	30	#line 3759 "NXCDefs.h"
6	3760	30		set __SetSensorMode_7qG2_mode_7qG2_000_inline_SetSensorLowspeed_inline_SetSensorUltrasonic_inline_Range_Sens_Init, 0
6	3759	33	#line 3759 "NXCDefs.h"
6	3676	33	#line 3676 "NXCDefs.h"
6	3677	33		setin __SetSensorMode_7qG2_mode_7qG2_000_inline_SetSensorLowspeed_inline_SetSensorUltrasonic_inline_Range_Sens_Init, __SetSensorMode_7qG2_port_7qG2_000_inline_SetSensorLowspeed_inline_SetSensorUltrasonic_inline_Range_Sens_Init, 1
6	3676	37	#line 3676 "NXCDefs.h"
6	3760	37	#line 3760 "NXCDefs.h"
6	3760	37	#line 3760 "NXCDefs.h"
6	3761	37		mov __ResetSensor_7qG2_port_7qG2_000_inline_SetSensorLowspeed_inline_SetSensorUltrasonic_inline_Range_Sens_Init, __SetSensorLowspeed_7qG2_port_7qG2_000_inline_SetSensorUltrasonic_inline_Range_Sens_Init
6	3760	39	#line 3760 "NXCDefs.h"
6	3694	39	#line 3694 "NXCDefs.h"
6	3695	39	#pragma macro 4
6	3695	39		acquire __ResetSensorMutex
6	3695	40		mov __ResetSensorPort, __ResetSensor_7qG2_port_7qG2_000_inline_SetSensorLowspeed_inline_SetSensorUltrasonic_inline_Range_Sens_Init
6	3695	42		subcall __ResetSensorSubroutine, ____ResetSensorSubroutine_return
6	3695	45		release __ResetSensorMutex
6	5558	46	#line 5558 "NXCDefs.h"
6	3694	46	#line 3694 "NXCDefs.h"
6	3761	46	#line 3761 "NXCDefs.h"
6	3768	46	#line 3768 "NXCDefs.h"
6	10	46	#line 10 "C:\Users\kjeld\Documents\GitHub\SaSeRoS-Team359\Object_detection\.\../basic_functions/functions.h"
6	10	46	#line 10 "C:\Users\kjeld\Documents\GitHub\SaSeRoS-Team359\Object_detection\.\../basic_functions/functions.h"
6	11	46		mov __SetSensorMode_7qG2_port_7qG2_000_inline_Range_Sens_Init, __Range_Sens_Init_7qG2_Port_7qG2_000
6	10	48	#line 10 "C:\Users\kjeld\Documents\GitHub\SaSeRoS-Team359\Object_detection\.\../basic_functions/functions.h"
6	10	48	#line 10 "C:\Users\kjeld\Documents\GitHub\SaSeRoS-Team359\Object_detection\.\../basic_functions/functions.h"
6	11	48		set __SetSensorMode_7qG2_mode_7qG2_000_inline_Range_Sens_Init, 0
6	10	51	#line 10 "C:\Users\kjeld\Documents\GitHub\SaSeRoS-Team359\Object_detection\.\../basic_functions/functions.h"
6	3676	51	#line 3676 "NXCDefs.h"
6	3677	51		setin __SetSensorMode_7qG2_mode_7qG2_000_inline_Range_Sens_Init, __SetSensorMode_7qG2_port_7qG2_000_inline_Range_Sens_Init, 1
6	3676	55	#line 3676 "NXCDefs.h"
6	11	55	#line 11 "C:\Users\kjeld\Documents\GitHub\SaSeRoS-Team359\Object_detection\.\../basic_functions/functions.h"
6	13	55	#line 13 "C:\Users\kjeld\Documents\GitHub\SaSeRoS-Team359\Object_detection\.\../basic_functions/functions.h"
6	14	55		subret __Range_Sens_Init_return
7	14	0	#line 14 "C:\Users\kjeld\Documents\GitHub\SaSeRoS-Team359\Object_detection\.\../basic_functions/functions.h"
7	15	0		mov __SetSensorLight_7qG2_port_7qG2_000_inline_Light_Sens_Init, __Light_Sens_Init_7qG2_Port_7qG2_000
7	14	2	#line 14 "C:\Users\kjeld\Documents\GitHub\SaSeRoS-Team359\Object_detection\.\../basic_functions/functions.h"
7	15	2	#line 15 "C:\Users\kjeld\Documents\GitHub\SaSeRoS-Team359\Object_detection\.\../basic_functions/functions.h"
7	16	2		mov __SetSensorLight_7qG2_bActive_7qG2_000_inline_Light_Sens_Init, __constVal1
7	3729	4	#line 3729 "NXCDefs.h"
7	3730	4		mov __SetSensorType_7qG2_port_7qG2_000_inline_SetSensorLight_inline_Light_Sens_Init, __SetSensorLight_7qG2_port_7qG2_000_inline_Light_Sens_Init
7	3729	6	#line 3729 "NXCDefs.h"
7	3729	6	#line 3729 "NXCDefs.h"
7	3730	6		mov __DU0SetSensorLight_inline_Light_Sens_Init, __SetSensorLight_7qG2_bActive_7qG2_000_inline_Light_Sens_Init
7	3729	8	#line 3729 "NXCDefs.h"
7	3730	8		tst 5, __zfSetSensorLight_inline_Light_Sens_Init, __DU0SetSensorLight_inline_Light_Sens_Init
7	3729	11	#line 3729 "NXCDefs.h"
7	3730	11		brtst 4, __001__NXC_Label_4, __zfSetSensorLight_inline_Light_Sens_Init
7	3729	14	#line 3729 "NXCDefs.h"
7	3730	14		set __D0SetSensorLight_inline_Light_Sens_Init, 5
7	3729	17	#line 3729 "NXCDefs.h"
7	3730	17		jmp __001__NXC_Label_5
7	3729	19	#line 3729 "NXCDefs.h"
7	3730	19		set __D0SetSensorLight_inline_Light_Sens_Init, 6
7	3729	22	#line 3729 "NXCDefs.h"
7	3730	22		mov __SetSensorType_7qG2_type_7qG2_000_inline_SetSensorLight_inline_Light_Sens_Init, __D0SetSensorLight_inline_Light_Sens_Init
7	3663	24	#line 3663 "NXCDefs.h"
7	3664	24		setin __SetSensorType_7qG2_type_7qG2_000_inline_SetSensorLight_inline_Light_Sens_Init, __SetSensorType_7qG2_port_7qG2_000_inline_SetSensorLight_inline_Light_Sens_Init, 0
7	3663	28	#line 3663 "NXCDefs.h"
7	3730	28	#line 3730 "NXCDefs.h"
7	3730	28	#line 3730 "NXCDefs.h"
7	3731	28		mov __SetSensorMode_7qG2_port_7qG2_000_inline_SetSensorLight_inline_Light_Sens_Init, __SetSensorLight_7qG2_port_7qG2_000_inline_Light_Sens_Init
7	3730	30	#line 3730 "NXCDefs.h"
7	3730	30	#line 3730 "NXCDefs.h"
7	3731	30		set __SetSensorMode_7qG2_mode_7qG2_000_inline_SetSensorLight_inline_Light_Sens_Init, 128
7	3730	33	#line 3730 "NXCDefs.h"
7	3676	33	#line 3676 "NXCDefs.h"
7	3677	33		setin __SetSensorMode_7qG2_mode_7qG2_000_inline_SetSensorLight_inline_Light_Sens_Init, __SetSensorMode_7qG2_port_7qG2_000_inline_SetSensorLight_inline_Light_Sens_Init, 1
7	3676	37	#line 3676 "NXCDefs.h"
7	3731	37	#line 3731 "NXCDefs.h"
7	3731	37	#line 3731 "NXCDefs.h"
7	3732	37		mov __ResetSensor_7qG2_port_7qG2_000_inline_SetSensorLight_inline_Light_Sens_Init, __SetSensorLight_7qG2_port_7qG2_000_inline_Light_Sens_Init
7	3731	39	#line 3731 "NXCDefs.h"
7	3694	39	#line 3694 "NXCDefs.h"
7	3695	39	#pragma macro 4
7	3695	39		acquire __ResetSensorMutex
7	3695	40		mov __ResetSensorPort, __ResetSensor_7qG2_port_7qG2_000_inline_SetSensorLight_inline_Light_Sens_Init
7	3695	42		subcall __ResetSensorSubroutine, ____ResetSensorSubroutine_return
7	3695	45		release __ResetSensorMutex
7	5687	46	#line 5687 "NXCDefs.h"
7	3694	46	#line 3694 "NXCDefs.h"
7	3732	46	#line 3732 "NXCDefs.h"
7	15	46	#line 15 "C:\Users\kjeld\Documents\GitHub\SaSeRoS-Team359\Object_detection\.\../basic_functions/functions.h"
7	15	46	#line 15 "C:\Users\kjeld\Documents\GitHub\SaSeRoS-Team359\Object_detection\.\../basic_functions/functions.h"
7	16	46		mov __SetSensorMode_7qG2_port_7qG2_000_inline_Light_Sens_Init, __Light_Sens_Init_7qG2_Port_7qG2_000
7	15	48	#line 15 "C:\Users\kjeld\Documents\GitHub\SaSeRoS-Team359\Object_detection\.\../basic_functions/functions.h"
7	15	48	#line 15 "C:\Users\kjeld\Documents\GitHub\SaSeRoS-Team359\Object_detection\.\../basic_functions/functions.h"
7	16	48		set __SetSensorMode_7qG2_mode_7qG2_000_inline_Light_Sens_Init, 0
7	15	51	#line 15 "C:\Users\kjeld\Documents\GitHub\SaSeRoS-Team359\Object_detection\.\../basic_functions/functions.h"
7	3676	51	#line 3676 "NXCDefs.h"
7	3677	51		setin __SetSensorMode_7qG2_mode_7qG2_000_inline_Light_Sens_Init, __SetSensorMode_7qG2_port_7qG2_000_inline_Light_Sens_Init, 1
7	3676	55	#line 3676 "NXCDefs.h"
7	16	55	#line 16 "C:\Users\kjeld\Documents\GitHub\SaSeRoS-Team359\Object_detection\.\../basic_functions/functions.h"
7	19	55	#line 19 "C:\Users\kjeld\Documents\GitHub\SaSeRoS-Team359\Object_detection\.\../basic_functions/functions.h"
7	20	55		subret __Light_Sens_Init_return
8	20	0	#line 20 "C:\Users\kjeld\Documents\GitHub\SaSeRoS-Team359\Object_detection\.\../basic_functions/functions.h"
8	21	0		mov __signed_stack_001TurnMotor, __TurnMotor_7qG2_deg_7qG2_000
8	20	2	#line 20 "C:\Users\kjeld\Documents\GitHub\SaSeRoS-Team359\Object_detection\.\../basic_functions/functions.h"
8	20	2	#line 20 "C:\Users\kjeld\Documents\GitHub\SaSeRoS-Team359\Object_detection\.\../basic_functions/functions.h"
8	21	2		set __D0TurnMotor, 0
8	20	5	#line 20 "C:\Users\kjeld\Documents\GitHub\SaSeRoS-Team359\Object_detection\.\../basic_functions/functions.h"
8	21	5		cmp 0, __zfTurnMotor, __signed_stack_001TurnMotor, __D0TurnMotor
8	20	9	#line 20 "C:\Users\kjeld\Documents\GitHub\SaSeRoS-Team359\Object_detection\.\../basic_functions/functions.h"
8	21	9		mov __D0TurnMotor, __zfTurnMotor
8	21	12	#line 21 "C:\Users\kjeld\Documents\GitHub\SaSeRoS-Team359\Object_detection\.\../basic_functions/functions.h"
8	22	12		brtst 4, __NXC_Label_511, __zfTurnMotor
8	21	15	#line 21 "C:\Users\kjeld\Documents\GitHub\SaSeRoS-Team359\Object_detection\.\../basic_functions/functions.h"
8	21	15	#line 21 "C:\Users\kjeld\Documents\GitHub\SaSeRoS-Team359\Object_detection\.\../basic_functions/functions.h"
8	21	15	#line 21 "C:\Users\kjeld\Documents\GitHub\SaSeRoS-Team359\Object_detection\.\../basic_functions/functions.h"
8	21	15	#line 21 "C:\Users\kjeld\Documents\GitHub\SaSeRoS-Team359\Object_detection\.\../basic_functions/functions.h"
8	22	15		sub __signed_stack_001TurnMotor, __constVal0, __TurnMotor_7qG2_pwr_7qG2_000
8	21	19	#line 21 "C:\Users\kjeld\Documents\GitHub\SaSeRoS-Team359\Object_detection\.\../basic_functions/functions.h"
8	21	19	#line 21 "C:\Users\kjeld\Documents\GitHub\SaSeRoS-Team359\Object_detection\.\../basic_functions/functions.h"
8	22	19		mov __signed_stack_002TurnMotor, __TurnMotor_7qG2_deg_7qG2_000
8	21	21	#line 21 "C:\Users\kjeld\Documents\GitHub\SaSeRoS-Team359\Object_detection\.\../basic_functions/functions.h"
8	21	21	#line 21 "C:\Users\kjeld\Documents\GitHub\SaSeRoS-Team359\Object_detection\.\../basic_functions/functions.h"
8	22	21		mov __signed_stack_003TurnMotor, __constValNeg100
8	21	23	#line 21 "C:\Users\kjeld\Documents\GitHub\SaSeRoS-Team359\Object_detection\.\../basic_functions/functions.h"
8	21	23	#line 21 "C:\Users\kjeld\Documents\GitHub\SaSeRoS-Team359\Object_detection\.\../basic_functions/functions.h"
8	22	23		set __signed_stack_004TurnMotor, 1
8	21	26	#line 21 "C:\Users\kjeld\Documents\GitHub\SaSeRoS-Team359\Object_detection\.\../basic_functions/functions.h"
8	21	26	#line 21 "C:\Users\kjeld\Documents\GitHub\SaSeRoS-Team359\Object_detection\.\../basic_functions/functions.h"
8	22	26		set __D0TurnMotor, 1
8	22	29	#line 22 "C:\Users\kjeld\Documents\GitHub\SaSeRoS-Team359\Object_detection\.\../basic_functions/functions.h"
8	23	29	#pragma macro 35
8	23	29		mov __rotate_ports3, __OUT_AB
8	23	31		mov __rotate_power3, __signed_stack_001TurnMotor
8	23	34		mov __rotate_angle3, __signed_stack_002TurnMotor
8	23	36		mov __rotate_turnpct3, __signed_stack_003TurnMotor
8	23	39		mov __rotate_sync3, __signed_stack_004TurnMotor
8	23	42		mov __rotate_stop3, __D0TurnMotor
8	23	45		mov __rotate_theRVP3, __constVal32
8	23	47		mov __rotate_theRVI3, __constVal0
8	23	49		mov __rotate_theRVD3, __constVal96
8	23	51		subcall __RotateMotor3, ____RotateMotor3_return
8	5777	53	#line 5777 "C:\Users\kjeld\Documents\GitHub\SaSeRoS-Team359\Object_detection\.\../basic_functions/functions.h"
8	22	53	#line 22 "C:\Users\kjeld\Documents\GitHub\SaSeRoS-Team359\Object_detection\.\../basic_functions/functions.h"
8	24	53	#line 24 "C:\Users\kjeld\Documents\GitHub\SaSeRoS-Team359\Object_detection\.\../basic_functions/functions.h"
8	25	53		jmp __NXC_Label_522
8	24	55	#line 24 "C:\Users\kjeld\Documents\GitHub\SaSeRoS-Team359\Object_detection\.\../basic_functions/functions.h"
8	24	55	#line 24 "C:\Users\kjeld\Documents\GitHub\SaSeRoS-Team359\Object_detection\.\../basic_functions/functions.h"
8	24	55	#line 24 "C:\Users\kjeld\Documents\GitHub\SaSeRoS-Team359\Object_detection\.\../basic_functions/functions.h"
8	24	55	#line 24 "C:\Users\kjeld\Documents\GitHub\SaSeRoS-Team359\Object_detection\.\../basic_functions/functions.h"
8	25	55		sub __signed_stack_001TurnMotor, __constVal0, __TurnMotor_7qG2_pwr_7qG2_000
8	24	59	#line 24 "C:\Users\kjeld\Documents\GitHub\SaSeRoS-Team359\Object_detection\.\../basic_functions/functions.h"
8	24	59	#line 24 "C:\Users\kjeld\Documents\GitHub\SaSeRoS-Team359\Object_detection\.\../basic_functions/functions.h"
8	25	59		mov __signed_stack_002TurnMotor, __TurnMotor_7qG2_deg_7qG2_000
8	24	61	#line 24 "C:\Users\kjeld\Documents\GitHub\SaSeRoS-Team359\Object_detection\.\../basic_functions/functions.h"
8	24	61	#line 24 "C:\Users\kjeld\Documents\GitHub\SaSeRoS-Team359\Object_detection\.\../basic_functions/functions.h"
8	25	61		set __signed_stack_003TurnMotor, 100
8	24	64	#line 24 "C:\Users\kjeld\Documents\GitHub\SaSeRoS-Team359\Object_detection\.\../basic_functions/functions.h"
8	24	64	#line 24 "C:\Users\kjeld\Documents\GitHub\SaSeRoS-Team359\Object_detection\.\../basic_functions/functions.h"
8	25	64		set __signed_stack_004TurnMotor, 1
8	24	67	#line 24 "C:\Users\kjeld\Documents\GitHub\SaSeRoS-Team359\Object_detection\.\../basic_functions/functions.h"
8	24	67	#line 24 "C:\Users\kjeld\Documents\GitHub\SaSeRoS-Team359\Object_detection\.\../basic_functions/functions.h"
8	25	67		set __D0TurnMotor, 1
8	25	70	#line 25 "C:\Users\kjeld\Documents\GitHub\SaSeRoS-Team359\Object_detection\.\../basic_functions/functions.h"
8	26	70	#pragma macro 35
8	26	70		mov __rotate_ports3, __OUT_AB
8	26	72		mov __rotate_power3, __signed_stack_001TurnMotor
8	26	75		mov __rotate_angle3, __signed_stack_002TurnMotor
8	26	77		mov __rotate_turnpct3, __signed_stack_003TurnMotor
8	26	80		mov __rotate_sync3, __signed_stack_004TurnMotor
8	26	83		mov __rotate_stop3, __D0TurnMotor
8	26	86		mov __rotate_theRVP3, __constVal32
8	26	88		mov __rotate_theRVI3, __constVal0
8	26	90		mov __rotate_theRVD3, __constVal96
8	26	92		subcall __RotateMotor3, ____RotateMotor3_return
8	5817	94	#line 5817 "C:\Users\kjeld\Documents\GitHub\SaSeRoS-Team359\Object_detection\.\../basic_functions/functions.h"
8	25	94	#line 25 "C:\Users\kjeld\Documents\GitHub\SaSeRoS-Team359\Object_detection\.\../basic_functions/functions.h"
8	29	94	#line 29 "C:\Users\kjeld\Documents\GitHub\SaSeRoS-Team359\Object_detection\.\../basic_functions/functions.h"
8	29	94	#line 29 "C:\Users\kjeld\Documents\GitHub\SaSeRoS-Team359\Object_detection\.\../basic_functions/functions.h"
8	30	94		subret __TurnMotor_return
9	31	0	#line 31 "C:\Users\kjeld\Documents\GitHub\SaSeRoS-Team359\Object_detection\.\../basic_functions/functions.h"
9	31	0	#line 31 "C:\Users\kjeld\Documents\GitHub\SaSeRoS-Team359\Object_detection\.\../basic_functions/functions.h"
9	31	0	#line 31 "C:\Users\kjeld\Documents\GitHub\SaSeRoS-Team359\Object_detection\.\../basic_functions/functions.h"
9	31	0	#line 31 "C:\Users\kjeld\Documents\GitHub\SaSeRoS-Team359\Object_detection\.\../basic_functions/functions.h"
9	31	0	#line 31 "C:\Users\kjeld\Documents\GitHub\SaSeRoS-Team359\Object_detection\.\../basic_functions/functions.h"
9	31	0	#line 31 "C:\Users\kjeld\Documents\GitHub\SaSeRoS-Team359\Object_detection\.\../basic_functions/functions.h"
9	32	0		mul __TurnMotor_7qG2_deg_7qG2_000, __TurnRobot_7qG2_deg_7qG2_000, __constValf3P5
9	31	4	#line 31 "C:\Users\kjeld\Documents\GitHub\SaSeRoS-Team359\Object_detection\.\../basic_functions/functions.h"
9	31	4	#line 31 "C:\Users\kjeld\Documents\GitHub\SaSeRoS-Team359\Object_detection\.\../basic_functions/functions.h"
9	32	4		mov __TurnMotor_7qG2_pwr_7qG2_000, __TurnRobot_7qG2_pwr_7qG2_000
9	31	6	#line 31 "C:\Users\kjeld\Documents\GitHub\SaSeRoS-Team359\Object_detection\.\../basic_functions/functions.h"
9	32	6	#line 32 "C:\Users\kjeld\Documents\GitHub\SaSeRoS-Team359\Object_detection\.\../basic_functions/functions.h"
9	33	6		subcall TurnMotor, __TurnMotor_return
9	32	8	#line 32 "C:\Users\kjeld\Documents\GitHub\SaSeRoS-Team359\Object_detection\.\../basic_functions/functions.h"
9	34	8	#line 34 "C:\Users\kjeld\Documents\GitHub\SaSeRoS-Team359\Object_detection\.\../basic_functions/functions.h"
9	35	8		subret __TurnRobot_return
10	36	0	#line 36 "C:\Users\kjeld\Documents\GitHub\SaSeRoS-Team359\Object_detection\.\../basic_functions/functions.h"
10	37	0	#pragma macro 7
10	37	0		setout __constVal0, 2, __constVal0, 1, __constVal3, 8, __constVal0, 6, __constVal32, 7, __constVal0, 5, __constVal0, 10, __constVal96, 11, __constVal32, 12, __constVal32, 0, __constVal63
10	5871	23	#line 5871 "C:\Users\kjeld\Documents\GitHub\SaSeRoS-Team359\Object_detection\.\../basic_functions/functions.h"
10	36	23	#line 36 "C:\Users\kjeld\Documents\GitHub\SaSeRoS-Team359\Object_detection\.\../basic_functions/functions.h"
10	37	23	#line 37 "C:\Users\kjeld\Documents\GitHub\SaSeRoS-Team359\Object_detection\.\../basic_functions/functions.h"
10	38	23	#pragma macro 7
10	38	23		setout __constVal1, 2, __constVal0, 1, __constVal3, 8, __constVal0, 6, __constVal32, 7, __constVal0, 5, __constVal0, 10, __constVal96, 11, __constVal32, 12, __constVal32, 0, __constVal63
10	5874	46	#line 5874 "C:\Users\kjeld\Documents\GitHub\SaSeRoS-Team359\Object_detection\.\../basic_functions/functions.h"
10	37	46	#line 37 "C:\Users\kjeld\Documents\GitHub\SaSeRoS-Team359\Object_detection\.\../basic_functions/functions.h"
10	39	46	#line 39 "C:\Users\kjeld\Documents\GitHub\SaSeRoS-Team359\Object_detection\.\../basic_functions/functions.h"
10	40	46		subret __Stop_Driving_return
11	40	0	#line 40 "C:\Users\kjeld\Documents\GitHub\SaSeRoS-Team359\Object_detection\.\../basic_functions/functions.h"
11	40	0	#line 40 "C:\Users\kjeld\Documents\GitHub\SaSeRoS-Team359\Object_detection\.\../basic_functions/functions.h"
11	40	0	#line 40 "C:\Users\kjeld\Documents\GitHub\SaSeRoS-Team359\Object_detection\.\../basic_functions/functions.h"
11	40	0	#line 40 "C:\Users\kjeld\Documents\GitHub\SaSeRoS-Team359\Object_detection\.\../basic_functions/functions.h"
11	41	0		sub __D0Drive_Forward, __constVal0, __Drive_Forward_7qG2_pwr_7qG2_000
11	41	4	#line 41 "C:\Users\kjeld\Documents\GitHub\SaSeRoS-Team359\Object_detection\.\../basic_functions/functions.h"
11	42	4	#pragma macro 7
11	42	4		setout __constVal0, 2, __D0Drive_Forward, 1, __constVal3, 8, __constVal0, 6, __constVal32, 7, __constVal0, 5, __constVal0, 10, __constVal96, 11, __constVal32, 12, __constVal32, 0, __constVal63
11	5896	27	#line 5896 "C:\Users\kjeld\Documents\GitHub\SaSeRoS-Team359\Object_detection\.\../basic_functions/functions.h"
11	41	27	#line 41 "C:\Users\kjeld\Documents\GitHub\SaSeRoS-Team359\Object_detection\.\../basic_functions/functions.h"
11	41	27	#line 41 "C:\Users\kjeld\Documents\GitHub\SaSeRoS-Team359\Object_detection\.\../basic_functions/functions.h"
11	41	27	#line 41 "C:\Users\kjeld\Documents\GitHub\SaSeRoS-Team359\Object_detection\.\../basic_functions/functions.h"
11	41	27	#line 41 "C:\Users\kjeld\Documents\GitHub\SaSeRoS-Team359\Object_detection\.\../basic_functions/functions.h"
11	41	27	#line 41 "C:\Users\kjeld\Documents\GitHub\SaSeRoS-Team359\Object_detection\.\../basic_functions/functions.h"
11	42	27		sub __D0Drive_Forward, __constVal0, __Drive_Forward_7qG2_pwr_7qG2_000
11	42	31	#line 42 "C:\Users\kjeld\Documents\GitHub\SaSeRoS-Team359\Object_detection\.\../basic_functions/functions.h"
11	43	31	#pragma macro 7
11	43	31		setout __constVal1, 2, __D0Drive_Forward, 1, __constVal3, 8, __constVal0, 6, __constVal32, 7, __constVal0, 5, __constVal0, 10, __constVal96, 11, __constVal32, 12, __constVal32, 0, __constVal63
11	5909	54	#line 5909 "C:\Users\kjeld\Documents\GitHub\SaSeRoS-Team359\Object_detection\.\../basic_functions/functions.h"
11	42	54	#line 42 "C:\Users\kjeld\Documents\GitHub\SaSeRoS-Team359\Object_detection\.\../basic_functions/functions.h"
11	44	54	#line 44 "C:\Users\kjeld\Documents\GitHub\SaSeRoS-Team359\Object_detection\.\../basic_functions/functions.h"
11	45	54		subret __Drive_Forward_return
12	45	0	#line 45 "C:\Users\kjeld\Documents\GitHub\SaSeRoS-Team359\Object_detection\.\../basic_functions/functions.h"
12	45	0	#line 45 "C:\Users\kjeld\Documents\GitHub\SaSeRoS-Team359\Object_detection\.\../basic_functions/functions.h"
12	45	0	#line 45 "C:\Users\kjeld\Documents\GitHub\SaSeRoS-Team359\Object_detection\.\../basic_functions/functions.h"
12	45	0	#line 45 "C:\Users\kjeld\Documents\GitHub\SaSeRoS-Team359\Object_detection\.\../basic_functions/functions.h"
12	46	0		sub __D0Drive_Backward, __constVal0, __Drive_Backward_7qG2_pwr_7qG2_000
12	46	4	#line 46 "C:\Users\kjeld\Documents\GitHub\SaSeRoS-Team359\Object_detection\.\../basic_functions/functions.h"
12	47	4	#pragma macro 10
12	47	4		acquire __OnRevMutex
12	47	5		neg __OnRev_Tmp, __D0Drive_Backward
12	47	8		setout __constVal0, 2, __OnRev_Tmp, 1, __constVal3, 8, __constVal0, 6, __constVal32, 7, __constVal0, 5, __constVal0, 10, __constVal96, 11, __constVal32, 12, __constVal32, 0, __constVal63
12	47	31		release __OnRevMutex
12	5931	32	#line 5931 "C:\Users\kjeld\Documents\GitHub\SaSeRoS-Team359\Object_detection\.\../basic_functions/functions.h"
12	46	32	#line 46 "C:\Users\kjeld\Documents\GitHub\SaSeRoS-Team359\Object_detection\.\../basic_functions/functions.h"
12	46	32	#line 46 "C:\Users\kjeld\Documents\GitHub\SaSeRoS-Team359\Object_detection\.\../basic_functions/functions.h"
12	46	32	#line 46 "C:\Users\kjeld\Documents\GitHub\SaSeRoS-Team359\Object_detection\.\../basic_functions/functions.h"
12	46	32	#line 46 "C:\Users\kjeld\Documents\GitHub\SaSeRoS-Team359\Object_detection\.\../basic_functions/functions.h"
12	46	32	#line 46 "C:\Users\kjeld\Documents\GitHub\SaSeRoS-Team359\Object_detection\.\../basic_functions/functions.h"
12	47	32		sub __D0Drive_Backward, __constVal0, __Drive_Backward_7qG2_pwr_7qG2_000
12	47	36	#line 47 "C:\Users\kjeld\Documents\GitHub\SaSeRoS-Team359\Object_detection\.\../basic_functions/functions.h"
12	48	36	#pragma macro 10
12	48	36		acquire __OnRevMutex
12	48	37		neg __OnRev_Tmp, __D0Drive_Backward
12	48	40		setout __constVal1, 2, __OnRev_Tmp, 1, __constVal3, 8, __constVal0, 6, __constVal32, 7, __constVal0, 5, __constVal0, 10, __constVal96, 11, __constVal32, 12, __constVal32, 0, __constVal63
12	48	63		release __OnRevMutex
12	5944	64	#line 5944 "C:\Users\kjeld\Documents\GitHub\SaSeRoS-Team359\Object_detection\.\../basic_functions/functions.h"
12	47	64	#line 47 "C:\Users\kjeld\Documents\GitHub\SaSeRoS-Team359\Object_detection\.\../basic_functions/functions.h"
12	49	64	#line 49 "C:\Users\kjeld\Documents\GitHub\SaSeRoS-Team359\Object_detection\.\../basic_functions/functions.h"
12	50	64		subret __Drive_Backward_return
13	50	0	#line 50 "C:\Users\kjeld\Documents\GitHub\SaSeRoS-Team359\Object_detection\.\../basic_functions/functions.h"
13	51	0		set __signed_stack_001ShortBeep, 500
13	50	3	#line 50 "C:\Users\kjeld\Documents\GitHub\SaSeRoS-Team359\Object_detection\.\../basic_functions/functions.h"
13	50	3	#line 50 "C:\Users\kjeld\Documents\GitHub\SaSeRoS-Team359\Object_detection\.\../basic_functions/functions.h"
13	51	3		set __signed_stack_002ShortBeep, 100
13	50	6	#line 50 "C:\Users\kjeld\Documents\GitHub\SaSeRoS-Team359\Object_detection\.\../basic_functions/functions.h"
13	50	6	#line 50 "C:\Users\kjeld\Documents\GitHub\SaSeRoS-Team359\Object_detection\.\../basic_functions/functions.h"
13	51	6		set __signed_stack_003ShortBeep, 4
13	50	9	#line 50 "C:\Users\kjeld\Documents\GitHub\SaSeRoS-Team359\Object_detection\.\../basic_functions/functions.h"
13	50	9	#line 50 "C:\Users\kjeld\Documents\GitHub\SaSeRoS-Team359\Object_detection\.\../basic_functions/functions.h"
13	51	9		set __D0ShortBeep, 0
13	51	12	#line 51 "C:\Users\kjeld\Documents\GitHub\SaSeRoS-Team359\Object_detection\.\../basic_functions/functions.h"
13	52	12		acquire __SPTArgsMutex
13	51	13	#line 51 "C:\Users\kjeld\Documents\GitHub\SaSeRoS-Team359\Object_detection\.\../basic_functions/functions.h"
13	52	13		mov __SPTArgs.Frequency, __signed_stack_001ShortBeep
13	51	16	#line 51 "C:\Users\kjeld\Documents\GitHub\SaSeRoS-Team359\Object_detection\.\../basic_functions/functions.h"
13	52	16		mov __SPTArgs.Duration, __signed_stack_002ShortBeep
13	51	19	#line 51 "C:\Users\kjeld\Documents\GitHub\SaSeRoS-Team359\Object_detection\.\../basic_functions/functions.h"
13	52	19		mov __SPTArgs.Volume, __signed_stack_003ShortBeep
13	51	22	#line 51 "C:\Users\kjeld\Documents\GitHub\SaSeRoS-Team359\Object_detection\.\../basic_functions/functions.h"
13	52	22		mov __SPTArgs.Loop, __D0ShortBeep
13	51	25	#line 51 "C:\Users\kjeld\Documents\GitHub\SaSeRoS-Team359\Object_detection\.\../basic_functions/functions.h"
13	52	25		syscall 10, __SPTArgs
13	51	28	#line 51 "C:\Users\kjeld\Documents\GitHub\SaSeRoS-Team359\Object_detection\.\../basic_functions/functions.h"
13	52	28		mov __D0ShortBeep, __SPTArgs.Result
13	51	31	#line 51 "C:\Users\kjeld\Documents\GitHub\SaSeRoS-Team359\Object_detection\.\../basic_functions/functions.h"
13	52	31		release __SPTArgsMutex
13	51	32	#line 51 "C:\Users\kjeld\Documents\GitHub\SaSeRoS-Team359\Object_detection\.\../basic_functions/functions.h"
13	53	32	#line 53 "C:\Users\kjeld\Documents\GitHub\SaSeRoS-Team359\Object_detection\.\../basic_functions/functions.h"
13	54	32		subret __ShortBeep_return
14	54	0	#line 54 "C:\Users\kjeld\Documents\GitHub\SaSeRoS-Team359\Object_detection\.\../basic_functions/functions.h"
14	55	0		set __signed_stack_001LongBeep, 500
14	54	3	#line 54 "C:\Users\kjeld\Documents\GitHub\SaSeRoS-Team359\Object_detection\.\../basic_functions/functions.h"
14	54	3	#line 54 "C:\Users\kjeld\Documents\GitHub\SaSeRoS-Team359\Object_detection\.\../basic_functions/functions.h"
14	55	3		set __signed_stack_002LongBeep, 1000
14	54	6	#line 54 "C:\Users\kjeld\Documents\GitHub\SaSeRoS-Team359\Object_detection\.\../basic_functions/functions.h"
14	54	6	#line 54 "C:\Users\kjeld\Documents\GitHub\SaSeRoS-Team359\Object_detection\.\../basic_functions/functions.h"
14	55	6		set __signed_stack_003LongBeep, 4
14	54	9	#line 54 "C:\Users\kjeld\Documents\GitHub\SaSeRoS-Team359\Object_detection\.\../basic_functions/functions.h"
14	54	9	#line 54 "C:\Users\kjeld\Documents\GitHub\SaSeRoS-Team359\Object_detection\.\../basic_functions/functions.h"
14	55	9		set __D0LongBeep, 0
14	55	12	#line 55 "C:\Users\kjeld\Documents\GitHub\SaSeRoS-Team359\Object_detection\.\../basic_functions/functions.h"
14	56	12		acquire __SPTArgsMutex
14	55	13	#line 55 "C:\Users\kjeld\Documents\GitHub\SaSeRoS-Team359\Object_detection\.\../basic_functions/functions.h"
14	56	13		mov __SPTArgs.Frequency, __signed_stack_001LongBeep
14	55	16	#line 55 "C:\Users\kjeld\Documents\GitHub\SaSeRoS-Team359\Object_detection\.\../basic_functions/functions.h"
14	56	16		mov __SPTArgs.Duration, __signed_stack_002LongBeep
14	55	19	#line 55 "C:\Users\kjeld\Documents\GitHub\SaSeRoS-Team359\Object_detection\.\../basic_functions/functions.h"
14	56	19		mov __SPTArgs.Volume, __signed_stack_003LongBeep
14	55	22	#line 55 "C:\Users\kjeld\Documents\GitHub\SaSeRoS-Team359\Object_detection\.\../basic_functions/functions.h"
14	56	22		mov __SPTArgs.Loop, __D0LongBeep
14	55	25	#line 55 "C:\Users\kjeld\Documents\GitHub\SaSeRoS-Team359\Object_detection\.\../basic_functions/functions.h"
14	56	25		syscall 10, __SPTArgs
14	55	28	#line 55 "C:\Users\kjeld\Documents\GitHub\SaSeRoS-Team359\Object_detection\.\../basic_functions/functions.h"
14	56	28		mov __D0LongBeep, __SPTArgs.Result
14	55	31	#line 55 "C:\Users\kjeld\Documents\GitHub\SaSeRoS-Team359\Object_detection\.\../basic_functions/functions.h"
14	56	31		release __SPTArgsMutex
14	55	32	#line 55 "C:\Users\kjeld\Documents\GitHub\SaSeRoS-Team359\Object_detection\.\../basic_functions/functions.h"
14	56	32	#line 56 "C:\Users\kjeld\Documents\GitHub\SaSeRoS-Team359\Object_detection\.\../basic_functions/functions.h"
14	57	32		subret __LongBeep_return
15	13	0	#line 13 "C:\Users\kjeld\Documents\GitHub\SaSeRoS-Team359\Object_detection\.\../initialise.h"
15	14	0		set __Touch_Init_7qG2_Port_7qG2_000, 0
15	13	3	#line 13 "C:\Users\kjeld\Documents\GitHub\SaSeRoS-Team359\Object_detection\.\../initialise.h"
15	14	3	#line 14 "C:\Users\kjeld\Documents\GitHub\SaSeRoS-Team359\Object_detection\.\../initialise.h"
15	15	3		subcall Touch_Init, __Touch_Init_return
15	14	5	#line 14 "C:\Users\kjeld\Documents\GitHub\SaSeRoS-Team359\Object_detection\.\../initialise.h"
15	14	5	#line 14 "C:\Users\kjeld\Documents\GitHub\SaSeRoS-Team359\Object_detection\.\../initialise.h"
15	15	5		set __Wait_7qG2_ms_7qG2_000_inline_initialise, 1000
15	14	8	#line 14 "C:\Users\kjeld\Documents\GitHub\SaSeRoS-Team359\Object_detection\.\../initialise.h"
15	7921	8	#line 7921 "NXCDefs.h"
15	7922	8		wait2 NA, __Wait_7qG2_ms_7qG2_000_inline_initialise
15	7921	11	#line 7921 "NXCDefs.h"
15	15	11	#line 15 "C:\Users\kjeld\Documents\GitHub\SaSeRoS-Team359\Object_detection\.\../initialise.h"
15	15	11	#line 15 "C:\Users\kjeld\Documents\GitHub\SaSeRoS-Team359\Object_detection\.\../initialise.h"
15	16	11		set __signed_stack_001initialise, 0
15	15	14	#line 15 "C:\Users\kjeld\Documents\GitHub\SaSeRoS-Team359\Object_detection\.\../initialise.h"
15	15	14	#line 15 "C:\Users\kjeld\Documents\GitHub\SaSeRoS-Team359\Object_detection\.\../initialise.h"
15	16	14		set __signed_stack_002initialise, 1
15	15	17	#line 15 "C:\Users\kjeld\Documents\GitHub\SaSeRoS-Team359\Object_detection\.\../initialise.h"
15	15	17	#line 15 "C:\Users\kjeld\Documents\GitHub\SaSeRoS-Team359\Object_detection\.\../initialise.h"
15	16	17		strcat __strbufinitialise, __constStr0009
15	16	21	#line 16 "C:\Users\kjeld\Documents\GitHub\SaSeRoS-Team359\Object_detection\.\../initialise.h"
15	17	21		acquire __TextOutMutex
15	16	22	#line 16 "C:\Users\kjeld\Documents\GitHub\SaSeRoS-Team359\Object_detection\.\../initialise.h"
15	17	22		mov __TextOutArgs.Location.X, __signed_stack_001initialise
15	16	25	#line 16 "C:\Users\kjeld\Documents\GitHub\SaSeRoS-Team359\Object_detection\.\../initialise.h"
15	17	25		mov __TextOutArgs.Location.Y, __signed_stack_002initialise
15	16	28	#line 16 "C:\Users\kjeld\Documents\GitHub\SaSeRoS-Team359\Object_detection\.\../initialise.h"
15	17	28		set __TextOutArgs.Options, 0
15	16	31	#line 16 "C:\Users\kjeld\Documents\GitHub\SaSeRoS-Team359\Object_detection\.\../initialise.h"
15	17	31		mov __TextOutArgs.Text, __strbufinitialise
15	16	33	#line 16 "C:\Users\kjeld\Documents\GitHub\SaSeRoS-Team359\Object_detection\.\../initialise.h"
15	17	33		syscall 13, __TextOutArgs
15	16	36	#line 16 "C:\Users\kjeld\Documents\GitHub\SaSeRoS-Team359\Object_detection\.\../initialise.h"
15	17	36		mov __D0initialise, __TextOutArgs.Result
15	16	39	#line 16 "C:\Users\kjeld\Documents\GitHub\SaSeRoS-Team359\Object_detection\.\../initialise.h"
15	17	39		release __TextOutMutex
15	16	40	#line 16 "C:\Users\kjeld\Documents\GitHub\SaSeRoS-Team359\Object_detection\.\../initialise.h"
15	16	40	#line 16 "C:\Users\kjeld\Documents\GitHub\SaSeRoS-Team359\Object_detection\.\../initialise.h"
15	17	40		getin __D0initialise, __constVal0, 4
15	16	44	#line 16 "C:\Users\kjeld\Documents\GitHub\SaSeRoS-Team359\Object_detection\.\../initialise.h"
15	17	44		tst 5, __zfinitialise, __D0initialise
15	16	47	#line 16 "C:\Users\kjeld\Documents\GitHub\SaSeRoS-Team359\Object_detection\.\../initialise.h"
15	17	47		brtst 4, __NXC_Label_586, __zfinitialise
15	17	50	#line 17 "C:\Users\kjeld\Documents\GitHub\SaSeRoS-Team359\Object_detection\.\../initialise.h"
15	18	50		jmp __NXC_Label_585
15	17	52	#line 17 "C:\Users\kjeld\Documents\GitHub\SaSeRoS-Team359\Object_detection\.\../initialise.h"
15	17	52	#line 17 "C:\Users\kjeld\Documents\GitHub\SaSeRoS-Team359\Object_detection\.\../initialise.h"
15	18	52		set __ClearLine_7qG2_line_7qG2_000_inline_initialise, 1
15	17	55	#line 17 "C:\Users\kjeld\Documents\GitHub\SaSeRoS-Team359\Object_detection\.\../initialise.h"
15	6076	55	#line 6076 "NXCDefs.h"
15	6077	55	#pragma macro 7
15	6077	55		acquire __TextOutMutex
15	6077	56		mov __TextOutArgs.Location.X, __constVal0
15	6077	58		mov __TextOutArgs.Location.Y, __ClearLine_7qG2_line_7qG2_000_inline_initialise
15	6077	60		mov __TextOutArgs.Options, __constVal0
15	6077	62		mov __TextOutArgs.Text, __BlankLine
15	6077	64		syscall 13, __TextOutArgs
15	6077	67		release __TextOutMutex
15	6213	68	#line 6213 "NXCDefs.h"
15	6076	68	#line 6076 "NXCDefs.h"
15	18	68	#line 18 "C:\Users\kjeld\Documents\GitHub\SaSeRoS-Team359\Object_detection\.\../initialise.h"
15	18	68	#line 18 "C:\Users\kjeld\Documents\GitHub\SaSeRoS-Team359\Object_detection\.\../initialise.h"
15	19	68		set __signed_stack_001initialise, 0
15	18	71	#line 18 "C:\Users\kjeld\Documents\GitHub\SaSeRoS-Team359\Object_detection\.\../initialise.h"
15	18	71	#line 18 "C:\Users\kjeld\Documents\GitHub\SaSeRoS-Team359\Object_detection\.\../initialise.h"
15	19	71		set __signed_stack_002initialise, 1
15	18	74	#line 18 "C:\Users\kjeld\Documents\GitHub\SaSeRoS-Team359\Object_detection\.\../initialise.h"
15	18	74	#line 18 "C:\Users\kjeld\Documents\GitHub\SaSeRoS-Team359\Object_detection\.\../initialise.h"
15	19	74		strcat __strbufinitialise, __constStr0010
15	19	78	#line 19 "C:\Users\kjeld\Documents\GitHub\SaSeRoS-Team359\Object_detection\.\../initialise.h"
15	20	78		acquire __TextOutMutex
15	19	79	#line 19 "C:\Users\kjeld\Documents\GitHub\SaSeRoS-Team359\Object_detection\.\../initialise.h"
15	20	79		mov __TextOutArgs.Location.X, __signed_stack_001initialise
15	19	82	#line 19 "C:\Users\kjeld\Documents\GitHub\SaSeRoS-Team359\Object_detection\.\../initialise.h"
15	20	82		mov __TextOutArgs.Location.Y, __signed_stack_002initialise
15	19	85	#line 19 "C:\Users\kjeld\Documents\GitHub\SaSeRoS-Team359\Object_detection\.\../initialise.h"
15	20	85		set __TextOutArgs.Options, 0
15	19	88	#line 19 "C:\Users\kjeld\Documents\GitHub\SaSeRoS-Team359\Object_detection\.\../initialise.h"
15	20	88		mov __TextOutArgs.Text, __strbufinitialise
15	19	90	#line 19 "C:\Users\kjeld\Documents\GitHub\SaSeRoS-Team359\Object_detection\.\../initialise.h"
15	20	90		syscall 13, __TextOutArgs
15	19	93	#line 19 "C:\Users\kjeld\Documents\GitHub\SaSeRoS-Team359\Object_detection\.\../initialise.h"
15	20	93		mov __D0initialise, __TextOutArgs.Result
15	19	96	#line 19 "C:\Users\kjeld\Documents\GitHub\SaSeRoS-Team359\Object_detection\.\../initialise.h"
15	20	96		release __TextOutMutex
15	19	97	#line 19 "C:\Users\kjeld\Documents\GitHub\SaSeRoS-Team359\Object_detection\.\../initialise.h"
15	19	97	#line 19 "C:\Users\kjeld\Documents\GitHub\SaSeRoS-Team359\Object_detection\.\../initialise.h"
15	20	97		set __Wait_7qG2_ms_7qG2_000_inline_initialise, 5000
15	19	100	#line 19 "C:\Users\kjeld\Documents\GitHub\SaSeRoS-Team359\Object_detection\.\../initialise.h"
15	7921	100	#line 7921 "NXCDefs.h"
15	7922	100		wait2 NA, __Wait_7qG2_ms_7qG2_000_inline_initialise
15	7921	103	#line 7921 "NXCDefs.h"
15	20	103	#line 20 "C:\Users\kjeld\Documents\GitHub\SaSeRoS-Team359\Object_detection\.\../initialise.h"
15	20	103	#line 20 "C:\Users\kjeld\Documents\GitHub\SaSeRoS-Team359\Object_detection\.\../initialise.h"
15	21	103		set __ClearLine_7qG2_line_7qG2_000_inline_initialise, 1
15	20	106	#line 20 "C:\Users\kjeld\Documents\GitHub\SaSeRoS-Team359\Object_detection\.\../initialise.h"
15	6076	106	#line 6076 "NXCDefs.h"
15	6077	106	#pragma macro 7
15	6077	106		acquire __TextOutMutex
15	6077	107		mov __TextOutArgs.Location.X, __constVal0
15	6077	109		mov __TextOutArgs.Location.Y, __ClearLine_7qG2_line_7qG2_000_inline_initialise
15	6077	111		mov __TextOutArgs.Options, __constVal0
15	6077	113		mov __TextOutArgs.Text, __BlankLine
15	6077	115		syscall 13, __TextOutArgs
15	6077	118		release __TextOutMutex
15	6264	119	#line 6264 "NXCDefs.h"
15	6076	119	#line 6076 "NXCDefs.h"
15	21	119	#line 21 "C:\Users\kjeld\Documents\GitHub\SaSeRoS-Team359\Object_detection\.\../initialise.h"
15	21	119	#line 21 "C:\Users\kjeld\Documents\GitHub\SaSeRoS-Team359\Object_detection\.\../initialise.h"
15	22	119		set __Touch_Init_7qG2_Port_7qG2_000, 2
15	21	122	#line 21 "C:\Users\kjeld\Documents\GitHub\SaSeRoS-Team359\Object_detection\.\../initialise.h"
15	22	122	#line 22 "C:\Users\kjeld\Documents\GitHub\SaSeRoS-Team359\Object_detection\.\../initialise.h"
15	23	122		subcall Touch_Init, __Touch_Init_return
15	22	124	#line 22 "C:\Users\kjeld\Documents\GitHub\SaSeRoS-Team359\Object_detection\.\../initialise.h"
15	22	124	#line 22 "C:\Users\kjeld\Documents\GitHub\SaSeRoS-Team359\Object_detection\.\../initialise.h"
15	23	124		set __Wait_7qG2_ms_7qG2_000_inline_initialise, 1000
15	22	127	#line 22 "C:\Users\kjeld\Documents\GitHub\SaSeRoS-Team359\Object_detection\.\../initialise.h"
15	7921	127	#line 7921 "NXCDefs.h"
15	7922	127		wait2 NA, __Wait_7qG2_ms_7qG2_000_inline_initialise
15	7921	130	#line 7921 "NXCDefs.h"
15	23	130	#line 23 "C:\Users\kjeld\Documents\GitHub\SaSeRoS-Team359\Object_detection\.\../initialise.h"
15	23	130	#line 23 "C:\Users\kjeld\Documents\GitHub\SaSeRoS-Team359\Object_detection\.\../initialise.h"
15	24	130		set __signed_stack_001initialise, 0
15	23	133	#line 23 "C:\Users\kjeld\Documents\GitHub\SaSeRoS-Team359\Object_detection\.\../initialise.h"
15	23	133	#line 23 "C:\Users\kjeld\Documents\GitHub\SaSeRoS-Team359\Object_detection\.\../initialise.h"
15	24	133		set __signed_stack_002initialise, 1
15	23	136	#line 23 "C:\Users\kjeld\Documents\GitHub\SaSeRoS-Team359\Object_detection\.\../initialise.h"
15	23	136	#line 23 "C:\Users\kjeld\Documents\GitHub\SaSeRoS-Team359\Object_detection\.\../initialise.h"
15	24	136		strcat __strbufinitialise, __constStr0011
15	24	140	#line 24 "C:\Users\kjeld\Documents\GitHub\SaSeRoS-Team359\Object_detection\.\../initialise.h"
15	25	140		acquire __TextOutMutex
15	24	141	#line 24 "C:\Users\kjeld\Documents\GitHub\SaSeRoS-Team359\Object_detection\.\../initialise.h"
15	25	141		mov __TextOutArgs.Location.X, __signed_stack_001initialise
15	24	144	#line 24 "C:\Users\kjeld\Documents\GitHub\SaSeRoS-Team359\Object_detection\.\../initialise.h"
15	25	144		mov __TextOutArgs.Location.Y, __signed_stack_002initialise
15	24	147	#line 24 "C:\Users\kjeld\Documents\GitHub\SaSeRoS-Team359\Object_detection\.\../initialise.h"
15	25	147		set __TextOutArgs.Options, 0
15	24	150	#line 24 "C:\Users\kjeld\Documents\GitHub\SaSeRoS-Team359\Object_detection\.\../initialise.h"
15	25	150		mov __TextOutArgs.Text, __strbufinitialise
15	24	152	#line 24 "C:\Users\kjeld\Documents\GitHub\SaSeRoS-Team359\Object_detection\.\../initialise.h"
15	25	152		syscall 13, __TextOutArgs
15	24	155	#line 24 "C:\Users\kjeld\Documents\GitHub\SaSeRoS-Team359\Object_detection\.\../initialise.h"
15	25	155		mov __D0initialise, __TextOutArgs.Result
15	24	158	#line 24 "C:\Users\kjeld\Documents\GitHub\SaSeRoS-Team359\Object_detection\.\../initialise.h"
15	25	158		release __TextOutMutex
15	24	159	#line 24 "C:\Users\kjeld\Documents\GitHub\SaSeRoS-Team359\Object_detection\.\../initialise.h"
15	24	159	#line 24 "C:\Users\kjeld\Documents\GitHub\SaSeRoS-Team359\Object_detection\.\../initialise.h"
15	25	159		getin __D0initialise, __constVal2, 4
15	24	163	#line 24 "C:\Users\kjeld\Documents\GitHub\SaSeRoS-Team359\Object_detection\.\../initialise.h"
15	25	163		tst 5, __zfinitialise, __D0initialise
15	24	166	#line 24 "C:\Users\kjeld\Documents\GitHub\SaSeRoS-Team359\Object_detection\.\../initialise.h"
15	25	166		brtst 4, __NXC_Label_608, __zfinitialise
15	25	169	#line 25 "C:\Users\kjeld\Documents\GitHub\SaSeRoS-Team359\Object_detection\.\../initialise.h"
15	26	169		jmp __NXC_Label_607
15	25	171	#line 25 "C:\Users\kjeld\Documents\GitHub\SaSeRoS-Team359\Object_detection\.\../initialise.h"
15	25	171	#line 25 "C:\Users\kjeld\Documents\GitHub\SaSeRoS-Team359\Object_detection\.\../initialise.h"
15	26	171		set __ClearLine_7qG2_line_7qG2_000_inline_initialise, 1
15	25	174	#line 25 "C:\Users\kjeld\Documents\GitHub\SaSeRoS-Team359\Object_detection\.\../initialise.h"
15	6076	174	#line 6076 "NXCDefs.h"
15	6077	174	#pragma macro 7
15	6077	174		acquire __TextOutMutex
15	6077	175		mov __TextOutArgs.Location.X, __constVal0
15	6077	177		mov __TextOutArgs.Location.Y, __ClearLine_7qG2_line_7qG2_000_inline_initialise
15	6077	179		mov __TextOutArgs.Options, __constVal0
15	6077	181		mov __TextOutArgs.Text, __BlankLine
15	6077	183		syscall 13, __TextOutArgs
15	6077	186		release __TextOutMutex
15	6337	187	#line 6337 "NXCDefs.h"
15	6076	187	#line 6076 "NXCDefs.h"
15	26	187	#line 26 "C:\Users\kjeld\Documents\GitHub\SaSeRoS-Team359\Object_detection\.\../initialise.h"
15	26	187	#line 26 "C:\Users\kjeld\Documents\GitHub\SaSeRoS-Team359\Object_detection\.\../initialise.h"
15	27	187		set __signed_stack_001initialise, 0
15	26	190	#line 26 "C:\Users\kjeld\Documents\GitHub\SaSeRoS-Team359\Object_detection\.\../initialise.h"
15	26	190	#line 26 "C:\Users\kjeld\Documents\GitHub\SaSeRoS-Team359\Object_detection\.\../initialise.h"
15	27	190		set __signed_stack_002initialise, 1
15	26	193	#line 26 "C:\Users\kjeld\Documents\GitHub\SaSeRoS-Team359\Object_detection\.\../initialise.h"
15	26	193	#line 26 "C:\Users\kjeld\Documents\GitHub\SaSeRoS-Team359\Object_detection\.\../initialise.h"
15	27	193		strcat __strbufinitialise, __constStr0010
15	27	197	#line 27 "C:\Users\kjeld\Documents\GitHub\SaSeRoS-Team359\Object_detection\.\../initialise.h"
15	28	197		acquire __TextOutMutex
15	27	198	#line 27 "C:\Users\kjeld\Documents\GitHub\SaSeRoS-Team359\Object_detection\.\../initialise.h"
15	28	198		mov __TextOutArgs.Location.X, __signed_stack_001initialise
15	27	201	#line 27 "C:\Users\kjeld\Documents\GitHub\SaSeRoS-Team359\Object_detection\.\../initialise.h"
15	28	201		mov __TextOutArgs.Location.Y, __signed_stack_002initialise
15	27	204	#line 27 "C:\Users\kjeld\Documents\GitHub\SaSeRoS-Team359\Object_detection\.\../initialise.h"
15	28	204		set __TextOutArgs.Options, 0
15	27	207	#line 27 "C:\Users\kjeld\Documents\GitHub\SaSeRoS-Team359\Object_detection\.\../initialise.h"
15	28	207		mov __TextOutArgs.Text, __strbufinitialise
15	27	209	#line 27 "C:\Users\kjeld\Documents\GitHub\SaSeRoS-Team359\Object_detection\.\../initialise.h"
15	28	209		syscall 13, __TextOutArgs
15	27	212	#line 27 "C:\Users\kjeld\Documents\GitHub\SaSeRoS-Team359\Object_detection\.\../initialise.h"
15	28	212		mov __D0initialise, __TextOutArgs.Result
15	27	215	#line 27 "C:\Users\kjeld\Documents\GitHub\SaSeRoS-Team359\Object_detection\.\../initialise.h"
15	28	215		release __TextOutMutex
15	27	216	#line 27 "C:\Users\kjeld\Documents\GitHub\SaSeRoS-Team359\Object_detection\.\../initialise.h"
15	27	216	#line 27 "C:\Users\kjeld\Documents\GitHub\SaSeRoS-Team359\Object_detection\.\../initialise.h"
15	28	216		set __Range_Sens_Init_7qG2_Port_7qG2_000, 3
15	27	219	#line 27 "C:\Users\kjeld\Documents\GitHub\SaSeRoS-Team359\Object_detection\.\../initialise.h"
15	28	219	#line 28 "C:\Users\kjeld\Documents\GitHub\SaSeRoS-Team359\Object_detection\.\../initialise.h"
15	29	219		subcall Range_Sens_Init, __Range_Sens_Init_return
15	28	221	#line 28 "C:\Users\kjeld\Documents\GitHub\SaSeRoS-Team359\Object_detection\.\../initialise.h"
15	28	221	#line 28 "C:\Users\kjeld\Documents\GitHub\SaSeRoS-Team359\Object_detection\.\../initialise.h"
15	29	221		set __Wait_7qG2_ms_7qG2_000_inline_initialise, 1000
15	28	224	#line 28 "C:\Users\kjeld\Documents\GitHub\SaSeRoS-Team359\Object_detection\.\../initialise.h"
15	7921	224	#line 7921 "NXCDefs.h"
15	7922	224		wait2 NA, __Wait_7qG2_ms_7qG2_000_inline_initialise
15	7921	227	#line 7921 "NXCDefs.h"
15	29	227	#line 29 "C:\Users\kjeld\Documents\GitHub\SaSeRoS-Team359\Object_detection\.\../initialise.h"
15	29	227	#line 29 "C:\Users\kjeld\Documents\GitHub\SaSeRoS-Team359\Object_detection\.\../initialise.h"
15	30	227	#pragma macro 26
15	30	227		acquire __RLSBmutex3
15	30	228		mov __RLSReadBuf3, __RLSBbufLSWrite1
15	30	230		set __RLSBytesCount3, 1
15	30	233		wait2 NA, __constVal15
15	30	236		subcall __ReadLSBytes3, ____ReadLSBytes3_return
15	30	239		index __D0initialise, __RLSReadBuf3, 65535
15	30	243		release __RLSBmutex3
15	6391	244	#line 6391 "C:\Users\kjeld\Documents\GitHub\SaSeRoS-Team359\Object_detection\.\../initialise.h"
15	29	244	#line 29 "C:\Users\kjeld\Documents\GitHub\SaSeRoS-Team359\Object_detection\.\../initialise.h"
15	30	244		mov __initialise_7qG2_Range_7qG2_000, __D0initialise
15	29	246	#line 29 "C:\Users\kjeld\Documents\GitHub\SaSeRoS-Team359\Object_detection\.\../initialise.h"
15	29	246	#line 29 "C:\Users\kjeld\Documents\GitHub\SaSeRoS-Team359\Object_detection\.\../initialise.h"
15	30	246	#line 30 "C:\Users\kjeld\Documents\GitHub\SaSeRoS-Team359\Object_detection\.\../initialise.h"
15	31	246		set __ClearLine_7qG2_line_7qG2_000_inline_initialise, 1
15	30	249	#line 30 "C:\Users\kjeld\Documents\GitHub\SaSeRoS-Team359\Object_detection\.\../initialise.h"
15	6076	249	#line 6076 "NXCDefs.h"
15	6077	249	#pragma macro 7
15	6077	249		acquire __TextOutMutex
15	6077	250		mov __TextOutArgs.Location.X, __constVal0
15	6077	252		mov __TextOutArgs.Location.Y, __ClearLine_7qG2_line_7qG2_000_inline_initialise
15	6077	254		mov __TextOutArgs.Options, __constVal0
15	6077	256		mov __TextOutArgs.Text, __BlankLine
15	6077	258		syscall 13, __TextOutArgs
15	6077	261		release __TextOutMutex
15	6405	262	#line 6405 "NXCDefs.h"
15	6076	262	#line 6076 "NXCDefs.h"
15	31	262	#line 31 "C:\Users\kjeld\Documents\GitHub\SaSeRoS-Team359\Object_detection\.\../initialise.h"
15	31	262	#line 31 "C:\Users\kjeld\Documents\GitHub\SaSeRoS-Team359\Object_detection\.\../initialise.h"
15	32	262		set __signed_stack_001initialise, 0
15	31	265	#line 31 "C:\Users\kjeld\Documents\GitHub\SaSeRoS-Team359\Object_detection\.\../initialise.h"
15	31	265	#line 31 "C:\Users\kjeld\Documents\GitHub\SaSeRoS-Team359\Object_detection\.\../initialise.h"
15	32	265		set __signed_stack_002initialise, 1
15	31	268	#line 31 "C:\Users\kjeld\Documents\GitHub\SaSeRoS-Team359\Object_detection\.\../initialise.h"
15	31	268	#line 31 "C:\Users\kjeld\Documents\GitHub\SaSeRoS-Team359\Object_detection\.\../initialise.h"
15	32	268		strcat __strbufinitialise, __constStr0012
15	32	272	#line 32 "C:\Users\kjeld\Documents\GitHub\SaSeRoS-Team359\Object_detection\.\../initialise.h"
15	33	272		acquire __TextOutMutex
15	32	273	#line 32 "C:\Users\kjeld\Documents\GitHub\SaSeRoS-Team359\Object_detection\.\../initialise.h"
15	33	273		mov __TextOutArgs.Location.X, __signed_stack_001initialise
15	32	276	#line 32 "C:\Users\kjeld\Documents\GitHub\SaSeRoS-Team359\Object_detection\.\../initialise.h"
15	33	276		mov __TextOutArgs.Location.Y, __signed_stack_002initialise
15	32	279	#line 32 "C:\Users\kjeld\Documents\GitHub\SaSeRoS-Team359\Object_detection\.\../initialise.h"
15	33	279		set __TextOutArgs.Options, 0
15	32	282	#line 32 "C:\Users\kjeld\Documents\GitHub\SaSeRoS-Team359\Object_detection\.\../initialise.h"
15	33	282		mov __TextOutArgs.Text, __strbufinitialise
15	32	284	#line 32 "C:\Users\kjeld\Documents\GitHub\SaSeRoS-Team359\Object_detection\.\../initialise.h"
15	33	284		syscall 13, __TextOutArgs
15	32	287	#line 32 "C:\Users\kjeld\Documents\GitHub\SaSeRoS-Team359\Object_detection\.\../initialise.h"
15	33	287		mov __D0initialise, __TextOutArgs.Result
15	32	290	#line 32 "C:\Users\kjeld\Documents\GitHub\SaSeRoS-Team359\Object_detection\.\../initialise.h"
15	33	290		release __TextOutMutex
15	32	291	#line 32 "C:\Users\kjeld\Documents\GitHub\SaSeRoS-Team359\Object_detection\.\../initialise.h"
15	32	291	#line 32 "C:\Users\kjeld\Documents\GitHub\SaSeRoS-Team359\Object_detection\.\../initialise.h"
15	33	291	#pragma macro 26
15	33	291		acquire __RLSBmutex3
15	33	292		mov __RLSReadBuf3, __RLSBbufLSWrite1
15	33	294		set __RLSBytesCount3, 1
15	33	297		wait2 NA, __constVal15
15	33	300		subcall __ReadLSBytes3, ____ReadLSBytes3_return
15	33	303		index __D0initialise, __RLSReadBuf3, 65535
15	33	307		release __RLSBmutex3
15	6441	308	#line 6441 "C:\Users\kjeld\Documents\GitHub\SaSeRoS-Team359\Object_detection\.\../initialise.h"
15	32	308	#line 32 "C:\Users\kjeld\Documents\GitHub\SaSeRoS-Team359\Object_detection\.\../initialise.h"
15	33	308		mov __signed_stack_001initialise, __D0initialise
15	32	310	#line 32 "C:\Users\kjeld\Documents\GitHub\SaSeRoS-Team359\Object_detection\.\../initialise.h"
15	32	310	#line 32 "C:\Users\kjeld\Documents\GitHub\SaSeRoS-Team359\Object_detection\.\../initialise.h"
15	32	310	#line 32 "C:\Users\kjeld\Documents\GitHub\SaSeRoS-Team359\Object_detection\.\../initialise.h"
15	32	310	#line 32 "C:\Users\kjeld\Documents\GitHub\SaSeRoS-Team359\Object_detection\.\../initialise.h"
15	33	310		sub __D0initialise, __initialise_7qG2_Range_7qG2_000, __constVal10
15	32	314	#line 32 "C:\Users\kjeld\Documents\GitHub\SaSeRoS-Team359\Object_detection\.\../initialise.h"
15	33	314		cmp 1, __zfinitialise, __signed_stack_001initialise, __D0initialise
15	32	318	#line 32 "C:\Users\kjeld\Documents\GitHub\SaSeRoS-Team359\Object_detection\.\../initialise.h"
15	33	318		mov __D0initialise, __zfinitialise
15	32	320	#line 32 "C:\Users\kjeld\Documents\GitHub\SaSeRoS-Team359\Object_detection\.\../initialise.h"
15	33	320		brtst 4, __NXC_Label_632, __zfinitialise
15	32	323	#line 32 "C:\Users\kjeld\Documents\GitHub\SaSeRoS-Team359\Object_detection\.\../initialise.h"
15	33	323		mov __signed_stack_001initialise, __D0initialise
15	32	325	#line 32 "C:\Users\kjeld\Documents\GitHub\SaSeRoS-Team359\Object_detection\.\../initialise.h"
15	33	325	#pragma macro 26
15	33	325		acquire __RLSBmutex3
15	33	326		mov __RLSReadBuf3, __RLSBbufLSWrite1
15	33	328		set __RLSBytesCount3, 1
15	33	331		wait2 NA, __constVal15
15	33	334		subcall __ReadLSBytes3, ____ReadLSBytes3_return
15	33	337		index __D0initialise, __RLSReadBuf3, 65535
15	33	341		release __RLSBmutex3
15	6465	342	#line 6465 "C:\Users\kjeld\Documents\GitHub\SaSeRoS-Team359\Object_detection\.\../initialise.h"
15	32	342	#line 32 "C:\Users\kjeld\Documents\GitHub\SaSeRoS-Team359\Object_detection\.\../initialise.h"
15	33	342		mov __signed_stack_002initialise, __D0initialise
15	32	344	#line 32 "C:\Users\kjeld\Documents\GitHub\SaSeRoS-Team359\Object_detection\.\../initialise.h"
15	32	344	#line 32 "C:\Users\kjeld\Documents\GitHub\SaSeRoS-Team359\Object_detection\.\../initialise.h"
15	32	344	#line 32 "C:\Users\kjeld\Documents\GitHub\SaSeRoS-Team359\Object_detection\.\../initialise.h"
15	32	344	#line 32 "C:\Users\kjeld\Documents\GitHub\SaSeRoS-Team359\Object_detection\.\../initialise.h"
15	33	344		add __D0initialise, __initialise_7qG2_Range_7qG2_000, __constVal10
15	32	348	#line 32 "C:\Users\kjeld\Documents\GitHub\SaSeRoS-Team359\Object_detection\.\../initialise.h"
15	33	348		cmp 0, __zfinitialise, __signed_stack_002initialise, __D0initialise
15	32	352	#line 32 "C:\Users\kjeld\Documents\GitHub\SaSeRoS-Team359\Object_detection\.\../initialise.h"
15	32	352	#line 32 "C:\Users\kjeld\Documents\GitHub\SaSeRoS-Team359\Object_detection\.\../initialise.h"
15	33	352		and __D0initialise, __signed_stack_001initialise, __zfinitialise
15	32	356	#line 32 "C:\Users\kjeld\Documents\GitHub\SaSeRoS-Team359\Object_detection\.\../initialise.h"
15	33	356		tst 5, __zfinitialise, __D0initialise
15	32	359	#line 32 "C:\Users\kjeld\Documents\GitHub\SaSeRoS-Team359\Object_detection\.\../initialise.h"
15	33	359		brtst 4, __NXC_Label_630, __zfinitialise
15	33	362	#line 33 "C:\Users\kjeld\Documents\GitHub\SaSeRoS-Team359\Object_detection\.\../initialise.h"
15	34	362		jmp __NXC_Label_629
15	33	364	#line 33 "C:\Users\kjeld\Documents\GitHub\SaSeRoS-Team359\Object_detection\.\../initialise.h"
15	33	364	#line 33 "C:\Users\kjeld\Documents\GitHub\SaSeRoS-Team359\Object_detection\.\../initialise.h"
15	34	364		set __ClearLine_7qG2_line_7qG2_000_inline_initialise, 1
15	33	367	#line 33 "C:\Users\kjeld\Documents\GitHub\SaSeRoS-Team359\Object_detection\.\../initialise.h"
15	6076	367	#line 6076 "NXCDefs.h"
15	6077	367	#pragma macro 7
15	6077	367		acquire __TextOutMutex
15	6077	368		mov __TextOutArgs.Location.X, __constVal0
15	6077	370		mov __TextOutArgs.Location.Y, __ClearLine_7qG2_line_7qG2_000_inline_initialise
15	6077	372		mov __TextOutArgs.Options, __constVal0
15	6077	374		mov __TextOutArgs.Text, __BlankLine
15	6077	376		syscall 13, __TextOutArgs
15	6077	379		release __TextOutMutex
15	6503	380	#line 6503 "NXCDefs.h"
15	6076	380	#line 6076 "NXCDefs.h"
15	34	380	#line 34 "C:\Users\kjeld\Documents\GitHub\SaSeRoS-Team359\Object_detection\.\../initialise.h"
15	34	380	#line 34 "C:\Users\kjeld\Documents\GitHub\SaSeRoS-Team359\Object_detection\.\../initialise.h"
15	35	380		set __signed_stack_001initialise, 0
15	34	383	#line 34 "C:\Users\kjeld\Documents\GitHub\SaSeRoS-Team359\Object_detection\.\../initialise.h"
15	34	383	#line 34 "C:\Users\kjeld\Documents\GitHub\SaSeRoS-Team359\Object_detection\.\../initialise.h"
15	35	383		set __signed_stack_002initialise, 1
15	34	386	#line 34 "C:\Users\kjeld\Documents\GitHub\SaSeRoS-Team359\Object_detection\.\../initialise.h"
15	34	386	#line 34 "C:\Users\kjeld\Documents\GitHub\SaSeRoS-Team359\Object_detection\.\../initialise.h"
15	35	386		strcat __strbufinitialise, __constStr0010
15	35	390	#line 35 "C:\Users\kjeld\Documents\GitHub\SaSeRoS-Team359\Object_detection\.\../initialise.h"
15	36	390		acquire __TextOutMutex
15	35	391	#line 35 "C:\Users\kjeld\Documents\GitHub\SaSeRoS-Team359\Object_detection\.\../initialise.h"
15	36	391		mov __TextOutArgs.Location.X, __signed_stack_001initialise
15	35	394	#line 35 "C:\Users\kjeld\Documents\GitHub\SaSeRoS-Team359\Object_detection\.\../initialise.h"
15	36	394		mov __TextOutArgs.Location.Y, __signed_stack_002initialise
15	35	397	#line 35 "C:\Users\kjeld\Documents\GitHub\SaSeRoS-Team359\Object_detection\.\../initialise.h"
15	36	397		set __TextOutArgs.Options, 0
15	35	400	#line 35 "C:\Users\kjeld\Documents\GitHub\SaSeRoS-Team359\Object_detection\.\../initialise.h"
15	36	400		mov __TextOutArgs.Text, __strbufinitialise
15	35	402	#line 35 "C:\Users\kjeld\Documents\GitHub\SaSeRoS-Team359\Object_detection\.\../initialise.h"
15	36	402		syscall 13, __TextOutArgs
15	35	405	#line 35 "C:\Users\kjeld\Documents\GitHub\SaSeRoS-Team359\Object_detection\.\../initialise.h"
15	36	405		mov __D0initialise, __TextOutArgs.Result
15	35	408	#line 35 "C:\Users\kjeld\Documents\GitHub\SaSeRoS-Team359\Object_detection\.\../initialise.h"
15	36	408		release __TextOutMutex
15	35	409	#line 35 "C:\Users\kjeld\Documents\GitHub\SaSeRoS-Team359\Object_detection\.\../initialise.h"
15	35	409	#line 35 "C:\Users\kjeld\Documents\GitHub\SaSeRoS-Team359\Object_detection\.\../initialise.h"
15	36	409		set __Wait_7qG2_ms_7qG2_000_inline_initialise, 5000
15	35	412	#line 35 "C:\Users\kjeld\Documents\GitHub\SaSeRoS-Team359\Object_detection\.\../initialise.h"
15	7921	412	#line 7921 "NXCDefs.h"
15	7922	412		wait2 NA, __Wait_7qG2_ms_7qG2_000_inline_initialise
15	7921	415	#line 7921 "NXCDefs.h"
15	36	415	#line 36 "C:\Users\kjeld\Documents\GitHub\SaSeRoS-Team359\Object_detection\.\../initialise.h"
15	36	415	#line 36 "C:\Users\kjeld\Documents\GitHub\SaSeRoS-Team359\Object_detection\.\../initialise.h"
15	37	415		set __Light_Sens_Init_7qG2_Port_7qG2_000, 1
15	36	418	#line 36 "C:\Users\kjeld\Documents\GitHub\SaSeRoS-Team359\Object_detection\.\../initialise.h"
15	37	418	#line 37 "C:\Users\kjeld\Documents\GitHub\SaSeRoS-Team359\Object_detection\.\../initialise.h"
15	38	418		subcall Light_Sens_Init, __Light_Sens_Init_return
15	37	420	#line 37 "C:\Users\kjeld\Documents\GitHub\SaSeRoS-Team359\Object_detection\.\../initialise.h"
15	37	420	#line 37 "C:\Users\kjeld\Documents\GitHub\SaSeRoS-Team359\Object_detection\.\../initialise.h"
15	38	420		set __Wait_7qG2_ms_7qG2_000_inline_initialise, 1000
15	37	423	#line 37 "C:\Users\kjeld\Documents\GitHub\SaSeRoS-Team359\Object_detection\.\../initialise.h"
15	7921	423	#line 7921 "NXCDefs.h"
15	7922	423		wait2 NA, __Wait_7qG2_ms_7qG2_000_inline_initialise
15	7921	426	#line 7921 "NXCDefs.h"
15	38	426	#line 38 "C:\Users\kjeld\Documents\GitHub\SaSeRoS-Team359\Object_detection\.\../initialise.h"
15	38	426	#line 38 "C:\Users\kjeld\Documents\GitHub\SaSeRoS-Team359\Object_detection\.\../initialise.h"
15	39	426		getin __initialise_7qG2_Light_7qG2_000, __constVal1, 4
15	38	430	#line 38 "C:\Users\kjeld\Documents\GitHub\SaSeRoS-Team359\Object_detection\.\../initialise.h"
15	38	430	#line 38 "C:\Users\kjeld\Documents\GitHub\SaSeRoS-Team359\Object_detection\.\../initialise.h"
15	38	430	#line 38 "C:\Users\kjeld\Documents\GitHub\SaSeRoS-Team359\Object_detection\.\../initialise.h"
15	39	430	#line 39 "C:\Users\kjeld\Documents\GitHub\SaSeRoS-Team359\Object_detection\.\../initialise.h"
15	40	430		set __signed_stack_001initialise, 0
15	39	433	#line 39 "C:\Users\kjeld\Documents\GitHub\SaSeRoS-Team359\Object_detection\.\../initialise.h"
15	39	433	#line 39 "C:\Users\kjeld\Documents\GitHub\SaSeRoS-Team359\Object_detection\.\../initialise.h"
15	40	433		set __signed_stack_002initialise, 1
15	39	436	#line 39 "C:\Users\kjeld\Documents\GitHub\SaSeRoS-Team359\Object_detection\.\../initialise.h"
15	39	436	#line 39 "C:\Users\kjeld\Documents\GitHub\SaSeRoS-Team359\Object_detection\.\../initialise.h"
15	40	436		strcat __strbufinitialise, __constStr0013
15	41	440	#line 41 "C:\Users\kjeld\Documents\GitHub\SaSeRoS-Team359\Object_detection\.\../initialise.h"
15	42	440		acquire __TextOutMutex
15	41	441	#line 41 "C:\Users\kjeld\Documents\GitHub\SaSeRoS-Team359\Object_detection\.\../initialise.h"
15	42	441		mov __TextOutArgs.Location.X, __signed_stack_001initialise
15	41	444	#line 41 "C:\Users\kjeld\Documents\GitHub\SaSeRoS-Team359\Object_detection\.\../initialise.h"
15	42	444		mov __TextOutArgs.Location.Y, __signed_stack_002initialise
15	41	447	#line 41 "C:\Users\kjeld\Documents\GitHub\SaSeRoS-Team359\Object_detection\.\../initialise.h"
15	42	447		set __TextOutArgs.Options, 0
15	41	450	#line 41 "C:\Users\kjeld\Documents\GitHub\SaSeRoS-Team359\Object_detection\.\../initialise.h"
15	42	450		mov __TextOutArgs.Text, __strbufinitialise
15	41	452	#line 41 "C:\Users\kjeld\Documents\GitHub\SaSeRoS-Team359\Object_detection\.\../initialise.h"
15	42	452		syscall 13, __TextOutArgs
15	41	455	#line 41 "C:\Users\kjeld\Documents\GitHub\SaSeRoS-Team359\Object_detection\.\../initialise.h"
15	42	455		mov __D0initialise, __TextOutArgs.Result
15	41	458	#line 41 "C:\Users\kjeld\Documents\GitHub\SaSeRoS-Team359\Object_detection\.\../initialise.h"
15	42	458		release __TextOutMutex
15	41	459	#line 41 "C:\Users\kjeld\Documents\GitHub\SaSeRoS-Team359\Object_detection\.\../initialise.h"
15	41	459	#line 41 "C:\Users\kjeld\Documents\GitHub\SaSeRoS-Team359\Object_detection\.\../initialise.h"
15	42	459		getin __signed_stack_001initialise, __constVal1, 4
15	41	463	#line 41 "C:\Users\kjeld\Documents\GitHub\SaSeRoS-Team359\Object_detection\.\../initialise.h"
15	41	463	#line 41 "C:\Users\kjeld\Documents\GitHub\SaSeRoS-Team359\Object_detection\.\../initialise.h"
15	41	463	#line 41 "C:\Users\kjeld\Documents\GitHub\SaSeRoS-Team359\Object_detection\.\../initialise.h"
15	41	463	#line 41 "C:\Users\kjeld\Documents\GitHub\SaSeRoS-Team359\Object_detection\.\../initialise.h"
15	41	463	#line 41 "C:\Users\kjeld\Documents\GitHub\SaSeRoS-Team359\Object_detection\.\../initialise.h"
15	42	463		sub __D0initialise, __initialise_7qG2_Light_7qG2_000, __constVal100
15	41	467	#line 41 "C:\Users\kjeld\Documents\GitHub\SaSeRoS-Team359\Object_detection\.\../initialise.h"
15	42	467		cmp 1, __zfinitialise, __signed_stack_001initialise, __D0initialise
15	41	471	#line 41 "C:\Users\kjeld\Documents\GitHub\SaSeRoS-Team359\Object_detection\.\../initialise.h"
15	42	471		mov __D0initialise, __zfinitialise
15	41	473	#line 41 "C:\Users\kjeld\Documents\GitHub\SaSeRoS-Team359\Object_detection\.\../initialise.h"
15	42	473		brtst 4, __NXC_Label_662, __zfinitialise
15	41	476	#line 41 "C:\Users\kjeld\Documents\GitHub\SaSeRoS-Team359\Object_detection\.\../initialise.h"
15	42	476		mov __signed_stack_001initialise, __D0initialise
15	41	478	#line 41 "C:\Users\kjeld\Documents\GitHub\SaSeRoS-Team359\Object_detection\.\../initialise.h"
15	42	478		getin __signed_stack_002initialise, __constVal1, 4
15	41	482	#line 41 "C:\Users\kjeld\Documents\GitHub\SaSeRoS-Team359\Object_detection\.\../initialise.h"
15	41	482	#line 41 "C:\Users\kjeld\Documents\GitHub\SaSeRoS-Team359\Object_detection\.\../initialise.h"
15	41	482	#line 41 "C:\Users\kjeld\Documents\GitHub\SaSeRoS-Team359\Object_detection\.\../initialise.h"
15	41	482	#line 41 "C:\Users\kjeld\Documents\GitHub\SaSeRoS-Team359\Object_detection\.\../initialise.h"
15	41	482	#line 41 "C:\Users\kjeld\Documents\GitHub\SaSeRoS-Team359\Object_detection\.\../initialise.h"
15	42	482		add __D0initialise, __initialise_7qG2_Light_7qG2_000, __constVal100
15	41	486	#line 41 "C:\Users\kjeld\Documents\GitHub\SaSeRoS-Team359\Object_detection\.\../initialise.h"
15	42	486		cmp 0, __zfinitialise, __signed_stack_002initialise, __D0initialise
15	41	490	#line 41 "C:\Users\kjeld\Documents\GitHub\SaSeRoS-Team359\Object_detection\.\../initialise.h"
15	41	490	#line 41 "C:\Users\kjeld\Documents\GitHub\SaSeRoS-Team359\Object_detection\.\../initialise.h"
15	42	490		and __D0initialise, __signed_stack_001initialise, __zfinitialise
15	41	494	#line 41 "C:\Users\kjeld\Documents\GitHub\SaSeRoS-Team359\Object_detection\.\../initialise.h"
15	42	494		tst 5, __zfinitialise, __D0initialise
15	41	497	#line 41 "C:\Users\kjeld\Documents\GitHub\SaSeRoS-Team359\Object_detection\.\../initialise.h"
15	42	497		brtst 4, __NXC_Label_660, __zfinitialise
15	42	500	#line 42 "C:\Users\kjeld\Documents\GitHub\SaSeRoS-Team359\Object_detection\.\../initialise.h"
15	43	500		jmp __NXC_Label_659
15	42	502	#line 42 "C:\Users\kjeld\Documents\GitHub\SaSeRoS-Team359\Object_detection\.\../initialise.h"
15	42	502	#line 42 "C:\Users\kjeld\Documents\GitHub\SaSeRoS-Team359\Object_detection\.\../initialise.h"
15	43	502		set __ClearLine_7qG2_line_7qG2_000_inline_initialise, 1
15	42	505	#line 42 "C:\Users\kjeld\Documents\GitHub\SaSeRoS-Team359\Object_detection\.\../initialise.h"
15	6076	505	#line 6076 "NXCDefs.h"
15	6077	505	#pragma macro 7
15	6077	505		acquire __TextOutMutex
15	6077	506		mov __TextOutArgs.Location.X, __constVal0
15	6077	508		mov __TextOutArgs.Location.Y, __ClearLine_7qG2_line_7qG2_000_inline_initialise
15	6077	510		mov __TextOutArgs.Options, __constVal0
15	6077	512		mov __TextOutArgs.Text, __BlankLine
15	6077	514		syscall 13, __TextOutArgs
15	6077	517		release __TextOutMutex
15	6669	518	#line 6669 "NXCDefs.h"
15	6076	518	#line 6076 "NXCDefs.h"
15	43	518	#line 43 "C:\Users\kjeld\Documents\GitHub\SaSeRoS-Team359\Object_detection\.\../initialise.h"
15	43	518	#line 43 "C:\Users\kjeld\Documents\GitHub\SaSeRoS-Team359\Object_detection\.\../initialise.h"
15	44	518		set __signed_stack_001initialise, 0
15	43	521	#line 43 "C:\Users\kjeld\Documents\GitHub\SaSeRoS-Team359\Object_detection\.\../initialise.h"
15	43	521	#line 43 "C:\Users\kjeld\Documents\GitHub\SaSeRoS-Team359\Object_detection\.\../initialise.h"
15	44	521		set __signed_stack_002initialise, 1
15	43	524	#line 43 "C:\Users\kjeld\Documents\GitHub\SaSeRoS-Team359\Object_detection\.\../initialise.h"
15	43	524	#line 43 "C:\Users\kjeld\Documents\GitHub\SaSeRoS-Team359\Object_detection\.\../initialise.h"
15	44	524		strcat __strbufinitialise, __constStr0010
15	44	528	#line 44 "C:\Users\kjeld\Documents\GitHub\SaSeRoS-Team359\Object_detection\.\../initialise.h"
15	45	528		acquire __TextOutMutex
15	44	529	#line 44 "C:\Users\kjeld\Documents\GitHub\SaSeRoS-Team359\Object_detection\.\../initialise.h"
15	45	529		mov __TextOutArgs.Location.X, __signed_stack_001initialise
15	44	532	#line 44 "C:\Users\kjeld\Documents\GitHub\SaSeRoS-Team359\Object_detection\.\../initialise.h"
15	45	532		mov __TextOutArgs.Location.Y, __signed_stack_002initialise
15	44	535	#line 44 "C:\Users\kjeld\Documents\GitHub\SaSeRoS-Team359\Object_detection\.\../initialise.h"
15	45	535		set __TextOutArgs.Options, 0
15	44	538	#line 44 "C:\Users\kjeld\Documents\GitHub\SaSeRoS-Team359\Object_detection\.\../initialise.h"
15	45	538		mov __TextOutArgs.Text, __strbufinitialise
15	44	540	#line 44 "C:\Users\kjeld\Documents\GitHub\SaSeRoS-Team359\Object_detection\.\../initialise.h"
15	45	540		syscall 13, __TextOutArgs
15	44	543	#line 44 "C:\Users\kjeld\Documents\GitHub\SaSeRoS-Team359\Object_detection\.\../initialise.h"
15	45	543		mov __D0initialise, __TextOutArgs.Result
15	44	546	#line 44 "C:\Users\kjeld\Documents\GitHub\SaSeRoS-Team359\Object_detection\.\../initialise.h"
15	45	546		release __TextOutMutex
15	44	547	#line 44 "C:\Users\kjeld\Documents\GitHub\SaSeRoS-Team359\Object_detection\.\../initialise.h"
15	44	547	#line 44 "C:\Users\kjeld\Documents\GitHub\SaSeRoS-Team359\Object_detection\.\../initialise.h"
15	45	547		set __Wait_7qG2_ms_7qG2_000_inline_initialise, 5000
15	44	550	#line 44 "C:\Users\kjeld\Documents\GitHub\SaSeRoS-Team359\Object_detection\.\../initialise.h"
15	7921	550	#line 7921 "NXCDefs.h"
15	7922	550		wait2 NA, __Wait_7qG2_ms_7qG2_000_inline_initialise
15	7921	553	#line 7921 "NXCDefs.h"
15	45	553	#line 45 "C:\Users\kjeld\Documents\GitHub\SaSeRoS-Team359\Object_detection\.\../initialise.h"
15	45	553	#line 45 "C:\Users\kjeld\Documents\GitHub\SaSeRoS-Team359\Object_detection\.\../initialise.h"
15	46	553		set __ClearLine_7qG2_line_7qG2_000_inline_initialise, 1
15	45	556	#line 45 "C:\Users\kjeld\Documents\GitHub\SaSeRoS-Team359\Object_detection\.\../initialise.h"
15	6076	556	#line 6076 "NXCDefs.h"
15	6077	556	#pragma macro 7
15	6077	556		acquire __TextOutMutex
15	6077	557		mov __TextOutArgs.Location.X, __constVal0
15	6077	559		mov __TextOutArgs.Location.Y, __ClearLine_7qG2_line_7qG2_000_inline_initialise
15	6077	561		mov __TextOutArgs.Options, __constVal0
15	6077	563		mov __TextOutArgs.Text, __BlankLine
15	6077	565		syscall 13, __TextOutArgs
15	6077	568		release __TextOutMutex
15	6720	569	#line 6720 "NXCDefs.h"
15	6076	569	#line 6076 "NXCDefs.h"
15	46	569	#line 46 "C:\Users\kjeld\Documents\GitHub\SaSeRoS-Team359\Object_detection\.\../initialise.h"
15	46	569	#line 46 "C:\Users\kjeld\Documents\GitHub\SaSeRoS-Team359\Object_detection\.\../initialise.h"
15	47	569		set __signed_stack_001initialise, 0
15	46	572	#line 46 "C:\Users\kjeld\Documents\GitHub\SaSeRoS-Team359\Object_detection\.\../initialise.h"
15	46	572	#line 46 "C:\Users\kjeld\Documents\GitHub\SaSeRoS-Team359\Object_detection\.\../initialise.h"
15	47	572		set __signed_stack_002initialise, 1
15	46	575	#line 46 "C:\Users\kjeld\Documents\GitHub\SaSeRoS-Team359\Object_detection\.\../initialise.h"
15	46	575	#line 46 "C:\Users\kjeld\Documents\GitHub\SaSeRoS-Team359\Object_detection\.\../initialise.h"
15	47	575		strcat __strbufinitialise, __constStr0014
15	47	579	#line 47 "C:\Users\kjeld\Documents\GitHub\SaSeRoS-Team359\Object_detection\.\../initialise.h"
15	48	579		acquire __TextOutMutex
15	47	580	#line 47 "C:\Users\kjeld\Documents\GitHub\SaSeRoS-Team359\Object_detection\.\../initialise.h"
15	48	580		mov __TextOutArgs.Location.X, __signed_stack_001initialise
15	47	583	#line 47 "C:\Users\kjeld\Documents\GitHub\SaSeRoS-Team359\Object_detection\.\../initialise.h"
15	48	583		mov __TextOutArgs.Location.Y, __signed_stack_002initialise
15	47	586	#line 47 "C:\Users\kjeld\Documents\GitHub\SaSeRoS-Team359\Object_detection\.\../initialise.h"
15	48	586		set __TextOutArgs.Options, 0
15	47	589	#line 47 "C:\Users\kjeld\Documents\GitHub\SaSeRoS-Team359\Object_detection\.\../initialise.h"
15	48	589		mov __TextOutArgs.Text, __strbufinitialise
15	47	591	#line 47 "C:\Users\kjeld\Documents\GitHub\SaSeRoS-Team359\Object_detection\.\../initialise.h"
15	48	591		syscall 13, __TextOutArgs
15	47	594	#line 47 "C:\Users\kjeld\Documents\GitHub\SaSeRoS-Team359\Object_detection\.\../initialise.h"
15	48	594		mov __D0initialise, __TextOutArgs.Result
15	47	597	#line 47 "C:\Users\kjeld\Documents\GitHub\SaSeRoS-Team359\Object_detection\.\../initialise.h"
15	48	597		release __TextOutMutex
15	47	598	#line 47 "C:\Users\kjeld\Documents\GitHub\SaSeRoS-Team359\Object_detection\.\../initialise.h"
15	48	598	#line 48 "C:\Users\kjeld\Documents\GitHub\SaSeRoS-Team359\Object_detection\.\../initialise.h"
15	49	598		subret __initialise_return
16	16	0	#line 16 "C:\Users\kjeld\Documents\GitHub\SaSeRoS-Team359\Object_detection\.\../scanner.h"
16	17	0		set __signed_stack_001TurnTurret, 30
16	16	3	#line 16 "C:\Users\kjeld\Documents\GitHub\SaSeRoS-Team359\Object_detection\.\../scanner.h"
16	16	3	#line 16 "C:\Users\kjeld\Documents\GitHub\SaSeRoS-Team359\Object_detection\.\../scanner.h"
16	17	3		mov __D0TurnTurret, __TurnTurret_7qG2_deg_7qG2_000
16	17	5	#line 17 "C:\Users\kjeld\Documents\GitHub\SaSeRoS-Team359\Object_detection\.\../scanner.h"
16	18	5	#pragma macro 33
16	18	5		acquire __rotateMutex2
16	18	6		arrbuild __rotate_ports2, __constVal2
16	18	10		mov __rotate_power2, __signed_stack_001TurnTurret
16	18	12		mov __rotate_angle2, __D0TurnTurret
16	18	14		mov __rotate_turnpct2, __constVal0
16	18	16		mov __rotate_sync2, __constVal0
16	18	18		mov __rotate_stop2, __constVal1
16	18	20		mov __rotate_theRVP2, __constVal32
16	18	22		mov __rotate_theRVI2, __constVal0
16	18	24		mov __rotate_theRVD2, __constVal96
16	18	26		subcall __RotateMotor2, ____RotateMotor2_return
16	18	29		release __rotateMutex2
16	6782	30	#line 6782 "C:\Users\kjeld\Documents\GitHub\SaSeRoS-Team359\Object_detection\.\../scanner.h"
16	17	30	#line 17 "C:\Users\kjeld\Documents\GitHub\SaSeRoS-Team359\Object_detection\.\../scanner.h"
16	18	30	#line 18 "C:\Users\kjeld\Documents\GitHub\SaSeRoS-Team359\Object_detection\.\../scanner.h"
16	18	30	#line 18 "C:\Users\kjeld\Documents\GitHub\SaSeRoS-Team359\Object_detection\.\../scanner.h"
16	19	30		add scanner_currentRotation, scanner_currentRotation, __TurnTurret_7qG2_deg_7qG2_000
16	18	34	#line 18 "C:\Users\kjeld\Documents\GitHub\SaSeRoS-Team359\Object_detection\.\../scanner.h"
16	20	34	#line 20 "C:\Users\kjeld\Documents\GitHub\SaSeRoS-Team359\Object_detection\.\../scanner.h"
16	21	34		subret __TurnTurret_return
17	22	0	#line 22 "C:\Users\kjeld\Documents\GitHub\SaSeRoS-Team359\Object_detection\.\../scanner.h"
17	23	0		set __signed_stack_001CenterTurret, 30
17	22	3	#line 22 "C:\Users\kjeld\Documents\GitHub\SaSeRoS-Team359\Object_detection\.\../scanner.h"
17	22	3	#line 22 "C:\Users\kjeld\Documents\GitHub\SaSeRoS-Team359\Object_detection\.\../scanner.h"
17	22	3	#line 22 "C:\Users\kjeld\Documents\GitHub\SaSeRoS-Team359\Object_detection\.\../scanner.h"
17	22	3	#line 22 "C:\Users\kjeld\Documents\GitHub\SaSeRoS-Team359\Object_detection\.\../scanner.h"
17	22	3	#line 22 "C:\Users\kjeld\Documents\GitHub\SaSeRoS-Team359\Object_detection\.\../scanner.h"
17	23	3		sub __D0CenterTurret, __constVal0, scanner_currentRotation
17	23	7	#line 23 "C:\Users\kjeld\Documents\GitHub\SaSeRoS-Team359\Object_detection\.\../scanner.h"
17	24	7	#pragma macro 33
17	24	7		acquire __rotateMutex2
17	24	8		arrbuild __rotate_ports2, __constVal2
17	24	12		mov __rotate_power2, __signed_stack_001CenterTurret
17	24	14		mov __rotate_angle2, __D0CenterTurret
17	24	16		mov __rotate_turnpct2, __constVal0
17	24	18		mov __rotate_sync2, __constVal0
17	24	20		mov __rotate_stop2, __constVal1
17	24	22		mov __rotate_theRVP2, __constVal32
17	24	24		mov __rotate_theRVI2, __constVal0
17	24	26		mov __rotate_theRVD2, __constVal96
17	24	28		subcall __RotateMotor2, ____RotateMotor2_return
17	24	31		release __rotateMutex2
17	6813	32	#line 6813 "C:\Users\kjeld\Documents\GitHub\SaSeRoS-Team359\Object_detection\.\../scanner.h"
17	23	32	#line 23 "C:\Users\kjeld\Documents\GitHub\SaSeRoS-Team359\Object_detection\.\../scanner.h"
17	24	32	#line 24 "C:\Users\kjeld\Documents\GitHub\SaSeRoS-Team359\Object_detection\.\../scanner.h"
17	25	32		set scanner_currentRotation, 0
17	24	35	#line 24 "C:\Users\kjeld\Documents\GitHub\SaSeRoS-Team359\Object_detection\.\../scanner.h"
17	24	35	#line 24 "C:\Users\kjeld\Documents\GitHub\SaSeRoS-Team359\Object_detection\.\../scanner.h"
17	27	35	#line 27 "C:\Users\kjeld\Documents\GitHub\SaSeRoS-Team359\Object_detection\.\../scanner.h"
17	28	35		subret __CenterTurret_return
18	45	0	#line 45 "C:\Users\kjeld\Documents\GitHub\SaSeRoS-Team359\Object_detection\.\../scanner.h"
18	46	0		set __UltrasonicScan_7qG2_sensor_value_7qG2_000, 0
18	45	3	#line 45 "C:\Users\kjeld\Documents\GitHub\SaSeRoS-Team359\Object_detection\.\../scanner.h"
18	45	3	#line 45 "C:\Users\kjeld\Documents\GitHub\SaSeRoS-Team359\Object_detection\.\../scanner.h"
18	45	3	#line 45 "C:\Users\kjeld\Documents\GitHub\SaSeRoS-Team359\Object_detection\.\../scanner.h"
18	3768	3	#line 3768 "NXCDefs.h"
18	3769	3		mov __SetSensorLowspeed_7qG2_port_7qG2_000_inline_SetSensorUltrasonic_inline_UltrasonicScan, __constVal3
18	3768	5	#line 3768 "NXCDefs.h"
18	3768	5	#line 3768 "NXCDefs.h"
18	3769	5		mov __SetSensorLowspeed_7qG2_bIsPowered_7qG2_000_inline_SetSensorUltrasonic_inline_UltrasonicScan, __constVal1
18	3758	7	#line 3758 "NXCDefs.h"
18	3759	7		mov __SetSensorType_7qG2_port_7qG2_000_inline_SetSensorLowspeed_inline_SetSensorUltrasonic_inline_UltrasonicScan, __SetSensorLowspeed_7qG2_port_7qG2_000_inline_SetSensorUltrasonic_inline_UltrasonicScan
18	3758	9	#line 3758 "NXCDefs.h"
18	3758	9	#line 3758 "NXCDefs.h"
18	3759	9		mov __DU0SetSensorLowspeed_inline_SetSensorUltrasonic, __SetSensorLowspeed_7qG2_bIsPowered_7qG2_000_inline_SetSensorUltrasonic_inline_UltrasonicScan
18	3758	11	#line 3758 "NXCDefs.h"
18	3759	11		tst 5, __zfSetSensorLowspeed_inline_SetSensorUltrasonic, __DU0SetSensorLowspeed_inline_SetSensorUltrasonic
18	3758	14	#line 3758 "NXCDefs.h"
18	3759	14		brtst 4, __001__002__NXC_Label_36, __zfSetSensorLowspeed_inline_SetSensorUltrasonic
18	3758	17	#line 3758 "NXCDefs.h"
18	3759	17		set __D0SetSensorLowspeed_inline_SetSensorUltrasonic, 11
18	3758	20	#line 3758 "NXCDefs.h"
18	3759	20		jmp __001__002__NXC_Label_37
18	3758	22	#line 3758 "NXCDefs.h"
18	3759	22		set __D0SetSensorLowspeed_inline_SetSensorUltrasonic, 10
18	3758	25	#line 3758 "NXCDefs.h"
18	3759	25		mov __SetSensorType_7qG2_type_7qG2_000_inline_SetSensorLowspeed_inline_SetSensorUltrasonic_inline_UltrasonicScan, __D0SetSensorLowspeed_inline_SetSensorUltrasonic
18	3663	27	#line 3663 "NXCDefs.h"
18	3664	27		setin __SetSensorType_7qG2_type_7qG2_000_inline_SetSensorLowspeed_inline_SetSensorUltrasonic_inline_UltrasonicScan, __SetSensorType_7qG2_port_7qG2_000_inline_SetSensorLowspeed_inline_SetSensorUltrasonic_inline_UltrasonicScan, 0
18	3663	31	#line 3663 "NXCDefs.h"
18	3759	31	#line 3759 "NXCDefs.h"
18	3759	31	#line 3759 "NXCDefs.h"
18	3760	31		mov __SetSensorMode_7qG2_port_7qG2_000_inline_SetSensorLowspeed_inline_SetSensorUltrasonic_inline_UltrasonicScan, __SetSensorLowspeed_7qG2_port_7qG2_000_inline_SetSensorUltrasonic_inline_UltrasonicScan
18	3759	33	#line 3759 "NXCDefs.h"
18	3759	33	#line 3759 "NXCDefs.h"
18	3760	33		set __SetSensorMode_7qG2_mode_7qG2_000_inline_SetSensorLowspeed_inline_SetSensorUltrasonic_inline_UltrasonicScan, 0
18	3759	36	#line 3759 "NXCDefs.h"
18	3676	36	#line 3676 "NXCDefs.h"
18	3677	36		setin __SetSensorMode_7qG2_mode_7qG2_000_inline_SetSensorLowspeed_inline_SetSensorUltrasonic_inline_UltrasonicScan, __SetSensorMode_7qG2_port_7qG2_000_inline_SetSensorLowspeed_inline_SetSensorUltrasonic_inline_UltrasonicScan, 1
18	3676	40	#line 3676 "NXCDefs.h"
18	3760	40	#line 3760 "NXCDefs.h"
18	3760	40	#line 3760 "NXCDefs.h"
18	3761	40		mov __ResetSensor_7qG2_port_7qG2_000_inline_SetSensorLowspeed_inline_SetSensorUltrasonic_inline_UltrasonicScan, __SetSensorLowspeed_7qG2_port_7qG2_000_inline_SetSensorUltrasonic_inline_UltrasonicScan
18	3760	42	#line 3760 "NXCDefs.h"
18	3694	42	#line 3694 "NXCDefs.h"
18	3695	42	#pragma macro 4
18	3695	42		acquire __ResetSensorMutex
18	3695	43		mov __ResetSensorPort, __ResetSensor_7qG2_port_7qG2_000_inline_SetSensorLowspeed_inline_SetSensorUltrasonic_inline_UltrasonicScan
18	3695	45		subcall __ResetSensorSubroutine, ____ResetSensorSubroutine_return
18	3695	48		release __ResetSensorMutex
18	7037	49	#line 7037 "NXCDefs.h"
18	3694	49	#line 3694 "NXCDefs.h"
18	3761	49	#line 3761 "NXCDefs.h"
18	3768	49	#line 3768 "NXCDefs.h"
18	48	49	#line 48 "C:\Users\kjeld\Documents\GitHub\SaSeRoS-Team359\Object_detection\.\../scanner.h"
18	48	49	#line 48 "C:\Users\kjeld\Documents\GitHub\SaSeRoS-Team359\Object_detection\.\../scanner.h"
18	49	49		mov __TurnTurret_7qG2_deg_7qG2_000, __constValNeg180
18	48	51	#line 48 "C:\Users\kjeld\Documents\GitHub\SaSeRoS-Team359\Object_detection\.\../scanner.h"
18	50	51	#line 50 "C:\Users\kjeld\Documents\GitHub\SaSeRoS-Team359\Object_detection\.\../scanner.h"
18	51	51		subcall TurnTurret, __TurnTurret_return
18	50	53	#line 50 "C:\Users\kjeld\Documents\GitHub\SaSeRoS-Team359\Object_detection\.\../scanner.h"
18	50	53	#line 50 "C:\Users\kjeld\Documents\GitHub\SaSeRoS-Team359\Object_detection\.\../scanner.h"
18	51	53		mov __signed_stack_001UltrasonicScan, scanner_currentRotation
18	50	55	#line 50 "C:\Users\kjeld\Documents\GitHub\SaSeRoS-Team359\Object_detection\.\../scanner.h"
18	50	55	#line 50 "C:\Users\kjeld\Documents\GitHub\SaSeRoS-Team359\Object_detection\.\../scanner.h"
18	51	55		set __D0UltrasonicScan, 180
18	50	58	#line 50 "C:\Users\kjeld\Documents\GitHub\SaSeRoS-Team359\Object_detection\.\../scanner.h"
18	51	58		cmp 0, __zfUltrasonicScan, __signed_stack_001UltrasonicScan, __D0UltrasonicScan
18	50	62	#line 50 "C:\Users\kjeld\Documents\GitHub\SaSeRoS-Team359\Object_detection\.\../scanner.h"
18	51	62		mov __D0UltrasonicScan, __zfUltrasonicScan
18	52	65	#line 52 "C:\Users\kjeld\Documents\GitHub\SaSeRoS-Team359\Object_detection\.\../scanner.h"
18	53	65		brtst 4, __NXC_Label_720, __zfUltrasonicScan
18	52	68	#line 52 "C:\Users\kjeld\Documents\GitHub\SaSeRoS-Team359\Object_detection\.\../scanner.h"
18	53	68		set __TurnTurret_7qG2_deg_7qG2_000, 20
18	52	71	#line 52 "C:\Users\kjeld\Documents\GitHub\SaSeRoS-Team359\Object_detection\.\../scanner.h"
18	55	71	#line 55 "C:\Users\kjeld\Documents\GitHub\SaSeRoS-Team359\Object_detection\.\../scanner.h"
18	56	71		subcall TurnTurret, __TurnTurret_return
18	55	73	#line 55 "C:\Users\kjeld\Documents\GitHub\SaSeRoS-Team359\Object_detection\.\../scanner.h"
18	55	73	#line 55 "C:\Users\kjeld\Documents\GitHub\SaSeRoS-Team359\Object_detection\.\../scanner.h"
18	56	73		set __Wait_7qG2_ms_7qG2_000_inline_UltrasonicScan, 300
18	55	76	#line 55 "C:\Users\kjeld\Documents\GitHub\SaSeRoS-Team359\Object_detection\.\../scanner.h"
18	7921	76	#line 7921 "NXCDefs.h"
18	7922	76		wait2 NA, __Wait_7qG2_ms_7qG2_000_inline_UltrasonicScan
18	7921	79	#line 7921 "NXCDefs.h"
18	58	79	#line 58 "C:\Users\kjeld\Documents\GitHub\SaSeRoS-Team359\Object_detection\.\../scanner.h"
18	58	79	#line 58 "C:\Users\kjeld\Documents\GitHub\SaSeRoS-Team359\Object_detection\.\../scanner.h"
18	59	79	#pragma macro 26
18	59	79		acquire __RLSBmutex3
18	59	80		mov __RLSReadBuf3, __RLSBbufLSWrite1
18	59	82		set __RLSBytesCount3, 1
18	59	85		wait2 NA, __constVal15
18	59	88		subcall __ReadLSBytes3, ____ReadLSBytes3_return
18	59	91		index __D0UltrasonicScan, __RLSReadBuf3, 65535
18	59	95		release __RLSBmutex3
18	7090	96	#line 7090 "C:\Users\kjeld\Documents\GitHub\SaSeRoS-Team359\Object_detection\.\../scanner.h"
18	58	96	#line 58 "C:\Users\kjeld\Documents\GitHub\SaSeRoS-Team359\Object_detection\.\../scanner.h"
18	59	96		mov __UltrasonicScan_7qG2_sensor_value_7qG2_000, __D0UltrasonicScan
18	58	98	#line 58 "C:\Users\kjeld\Documents\GitHub\SaSeRoS-Team359\Object_detection\.\../scanner.h"
18	58	98	#line 58 "C:\Users\kjeld\Documents\GitHub\SaSeRoS-Team359\Object_detection\.\../scanner.h"
18	61	98	#line 61 "C:\Users\kjeld\Documents\GitHub\SaSeRoS-Team359\Object_detection\.\../scanner.h"
18	62	98		mov __signed_stack_001UltrasonicScan, __D0UltrasonicScan
18	61	100	#line 61 "C:\Users\kjeld\Documents\GitHub\SaSeRoS-Team359\Object_detection\.\../scanner.h"
18	61	100	#line 61 "C:\Users\kjeld\Documents\GitHub\SaSeRoS-Team359\Object_detection\.\../scanner.h"
18	62	100		set __D0UltrasonicScan, 30
18	61	103	#line 61 "C:\Users\kjeld\Documents\GitHub\SaSeRoS-Team359\Object_detection\.\../scanner.h"
18	62	103		cmp 1, __zfUltrasonicScan, __signed_stack_001UltrasonicScan, __D0UltrasonicScan
18	61	107	#line 61 "C:\Users\kjeld\Documents\GitHub\SaSeRoS-Team359\Object_detection\.\../scanner.h"
18	62	107		mov __D0UltrasonicScan, __zfUltrasonicScan
18	63	110	#line 63 "C:\Users\kjeld\Documents\GitHub\SaSeRoS-Team359\Object_detection\.\../scanner.h"
18	64	110		brtst 4, __NXC_Label_731, __zfUltrasonicScan
18	64	113	#line 64 "C:\Users\kjeld\Documents\GitHub\SaSeRoS-Team359\Object_detection\.\../scanner.h"
18	65	113		mov __UltrasonicScan_7qG2_returnval_7qG2_002, scanner_currentRotation
18	64	115	#line 64 "C:\Users\kjeld\Documents\GitHub\SaSeRoS-Team359\Object_detection\.\../scanner.h"
18	65	115	#line 65 "C:\Users\kjeld\Documents\GitHub\SaSeRoS-Team359\Object_detection\.\../scanner.h"
18	66	115		subcall CenterTurret, __CenterTurret_return
18	65	117	#line 65 "C:\Users\kjeld\Documents\GitHub\SaSeRoS-Team359\Object_detection\.\../scanner.h"
18	66	117	#line 66 "C:\Users\kjeld\Documents\GitHub\SaSeRoS-Team359\Object_detection\.\../scanner.h"
18	67	117		mov __D0UltrasonicScan, __UltrasonicScan_7qG2_returnval_7qG2_002
18	66	119	#line 66 "C:\Users\kjeld\Documents\GitHub\SaSeRoS-Team359\Object_detection\.\../scanner.h"
18	67	119		subret __UltrasonicScan_return
18	66	121	#line 66 "C:\Users\kjeld\Documents\GitHub\SaSeRoS-Team359\Object_detection\.\../scanner.h"
18	71	121	#line 71 "C:\Users\kjeld\Documents\GitHub\SaSeRoS-Team359\Object_detection\.\../scanner.h"
18	71	121	#line 71 "C:\Users\kjeld\Documents\GitHub\SaSeRoS-Team359\Object_detection\.\../scanner.h"
18	72	121		jmp __NXC_Label_719
18	71	123	#line 71 "C:\Users\kjeld\Documents\GitHub\SaSeRoS-Team359\Object_detection\.\../scanner.h"
18	72	123	#line 72 "C:\Users\kjeld\Documents\GitHub\SaSeRoS-Team359\Object_detection\.\../scanner.h"
18	73	123		subcall CenterTurret, __CenterTurret_return
18	72	125	#line 72 "C:\Users\kjeld\Documents\GitHub\SaSeRoS-Team359\Object_detection\.\../scanner.h"
18	73	125	#line 73 "C:\Users\kjeld\Documents\GitHub\SaSeRoS-Team359\Object_detection\.\../scanner.h"
18	74	125		set __D0UltrasonicScan, 0
18	73	128	#line 73 "C:\Users\kjeld\Documents\GitHub\SaSeRoS-Team359\Object_detection\.\../scanner.h"
18	74	128		subret __UltrasonicScan_return
18	73	130	#line 73 "C:\Users\kjeld\Documents\GitHub\SaSeRoS-Team359\Object_detection\.\../scanner.h"
18	74	130	#line 74 "C:\Users\kjeld\Documents\GitHub\SaSeRoS-Team359\Object_detection\.\../scanner.h"
18	75	130		subret __UltrasonicScan_return
19	40	0	#line 40 "C:\Users\kjeld\Documents\GitHub\SaSeRoS-Team359\Object_detection\Object_detection.nxc"
19	41	0		mov __unsigned_stack_001Look_Back, reverse
19	40	2	#line 40 "C:\Users\kjeld\Documents\GitHub\SaSeRoS-Team359\Object_detection\Object_detection.nxc"
19	40	2	#line 40 "C:\Users\kjeld\Documents\GitHub\SaSeRoS-Team359\Object_detection\Object_detection.nxc"
19	41	2		set __D0Look_Back, 0
19	40	5	#line 40 "C:\Users\kjeld\Documents\GitHub\SaSeRoS-Team359\Object_detection\Object_detection.nxc"
19	41	5		cmp 4, __zfLook_Back, __unsigned_stack_001Look_Back, __D0Look_Back
19	40	9	#line 40 "C:\Users\kjeld\Documents\GitHub\SaSeRoS-Team359\Object_detection\Object_detection.nxc"
19	41	9		mov __D0Look_Back, __zfLook_Back
19	41	12	#line 41 "C:\Users\kjeld\Documents\GitHub\SaSeRoS-Team359\Object_detection\Object_detection.nxc"
19	42	12		brtst 4, __NXC_Label_782, __zfLook_Back
19	41	15	#line 41 "C:\Users\kjeld\Documents\GitHub\SaSeRoS-Team359\Object_detection\Object_detection.nxc"
19	42	15		getin __D0Look_Back, __constVal2, 4
19	41	19	#line 41 "C:\Users\kjeld\Documents\GitHub\SaSeRoS-Team359\Object_detection\Object_detection.nxc"
19	42	19		not __D0Look_Back, __D0Look_Back
19	42	22	#line 42 "C:\Users\kjeld\Documents\GitHub\SaSeRoS-Team359\Object_detection\Object_detection.nxc"
19	43	22		tst 5, __zfLook_Back, __D0Look_Back
19	42	25	#line 42 "C:\Users\kjeld\Documents\GitHub\SaSeRoS-Team359\Object_detection\Object_detection.nxc"
19	43	25		brtst 4, __NXC_Label_787, __zfLook_Back
19	43	28	#line 43 "C:\Users\kjeld\Documents\GitHub\SaSeRoS-Team359\Object_detection\Object_detection.nxc"
19	44	28		subcall Stop_Driving, __Stop_Driving_return
19	43	30	#line 43 "C:\Users\kjeld\Documents\GitHub\SaSeRoS-Team359\Object_detection\Object_detection.nxc"
19	43	30	#line 43 "C:\Users\kjeld\Documents\GitHub\SaSeRoS-Team359\Object_detection\Object_detection.nxc"
19	44	30		set __Drive_Backward_7qG2_pwr_7qG2_000, 50
19	43	33	#line 43 "C:\Users\kjeld\Documents\GitHub\SaSeRoS-Team359\Object_detection\Object_detection.nxc"
19	44	33	#line 44 "C:\Users\kjeld\Documents\GitHub\SaSeRoS-Team359\Object_detection\Object_detection.nxc"
19	45	33		subcall Drive_Backward, __Drive_Backward_return
19	44	35	#line 44 "C:\Users\kjeld\Documents\GitHub\SaSeRoS-Team359\Object_detection\Object_detection.nxc"
19	44	35	#line 44 "C:\Users\kjeld\Documents\GitHub\SaSeRoS-Team359\Object_detection\Object_detection.nxc"
19	45	35		set __TurnRobot_7qG2_deg_7qG2_000, 360
19	44	38	#line 44 "C:\Users\kjeld\Documents\GitHub\SaSeRoS-Team359\Object_detection\Object_detection.nxc"
19	44	38	#line 44 "C:\Users\kjeld\Documents\GitHub\SaSeRoS-Team359\Object_detection\Object_detection.nxc"
19	45	38		set __TurnRobot_7qG2_pwr_7qG2_000, 50
19	44	41	#line 44 "C:\Users\kjeld\Documents\GitHub\SaSeRoS-Team359\Object_detection\Object_detection.nxc"
19	45	41	#line 45 "C:\Users\kjeld\Documents\GitHub\SaSeRoS-Team359\Object_detection\Object_detection.nxc"
19	46	41		subcall TurnRobot, __TurnRobot_return
19	45	43	#line 45 "C:\Users\kjeld\Documents\GitHub\SaSeRoS-Team359\Object_detection\Object_detection.nxc"
19	45	43	#line 45 "C:\Users\kjeld\Documents\GitHub\SaSeRoS-Team359\Object_detection\Object_detection.nxc"
19	46	43		set __Wait_7qG2_ms_7qG2_000_inline_Look_Back, 1000
19	45	46	#line 45 "C:\Users\kjeld\Documents\GitHub\SaSeRoS-Team359\Object_detection\Object_detection.nxc"
19	7921	46	#line 7921 "NXCDefs.h"
19	7922	46		wait2 NA, __Wait_7qG2_ms_7qG2_000_inline_Look_Back
19	7921	49	#line 7921 "NXCDefs.h"
19	46	49	#line 46 "C:\Users\kjeld\Documents\GitHub\SaSeRoS-Team359\Object_detection\Object_detection.nxc"
19	47	49	#line 47 "C:\Users\kjeld\Documents\GitHub\SaSeRoS-Team359\Object_detection\Object_detection.nxc"
19	48	49		subcall Stop_Driving, __Stop_Driving_return
19	47	51	#line 47 "C:\Users\kjeld\Documents\GitHub\SaSeRoS-Team359\Object_detection\Object_detection.nxc"
19	47	51	#line 47 "C:\Users\kjeld\Documents\GitHub\SaSeRoS-Team359\Object_detection\Object_detection.nxc"
19	48	51		set __Drive_Forward_7qG2_pwr_7qG2_000, 50
19	47	54	#line 47 "C:\Users\kjeld\Documents\GitHub\SaSeRoS-Team359\Object_detection\Object_detection.nxc"
19	48	54	#line 48 "C:\Users\kjeld\Documents\GitHub\SaSeRoS-Team359\Object_detection\Object_detection.nxc"
19	49	54		subcall Drive_Forward, __Drive_Forward_return
19	48	56	#line 48 "C:\Users\kjeld\Documents\GitHub\SaSeRoS-Team359\Object_detection\Object_detection.nxc"
19	50	56	#line 50 "C:\Users\kjeld\Documents\GitHub\SaSeRoS-Team359\Object_detection\Object_detection.nxc"
19	50	56	#line 50 "C:\Users\kjeld\Documents\GitHub\SaSeRoS-Team359\Object_detection\Object_detection.nxc"
19	51	56		jmp __NXC_Label_781
19	50	58	#line 50 "C:\Users\kjeld\Documents\GitHub\SaSeRoS-Team359\Object_detection\Object_detection.nxc"
19	50	58	#line 50 "C:\Users\kjeld\Documents\GitHub\SaSeRoS-Team359\Object_detection\Object_detection.nxc"
19	51	58		mov __unsigned_stack_001Look_Back, reverse
19	50	60	#line 50 "C:\Users\kjeld\Documents\GitHub\SaSeRoS-Team359\Object_detection\Object_detection.nxc"
19	50	60	#line 50 "C:\Users\kjeld\Documents\GitHub\SaSeRoS-Team359\Object_detection\Object_detection.nxc"
19	51	60		set __D0Look_Back, 1
19	50	63	#line 50 "C:\Users\kjeld\Documents\GitHub\SaSeRoS-Team359\Object_detection\Object_detection.nxc"
19	51	63		cmp 4, __zfLook_Back, __unsigned_stack_001Look_Back, __D0Look_Back
19	50	67	#line 50 "C:\Users\kjeld\Documents\GitHub\SaSeRoS-Team359\Object_detection\Object_detection.nxc"
19	51	67		mov __D0Look_Back, __zfLook_Back
19	51	70	#line 51 "C:\Users\kjeld\Documents\GitHub\SaSeRoS-Team359\Object_detection\Object_detection.nxc"
19	52	70		brtst 4, __NXC_Label_799, __zfLook_Back
19	51	73	#line 51 "C:\Users\kjeld\Documents\GitHub\SaSeRoS-Team359\Object_detection\Object_detection.nxc"
19	52	73		getin __D0Look_Back, __constVal2, 4
19	51	77	#line 51 "C:\Users\kjeld\Documents\GitHub\SaSeRoS-Team359\Object_detection\Object_detection.nxc"
19	52	77		not __D0Look_Back, __D0Look_Back
19	52	80	#line 52 "C:\Users\kjeld\Documents\GitHub\SaSeRoS-Team359\Object_detection\Object_detection.nxc"
19	53	80		tst 5, __zfLook_Back, __D0Look_Back
19	52	83	#line 52 "C:\Users\kjeld\Documents\GitHub\SaSeRoS-Team359\Object_detection\Object_detection.nxc"
19	53	83		brtst 4, __NXC_Label_804, __zfLook_Back
19	53	86	#line 53 "C:\Users\kjeld\Documents\GitHub\SaSeRoS-Team359\Object_detection\Object_detection.nxc"
19	54	86		set stuck, 1
19	53	89	#line 53 "C:\Users\kjeld\Documents\GitHub\SaSeRoS-Team359\Object_detection\Object_detection.nxc"
19	53	89	#line 53 "C:\Users\kjeld\Documents\GitHub\SaSeRoS-Team359\Object_detection\Object_detection.nxc"
19	53	89	#line 53 "C:\Users\kjeld\Documents\GitHub\SaSeRoS-Team359\Object_detection\Object_detection.nxc"
19	54	89		set __signed_stack_001Look_Back, 1
19	53	92	#line 53 "C:\Users\kjeld\Documents\GitHub\SaSeRoS-Team359\Object_detection\Object_detection.nxc"
19	53	92	#line 53 "C:\Users\kjeld\Documents\GitHub\SaSeRoS-Team359\Object_detection\Object_detection.nxc"
19	54	92		set __signed_stack_002Look_Back, 1
19	53	95	#line 53 "C:\Users\kjeld\Documents\GitHub\SaSeRoS-Team359\Object_detection\Object_detection.nxc"
19	53	95	#line 53 "C:\Users\kjeld\Documents\GitHub\SaSeRoS-Team359\Object_detection\Object_detection.nxc"
19	54	95		strcat __strbufLook_Back, __constStr0015
19	54	99	#line 54 "C:\Users\kjeld\Documents\GitHub\SaSeRoS-Team359\Object_detection\Object_detection.nxc"
19	55	99		acquire __TextOutMutex
19	54	100	#line 54 "C:\Users\kjeld\Documents\GitHub\SaSeRoS-Team359\Object_detection\Object_detection.nxc"
19	55	100		mov __TextOutArgs.Location.X, __signed_stack_001Look_Back
19	54	103	#line 54 "C:\Users\kjeld\Documents\GitHub\SaSeRoS-Team359\Object_detection\Object_detection.nxc"
19	55	103		mov __TextOutArgs.Location.Y, __signed_stack_002Look_Back
19	54	106	#line 54 "C:\Users\kjeld\Documents\GitHub\SaSeRoS-Team359\Object_detection\Object_detection.nxc"
19	55	106		set __TextOutArgs.Options, 0
19	54	109	#line 54 "C:\Users\kjeld\Documents\GitHub\SaSeRoS-Team359\Object_detection\Object_detection.nxc"
19	55	109		mov __TextOutArgs.Text, __strbufLook_Back
19	54	111	#line 54 "C:\Users\kjeld\Documents\GitHub\SaSeRoS-Team359\Object_detection\Object_detection.nxc"
19	55	111		syscall 13, __TextOutArgs
19	54	114	#line 54 "C:\Users\kjeld\Documents\GitHub\SaSeRoS-Team359\Object_detection\Object_detection.nxc"
19	55	114		mov __D0Look_Back, __TextOutArgs.Result
19	54	117	#line 54 "C:\Users\kjeld\Documents\GitHub\SaSeRoS-Team359\Object_detection\Object_detection.nxc"
19	55	117		release __TextOutMutex
19	54	118	#line 54 "C:\Users\kjeld\Documents\GitHub\SaSeRoS-Team359\Object_detection\Object_detection.nxc"
19	56	118	#line 56 "C:\Users\kjeld\Documents\GitHub\SaSeRoS-Team359\Object_detection\Object_detection.nxc"
19	58	118	#line 58 "C:\Users\kjeld\Documents\GitHub\SaSeRoS-Team359\Object_detection\Object_detection.nxc"
19	59	118		jmp __NXC_Label_798
19	58	120	#line 58 "C:\Users\kjeld\Documents\GitHub\SaSeRoS-Team359\Object_detection\Object_detection.nxc"
19	59	120		exit -1, -1
20	59	0	#line 59 "C:\Users\kjeld\Documents\GitHub\SaSeRoS-Team359\Object_detection\Object_detection.nxc"
20	59	0	#line 59 "C:\Users\kjeld\Documents\GitHub\SaSeRoS-Team359\Object_detection\Object_detection.nxc"
20	60	0		not __DU0Object_Detection, stuck
20	60	3	#line 60 "C:\Users\kjeld\Documents\GitHub\SaSeRoS-Team359\Object_detection\Object_detection.nxc"
20	61	3		tst 5, __zfObject_Detection, __DU0Object_Detection
20	60	6	#line 60 "C:\Users\kjeld\Documents\GitHub\SaSeRoS-Team359\Object_detection\Object_detection.nxc"
20	61	6		brtst 4, __NXC_Label_812, __zfObject_Detection
20	60	9	#line 60 "C:\Users\kjeld\Documents\GitHub\SaSeRoS-Team359\Object_detection\Object_detection.nxc"
20	61	9	#pragma macro 26
20	61	9		acquire __RLSBmutex3
20	61	10		mov __RLSReadBuf3, __RLSBbufLSWrite1
20	61	12		set __RLSBytesCount3, 1
20	61	15		wait2 NA, __constVal15
20	61	18		subcall __ReadLSBytes3, ____ReadLSBytes3_return
20	61	21		index __D0Object_Detection, __RLSReadBuf3, 65535
20	61	25		release __RLSBmutex3
20	7521	26	#line 7521 "C:\Users\kjeld\Documents\GitHub\SaSeRoS-Team359\Object_detection\Object_detection.nxc"
20	60	26	#line 60 "C:\Users\kjeld\Documents\GitHub\SaSeRoS-Team359\Object_detection\Object_detection.nxc"
20	61	26		mov __signed_stack_001Object_Detection, __D0Object_Detection
20	60	28	#line 60 "C:\Users\kjeld\Documents\GitHub\SaSeRoS-Team359\Object_detection\Object_detection.nxc"
20	61	28		set __D0Object_Detection, 30
20	60	31	#line 60 "C:\Users\kjeld\Documents\GitHub\SaSeRoS-Team359\Object_detection\Object_detection.nxc"
20	61	31		cmp 0, __zfObject_Detection, __signed_stack_001Object_Detection, __D0Object_Detection
20	60	35	#line 60 "C:\Users\kjeld\Documents\GitHub\SaSeRoS-Team359\Object_detection\Object_detection.nxc"
20	61	35		mov __D0Object_Detection, __zfObject_Detection
20	61	38	#line 61 "C:\Users\kjeld\Documents\GitHub\SaSeRoS-Team359\Object_detection\Object_detection.nxc"
20	62	38		brtst 4, __NXC_Label_817, __zfObject_Detection
20	62	41	#line 62 "C:\Users\kjeld\Documents\GitHub\SaSeRoS-Team359\Object_detection\Object_detection.nxc"
20	63	41		subcall Stop_Driving, __Stop_Driving_return
20	62	43	#line 62 "C:\Users\kjeld\Documents\GitHub\SaSeRoS-Team359\Object_detection\Object_detection.nxc"
20	63	43	#line 63 "C:\Users\kjeld\Documents\GitHub\SaSeRoS-Team359\Object_detection\Object_detection.nxc"
20	64	43		subcall UltrasonicScan, __UltrasonicScan_return
20	63	45	#line 63 "C:\Users\kjeld\Documents\GitHub\SaSeRoS-Team359\Object_detection\Object_detection.nxc"
20	64	45		mov angle, __D0UltrasonicScan
20	63	47	#line 63 "C:\Users\kjeld\Documents\GitHub\SaSeRoS-Team359\Object_detection\Object_detection.nxc"
20	63	47	#line 63 "C:\Users\kjeld\Documents\GitHub\SaSeRoS-Team359\Object_detection\Object_detection.nxc"
20	63	47	#line 63 "C:\Users\kjeld\Documents\GitHub\SaSeRoS-Team359\Object_detection\Object_detection.nxc"
20	64	47		mov __TurnRobot_7qG2_deg_7qG2_000, __D0UltrasonicScan
20	63	49	#line 63 "C:\Users\kjeld\Documents\GitHub\SaSeRoS-Team359\Object_detection\Object_detection.nxc"
20	63	49	#line 63 "C:\Users\kjeld\Documents\GitHub\SaSeRoS-Team359\Object_detection\Object_detection.nxc"
20	64	49		set __TurnRobot_7qG2_pwr_7qG2_000, 50
20	63	52	#line 63 "C:\Users\kjeld\Documents\GitHub\SaSeRoS-Team359\Object_detection\Object_detection.nxc"
20	64	52	#line 64 "C:\Users\kjeld\Documents\GitHub\SaSeRoS-Team359\Object_detection\Object_detection.nxc"
20	65	52		subcall TurnRobot, __TurnRobot_return
20	64	54	#line 64 "C:\Users\kjeld\Documents\GitHub\SaSeRoS-Team359\Object_detection\Object_detection.nxc"
20	64	54	#line 64 "C:\Users\kjeld\Documents\GitHub\SaSeRoS-Team359\Object_detection\Object_detection.nxc"
20	65	54		set __Drive_Forward_7qG2_pwr_7qG2_000, 50
20	64	57	#line 64 "C:\Users\kjeld\Documents\GitHub\SaSeRoS-Team359\Object_detection\Object_detection.nxc"
20	65	57	#line 65 "C:\Users\kjeld\Documents\GitHub\SaSeRoS-Team359\Object_detection\Object_detection.nxc"
20	66	57		subcall Drive_Forward, __Drive_Forward_return
20	65	59	#line 65 "C:\Users\kjeld\Documents\GitHub\SaSeRoS-Team359\Object_detection\Object_detection.nxc"
20	66	59	#line 66 "C:\Users\kjeld\Documents\GitHub\SaSeRoS-Team359\Object_detection\Object_detection.nxc"
20	67	59		subcall ShortBeep, __ShortBeep_return
20	66	61	#line 66 "C:\Users\kjeld\Documents\GitHub\SaSeRoS-Team359\Object_detection\Object_detection.nxc"
20	67	61	#line 67 "C:\Users\kjeld\Documents\GitHub\SaSeRoS-Team359\Object_detection\Object_detection.nxc"
20	67	61	#line 67 "C:\Users\kjeld\Documents\GitHub\SaSeRoS-Team359\Object_detection\Object_detection.nxc"
20	68	61		getin __D0Object_Detection, __constVal0, 4
20	67	65	#line 67 "C:\Users\kjeld\Documents\GitHub\SaSeRoS-Team359\Object_detection\Object_detection.nxc"
20	68	65		not __D0Object_Detection, __D0Object_Detection
20	68	68	#line 68 "C:\Users\kjeld\Documents\GitHub\SaSeRoS-Team359\Object_detection\Object_detection.nxc"
20	69	68		tst 5, __zfObject_Detection, __D0Object_Detection
20	68	71	#line 68 "C:\Users\kjeld\Documents\GitHub\SaSeRoS-Team359\Object_detection\Object_detection.nxc"
20	69	71		brtst 4, __NXC_Label_828, __zfObject_Detection
20	69	74	#line 69 "C:\Users\kjeld\Documents\GitHub\SaSeRoS-Team359\Object_detection\Object_detection.nxc"
20	70	74		subcall Stop_Driving, __Stop_Driving_return
20	69	76	#line 69 "C:\Users\kjeld\Documents\GitHub\SaSeRoS-Team359\Object_detection\Object_detection.nxc"
20	70	76	#line 70 "C:\Users\kjeld\Documents\GitHub\SaSeRoS-Team359\Object_detection\Object_detection.nxc"
20	71	76		set reverse, 1
20	70	79	#line 70 "C:\Users\kjeld\Documents\GitHub\SaSeRoS-Team359\Object_detection\Object_detection.nxc"
20	70	79	#line 70 "C:\Users\kjeld\Documents\GitHub\SaSeRoS-Team359\Object_detection\Object_detection.nxc"
20	70	79	#line 70 "C:\Users\kjeld\Documents\GitHub\SaSeRoS-Team359\Object_detection\Object_detection.nxc"
20	71	79		set __Drive_Backward_7qG2_pwr_7qG2_000, 50
20	70	82	#line 70 "C:\Users\kjeld\Documents\GitHub\SaSeRoS-Team359\Object_detection\Object_detection.nxc"
20	71	82	#line 71 "C:\Users\kjeld\Documents\GitHub\SaSeRoS-Team359\Object_detection\Object_detection.nxc"
20	72	82		subcall Drive_Backward, __Drive_Backward_return
20	71	84	#line 71 "C:\Users\kjeld\Documents\GitHub\SaSeRoS-Team359\Object_detection\Object_detection.nxc"
20	71	84	#line 71 "C:\Users\kjeld\Documents\GitHub\SaSeRoS-Team359\Object_detection\Object_detection.nxc"
20	72	84		set __Wait_7qG2_ms_7qG2_000_inline_Object_Detection, 1000
20	71	87	#line 71 "C:\Users\kjeld\Documents\GitHub\SaSeRoS-Team359\Object_detection\Object_detection.nxc"
20	7921	87	#line 7921 "NXCDefs.h"
20	7922	87		wait2 NA, __Wait_7qG2_ms_7qG2_000_inline_Object_Detection
20	7921	90	#line 7921 "NXCDefs.h"
20	72	90	#line 72 "C:\Users\kjeld\Documents\GitHub\SaSeRoS-Team359\Object_detection\Object_detection.nxc"
20	73	90	#line 73 "C:\Users\kjeld\Documents\GitHub\SaSeRoS-Team359\Object_detection\Object_detection.nxc"
20	74	90		subcall Stop_Driving, __Stop_Driving_return
20	73	92	#line 73 "C:\Users\kjeld\Documents\GitHub\SaSeRoS-Team359\Object_detection\Object_detection.nxc"
20	74	92	#line 74 "C:\Users\kjeld\Documents\GitHub\SaSeRoS-Team359\Object_detection\Object_detection.nxc"
20	75	92		set reverse, 0
20	74	95	#line 74 "C:\Users\kjeld\Documents\GitHub\SaSeRoS-Team359\Object_detection\Object_detection.nxc"
20	74	95	#line 74 "C:\Users\kjeld\Documents\GitHub\SaSeRoS-Team359\Object_detection\Object_detection.nxc"
20	75	95	#line 75 "C:\Users\kjeld\Documents\GitHub\SaSeRoS-Team359\Object_detection\Object_detection.nxc"
20	76	95		subcall UltrasonicScan, __UltrasonicScan_return
20	75	97	#line 75 "C:\Users\kjeld\Documents\GitHub\SaSeRoS-Team359\Object_detection\Object_detection.nxc"
20	76	97		mov angle, __D0UltrasonicScan
20	75	99	#line 75 "C:\Users\kjeld\Documents\GitHub\SaSeRoS-Team359\Object_detection\Object_detection.nxc"
20	75	99	#line 75 "C:\Users\kjeld\Documents\GitHub\SaSeRoS-Team359\Object_detection\Object_detection.nxc"
20	6069	99	#line 6069 "NXCDefs.h"
20	6070	99	#pragma macro 6
20	6070	99		acquire __PointOutMutex
20	6070	100		mov __PointOutArgs.Location.X, __constVal200
20	6070	103		mov __PointOutArgs.Location.Y, __constVal200
20	6070	106		mov __PointOutArgs.Options, __constVal1
20	6070	108		syscall 14, __PointOutArgs
20	6070	111		release __PointOutMutex
20	7638	112	#line 7638 "NXCDefs.h"
20	6069	112	#line 6069 "NXCDefs.h"
20	76	112	#line 76 "C:\Users\kjeld\Documents\GitHub\SaSeRoS-Team359\Object_detection\Object_detection.nxc"
20	76	112	#line 76 "C:\Users\kjeld\Documents\GitHub\SaSeRoS-Team359\Object_detection\Object_detection.nxc"
20	77	112		set __signed_stack_001Object_Detection, 1
20	76	115	#line 76 "C:\Users\kjeld\Documents\GitHub\SaSeRoS-Team359\Object_detection\Object_detection.nxc"
20	76	115	#line 76 "C:\Users\kjeld\Documents\GitHub\SaSeRoS-Team359\Object_detection\Object_detection.nxc"
20	77	115		set __signed_stack_002Object_Detection, 1
20	76	118	#line 76 "C:\Users\kjeld\Documents\GitHub\SaSeRoS-Team359\Object_detection\Object_detection.nxc"
20	76	118	#line 76 "C:\Users\kjeld\Documents\GitHub\SaSeRoS-Team359\Object_detection\Object_detection.nxc"
20	77	118		mov __D0Object_Detection, angle
20	77	120	#line 77 "C:\Users\kjeld\Documents\GitHub\SaSeRoS-Team359\Object_detection\Object_detection.nxc"
20	78	120		acquire __TextOutMutex
20	77	121	#line 77 "C:\Users\kjeld\Documents\GitHub\SaSeRoS-Team359\Object_detection\Object_detection.nxc"
20	78	121		mov __TextOutArgs.Location.X, __signed_stack_001Object_Detection
20	77	124	#line 77 "C:\Users\kjeld\Documents\GitHub\SaSeRoS-Team359\Object_detection\Object_detection.nxc"
20	78	124		mov __TextOutArgs.Location.Y, __signed_stack_002Object_Detection
20	77	127	#line 77 "C:\Users\kjeld\Documents\GitHub\SaSeRoS-Team359\Object_detection\Object_detection.nxc"
20	78	127		set __TextOutArgs.Options, 0
20	77	130	#line 77 "C:\Users\kjeld\Documents\GitHub\SaSeRoS-Team359\Object_detection\Object_detection.nxc"
20	78	130		numtostr __TextOutArgs.Text, __D0Object_Detection
20	77	133	#line 77 "C:\Users\kjeld\Documents\GitHub\SaSeRoS-Team359\Object_detection\Object_detection.nxc"
20	78	133		syscall 13, __TextOutArgs
20	77	136	#line 77 "C:\Users\kjeld\Documents\GitHub\SaSeRoS-Team359\Object_detection\Object_detection.nxc"
20	78	136		mov __D0Object_Detection, __TextOutArgs.Result
20	77	139	#line 77 "C:\Users\kjeld\Documents\GitHub\SaSeRoS-Team359\Object_detection\Object_detection.nxc"
20	78	139		release __TextOutMutex
20	77	140	#line 77 "C:\Users\kjeld\Documents\GitHub\SaSeRoS-Team359\Object_detection\Object_detection.nxc"
20	77	140	#line 77 "C:\Users\kjeld\Documents\GitHub\SaSeRoS-Team359\Object_detection\Object_detection.nxc"
20	78	140		mov __TurnRobot_7qG2_deg_7qG2_000, angle
20	77	142	#line 77 "C:\Users\kjeld\Documents\GitHub\SaSeRoS-Team359\Object_detection\Object_detection.nxc"
20	77	142	#line 77 "C:\Users\kjeld\Documents\GitHub\SaSeRoS-Team359\Object_detection\Object_detection.nxc"
20	78	142		set __TurnRobot_7qG2_pwr_7qG2_000, 50
20	77	145	#line 77 "C:\Users\kjeld\Documents\GitHub\SaSeRoS-Team359\Object_detection\Object_detection.nxc"
20	78	145	#line 78 "C:\Users\kjeld\Documents\GitHub\SaSeRoS-Team359\Object_detection\Object_detection.nxc"
20	79	145		subcall TurnRobot, __TurnRobot_return
20	78	147	#line 78 "C:\Users\kjeld\Documents\GitHub\SaSeRoS-Team359\Object_detection\Object_detection.nxc"
20	78	147	#line 78 "C:\Users\kjeld\Documents\GitHub\SaSeRoS-Team359\Object_detection\Object_detection.nxc"
20	79	147		set __Drive_Forward_7qG2_pwr_7qG2_000, 50
20	78	150	#line 78 "C:\Users\kjeld\Documents\GitHub\SaSeRoS-Team359\Object_detection\Object_detection.nxc"
20	79	150	#line 79 "C:\Users\kjeld\Documents\GitHub\SaSeRoS-Team359\Object_detection\Object_detection.nxc"
20	80	150		subcall Drive_Forward, __Drive_Forward_return
20	79	152	#line 79 "C:\Users\kjeld\Documents\GitHub\SaSeRoS-Team359\Object_detection\Object_detection.nxc"
20	80	152	#line 80 "C:\Users\kjeld\Documents\GitHub\SaSeRoS-Team359\Object_detection\Object_detection.nxc"
20	81	152		subcall LongBeep, __LongBeep_return
20	80	154	#line 80 "C:\Users\kjeld\Documents\GitHub\SaSeRoS-Team359\Object_detection\Object_detection.nxc"
20	83	154	#line 83 "C:\Users\kjeld\Documents\GitHub\SaSeRoS-Team359\Object_detection\Object_detection.nxc"
20	85	154	#line 85 "C:\Users\kjeld\Documents\GitHub\SaSeRoS-Team359\Object_detection\Object_detection.nxc"
20	86	154		jmp __NXC_Label_811
20	85	156	#line 85 "C:\Users\kjeld\Documents\GitHub\SaSeRoS-Team359\Object_detection\Object_detection.nxc"
20	86	156		exit -1, -1
21	0	0		subret __Object_Detection_Spawner_return
22	0	0		exit 0, 1
23	0	0		subret __Look_Back_Spawner_return
24	0	0		exit 0, 1
25	94	0	#line 94 "C:\Users\kjeld\Documents\GitHub\SaSeRoS-Team359\Object_detection\Object_detection.nxc"
25	95	0		subret ____initialize_global_data_return
#CLUMPS
Clump	Name	Offset	File
0	main	0	C:\Users\kjeld\Documents\GitHub\SaSeRoS-Team359\Object_detection\Object_detection.nxc
1	__RotateMotor2	16	NXTDefs.h
2	__RotateMotor3	185	NXTDefs.h
3	__ResetSensorSubroutine	354	NXTDefs.h
4	__ReadLSBytes3	367	NXTDefs.h
5	Touch_Init	452	C:\Users\kjeld\Documents\GitHub\SaSeRoS-Team359\Object_detection\.\../basic_functions/functions.h
6	Range_Sens_Init	472	C:\Users\kjeld\Documents\GitHub\SaSeRoS-Team359\Object_detection\.\../basic_functions/functions.h
7	Light_Sens_Init	529	C:\Users\kjeld\Documents\GitHub\SaSeRoS-Team359\Object_detection\.\../basic_functions/functions.h
8	TurnMotor	586	C:\Users\kjeld\Documents\GitHub\SaSeRoS-Team359\Object_detection\.\../basic_functions/functions.h
9	TurnRobot	682	C:\Users\kjeld\Documents\GitHub\SaSeRoS-Team359\Object_detection\.\../basic_functions/functions.h
10	Stop_Driving	692	C:\Users\kjeld\Documents\GitHub\SaSeRoS-Team359\Object_detection\.\../basic_functions/functions.h
11	Drive_Forward	740	C:\Users\kjeld\Documents\GitHub\SaSeRoS-Team359\Object_detection\.\../basic_functions/functions.h
12	Drive_Backward	796	C:\Users\kjeld\Documents\GitHub\SaSeRoS-Team359\Object_detection\.\../basic_functions/functions.h
13	ShortBeep	862	C:\Users\kjeld\Documents\GitHub\SaSeRoS-Team359\Object_detection\.\../basic_functions/functions.h
14	LongBeep	896	C:\Users\kjeld\Documents\GitHub\SaSeRoS-Team359\Object_detection\.\../basic_functions/functions.h
15	initialise	930	C:\Users\kjeld\Documents\GitHub\SaSeRoS-Team359\Object_detection\.\../initialise.h
16	TurnTurret	1530	C:\Users\kjeld\Documents\GitHub\SaSeRoS-Team359\Object_detection\.\../scanner.h
17	CenterTurret	1566	C:\Users\kjeld\Documents\GitHub\SaSeRoS-Team359\Object_detection\.\../scanner.h
18	UltrasonicScan	1603	C:\Users\kjeld\Documents\GitHub\SaSeRoS-Team359\Object_detection\.\../scanner.h
19	Look_Back	1735	C:\Users\kjeld\Documents\GitHub\SaSeRoS-Team359\Object_detection\Object_detection.nxc
20	Object_Detection	1858	C:\Users\kjeld\Documents\GitHub\SaSeRoS-Team359\Object_detection\Object_detection.nxc
21	__Object_Detection_Returner	2017	C:\Users\kjeld\Documents\GitHub\SaSeRoS-Team359\Object_detection\Object_detection.nxc
22	__Object_Detection_Spawner	2019	C:\Users\kjeld\Documents\GitHub\SaSeRoS-Team359\Object_detection\Object_detection.nxc
23	__Look_Back_Returner	2022	C:\Users\kjeld\Documents\GitHub\SaSeRoS-Team359\Object_detection\Object_detection.nxc
24	__Look_Back_Spawner	2024	C:\Users\kjeld\Documents\GitHub\SaSeRoS-Team359\Object_detection\Object_detection.nxc
25	__initialize_global_data	2027	C:\Users\kjeld\Documents\GitHub\SaSeRoS-Team359\Object_detection\Object_detection.nxc
