#SYMBOLS
Index	Identifier	Type	Flag	Data	Size	RefCount
0	__constValf3P5	10	0	0	4	1
1	__signed_stack_002TurnMotor	6	1	4	4	4
2	__D0LongBeep	6	1	8	4	3
3	__D0Drive_Forward	6	1	12	4	4
4	__D0initialise	6	1	16	4	35
5	__signed_stack_003TurnMotor	6	1	20	4	4
6	__D0Look_Back	6	1	24	4	9
7	__D0Object_Detection	6	1	28	4	9
8	__DU0Object_Detection	5	1	32	4	6
9	__signed_stack_002ShortBeep	6	1	36	4	2
10	__DU0Look_Back	5	1	40	4	4
11	__signed_stack_001TurnMotor	6	1	44	4	6
12	__signed_stack_003ShortBeep	6	1	48	4	2
13	__ResetSensorMutex	9	0	52	4	4
14	__TextOutMutex	9	0	56	4	34
15	__RLSBmutex3	9	0	60	4	10
16	__CLSCSMutex3	9	0	64	4	2
17	__CLSWMutex3	9	0	68	4	2
18	__CLSRMutex3	9	0	72	4	2
19	__signed_stack_001TurnTurret	6	1	76	4	2
20	__rotate_theAngle3	5	1	80	4	2
21	__signed_stack_004TurnMotor	6	1	84	4	4
22	__D0Drive_Backward	6	1	88	4	4
23	__SPTArgsMutex	9	0	92	4	4
24	__D0CheckDirection	6	1	96	4	5
25	__DU0CheckDirection	5	1	100	4	6
26	__D0Random_Angle	6	1	104	4	5
27	__signed_stack_002initialise	6	1	108	4	22
28	__signed_stack_001LongBeep	6	1	112	4	2
29	__Wait_7qG2_ms_7qG2_000_inline_Look_Back	5	1	116	4	2
30	__signed_stack_002Look_Back	6	1	120	4	2
31	__signed_stack_001CheckDirection	6	1	124	4	2
32	__signed_stack_001initialise	6	1	128	4	26
33	__Wait_7qG2_ms_7qG2_000_inline_Object_Detection	5	1	132	4	2
34	__OnRevMutex	9	0	136	4	4
35	__signed_stack_003LongBeep	6	1	140	4	2
36	__signed_stack_001Look_Back	6	1	144	4	2
37	__rotate_angle2	6	1	148	4	5
38	__signed_stack_002LongBeep	6	1	152	4	2
39	__rotateMutex2	9	0	156	4	2
40	__Wait_7qG2_ms_7qG2_000_inline_initialise	5	1	160	4	14
41	__D0ShortBeep	6	1	164	4	3
42	__rotate_angle3	6	1	168	4	6
43	__rotate_theAngle2	5	1	172	4	2
44	__D0TurnMotor	6	1	176	4	7
45	__signed_stack_001ShortBeep	6	1	180	4	2
46	__D0TurnTurret	6	1	184	4	2
47	__D0SetSensorLowspeed_inline_SetSensorUltrasonic	6	1	188	4	3
48	__Wait_7qG2_ms_7qG2_000_inline_CheckDirection	5	1	192	4	2
49	__DU0SetSensorLowspeed_inline_SetSensorUltrasonic	5	1	196	4	2
50	__signed_stack_001Object_Detection	6	1	200	4	2
51	__D0SetSensorLight_inline_Light_Sens_Init	6	1	204	4	3
52	__DU0SetSensorLight_inline_Light_Sens_Init	5	1	208	4	2
53	__Light_Sens_Init_7qG2_Port_7qG2_000	4	1	212	2	3
54	__constVal180	4	0	214	2	1
55	__Touch_Init_7qG2_Port_7qG2_000	4	1	216	2	4
56	__Range_Sens_Init_7qG2_Port_7qG2_000	4	1	218	2	3
57	__constVal360	4	0	220	2	1
58	__TurnRobot_7qG2_pwr_7qG2_000	4	1	222	2	3
59	__rotate_OldRotCount3	4	1	224	2	2
60	__Drive_Backward_7qG2_pwr_7qG2_000	4	1	226	2	4
61	__Drive_Forward_7qG2_pwr_7qG2_000	4	1	228	2	6
62	__TurnMotor_7qG2_pwr_7qG2_000	4	1	230	2	3
63	__TurnMotor_7qG2_deg_7qG2_000	4	1	232	2	4
64	__rotate_RotCount3	4	1	234	2	4
65	__TurnRobot_7qG2_deg_7qG2_000	4	1	236	2	3
66	__CheckDirection_7qG2_dir_7qG2_000	4	1	238	2	5
67	__TurnTurret_7qG2_deg_7qG2_000	4	1	240	2	4
68	__Random_Angle_7qG2_x_7qG2_000	4	1	242	2	4
69	angle	4	1	244	2	4
70	__initialise_7qG2_Light_7qG2_000	4	1	246	2	3
71	__initialise_7qG2_Range_7qG2_000	4	1	248	2	3
72	__rotate_OldRotCount2	4	1	250	2	2
73	__rotate_RotCount2	4	1	252	2	4
74	__SetSensorType_7qG2_type_7qG2_000_inline_SetSensorLight_inline_Light_Sens_Init	1	1	254	1	2
75	__ClearLine_7qG2_line_7qG2_000_inline_initialise	1	1	255	1	14
76	__SetSensorType_7qG2_port_7qG2_000_inline_SetSensorLight_inline_Light_Sens_Init	1	1	256	1	2
77	__TurnTurret_return	1	1	257	1	5
78	__SetSensorMode_7qG2_mode_7qG2_000_inline_Range_Sens_Init	1	1	258	1	2
79	__SetSensorMode_7qG2_port_7qG2_000_inline_Range_Sens_Init	1	1	259	1	2
80	__ShortBeep_return	1	1	260	1	3
81	__Drive_Backward_return	1	1	261	1	4
82	__LongBeep_return	1	1	262	1	3
83	__ResetSensor_7qG2_port_7qG2_000_inline_SetSensorLowspeed_inline_SetSensorUltrasonic_inline_Range_Sens_Init	1	1	263	1	2
84	__initialise_return	1	1	264	1	3
85	__Light_Sens_Init_return	1	1	265	1	3
86	__Random_Angle_return	1	1	266	1	5
87	____initialize_global_data_return	1	1	267	1	3
88	__Look_Back_Spawner_return	1	1	268	1	1
89	__Object_Detection_Spawner_return	1	1	269	1	1
90	direction	1	1	270	1	6
91	__CheckDirection_return	1	1	271	1	6
92	__SetSensorLight_7qG2_bActive_7qG2_000_inline_Light_Sens_Init	1	1	272	1	2
93	__SetSensorLight_7qG2_port_7qG2_000_inline_Light_Sens_Init	1	1	273	1	4
94	reverse	1	1	274	1	5
95	stuck	1	1	275	1	3
96	__SetSensorMode_7qG2_mode_7qG2_000_inline_SetSensorLowspeed_inline_SetSensorUltrasonic_inline_Range_Sens_Init	1	1	276	1	2
97	__Touch_Init_return	1	1	277	1	4
98	__SetSensorType_7qG2_port_7qG2_000_inline_Touch_Init	1	1	278	1	2
99	__SetSensorMode_7qG2_mode_7qG2_000_inline_Light_Sens_Init	1	1	279	1	2
100	__SetSensorLowspeed_7qG2_port_7qG2_000_inline_SetSensorUltrasonic_inline_Range_Sens_Init	1	1	280	1	4
101	__Range_Sens_Init_return	1	1	281	1	3
102	__SetSensorMode_7qG2_port_7qG2_000_inline_Light_Sens_Init	1	1	282	1	2
103	__SetSensorMode_7qG2_mode_7qG2_000_inline_Touch_Init	1	1	283	1	2
104	__SetSensorMode_7qG2_mode_7qG2_000_inline_SetSensorLight_inline_Light_Sens_Init	1	1	284	1	2
105	__SetSensorMode_7qG2_port_7qG2_000_inline_Touch_Init	1	1	285	1	2
106	__ResetSensor_7qG2_port_7qG2_000_inline_SetSensorLight_inline_Light_Sens_Init	1	1	286	1	2
107	__SetSensorType_7qG2_type_7qG2_000_inline_Touch_Init	1	1	287	1	2
108	__Stop_Driving_return	1	1	288	1	7
109	__TurnRobot_return	1	1	289	1	4
110	__constVal63	2	0	290	1	6
111	__Drive_Forward_return	1	1	291	1	6
112	__SetSensorMode_7qG2_port_7qG2_000_inline_SetSensorLowspeed_inline_SetSensorUltrasonic_inline_Range_Sens_Init	1	1	292	1	2
113	__SetSensorType_7qG2_type_7qG2_000_inline_SetSensorLowspeed_inline_SetSensorUltrasonic_inline_Range_Sens_Init	1	1	293	1	2
114	__constVal96	2	0	294	1	9
115	__TurnMotor_return	1	1	295	1	3
116	__SetSensorLowspeed_7qG2_bIsPowered_7qG2_000_inline_SetSensorUltrasonic_inline_Range_Sens_Init	1	1	296	1	2
117	__SetSensorType_7qG2_port_7qG2_000_inline_SetSensorLowspeed_inline_SetSensorUltrasonic_inline_Range_Sens_Init	1	1	297	1	2
118	__SetSensorMode_7qG2_port_7qG2_000_inline_SetSensorLight_inline_Light_Sens_Init	1	1	298	1	2
119	__rotate_theRS3	1	1	299	1	3
120	__rotate_theRM3	1	1	300	1	4
121	__rotate_theRVI3	1	1	301	1	3
122	__rotate_theRVP3	1	1	302	1	3
123	__rotate_theOM3	1	1	303	1	7
124	__rotate_stop3	1	1	304	1	3
125	__rotate_sync3	1	1	305	1	3
126	__rotate_theUF3	1	1	306	1	6
127	__rotate_turnpct3	2	1	307	1	4
128	__constVal0	2	1	308	1	59
129	__constVal1	2	0	309	1	15
130	____RotateMotor2_return	1	1	310	1	3
131	__constVal50	2	0	311	1	2
132	__constVal32	2	0	312	1	27
133	__rotate_rs3	1	1	313	1	2
134	__rotate_theRVD3	1	1	314	1	3
135	__rotate_theTurnPct3	2	1	315	1	4
136	__rotate_thePower3	2	1	316	1	4
137	__rotate_theUF2	1	1	317	1	6
138	__rotate_turnpct2	2	1	318	1	3
139	__rotate_theRM2	1	1	319	1	4
140	__rotate_theOM2	1	1	320	1	7
141	__rotate_stop2	1	1	321	1	2
142	__rotate_power2	1	1	322	1	4
143	__OnRev_Tmp	2	1	323	1	4
144	__rotate_sync2	1	1	324	1	2
145	__rotate_firstPort2	1	1	325	1	5
146	__rotate_theTurnPct2	2	1	326	1	4
147	__rotate_thePower2	2	1	327	1	4
148	__rotate_firstPort3	1	1	328	1	5
149	__rotate_power3	1	1	329	1	5
150	__rotate_rs2	1	1	330	1	2
151	__rotate_theRVP2	1	1	331	1	2
152	__rotate_theRS2	1	1	332	1	3
153	__rotate_theRVD2	1	1	333	1	2
154	__rotate_theRVI2	1	1	334	1	2
155	__RLSBIterations3	1	1	335	1	4
156	__zfTurnMotor	1	1	336	1	3
157	__zfObject_Detection	1	1	337	1	11
158	__RLSBytesCount3	1	1	338	1	11
159	____ReadLSBytes3_return	1	1	339	1	7
160	__zfSetSensorLight_inline_Light_Sens_Init	1	1	340	1	2
161	__RLSBResult3	2	1	341	1	7
162	__constValNeg100	2	0	342	1	1
163	__PFTmp	1	1	343	1	1
164	__zfCheckDirection	1	1	344	1	3
165	__constVal100	2	0	345	1	2
166	__zfLook_Back	1	1	346	1	8
167	__zfinitialise	1	1	347	1	18
168	__constVal10	2	0	348	1	2
169	__constVal2	2	0	349	1	4
170	__constVal3	2	0	350	1	6
171	____RotateMotor3_sign_tmp	2	1	351	1	4
172	__ResetSensorPort	1	1	352	1	4
173	____ResetSensorSubroutine_return	1	1	353	1	4
174	__ResetSensorTmp	1	1	354	1	2
175	__zfSetSensorLowspeed_inline_SetSensorUltrasonic	1	1	355	1	2
176	__constVal15	2	0	356	1	12
177	____RotateMotor2_sign_tmp	2	1	357	1	4
178	____RotateMotor3_return	1	1	358	1	4
179	__SPTArgs	8	0	5	8	12
180	__SPTArgs.Result	2	1	360	1	12
181	__SPTArgs.Frequency	3	1	362	2	12
182	__SPTArgs.Duration	3	1	364	2	12
183	__SPTArgs.Loop	1	1	366	1	12
184	__SPTArgs.Volume	1	1	367	1	12
185	__CLSWArgs3	8	0	4	12	5
186	__CLSWArgs3.Result	2	1	368	1	5
187	__CLSWArgs3.Port	1	1	369	1	5
188	__CLSWArgs3.Buffer	7	0	370	4	5
189	__CLSWArgs3.Buffer.Buffer_type	1	0	0	1	0
190	__CLSWArgs3.ReturnLen	1	1	372	1	5
191	__CLSRArgs3	8	0	4	12	5
192	__CLSRArgs3.Result	2	1	376	1	5
193	__CLSRArgs3.Port	1	1	377	1	5
194	__CLSRArgs3.Buffer	7	0	378	4	5
195	__CLSRArgs3.Buffer.Buffer_type	1	0	0	1	0
196	__CLSRArgs3.BufferLen	1	1	380	1	5
197	__TextOutArgs	8	0	4	16	95
198	__TextOutArgs.Result	2	1	384	1	95
199	__TextOutArgs.Location	8	0	2	4	95
200	__TextOutArgs.Location.X	4	1	388	2	95
201	__TextOutArgs.Location.Y	4	1	390	2	95
202	__TextOutArgs.Text	7	0	392	4	95
203	__TextOutArgs.Text.Text_type	1	0	0	1	0
204	__TextOutArgs.Options	5	1	396	4	95
205	__RandomArgs	8	0	1	4	2
206	__RandomArgs.Result	4	1	400	2	2
207	__CLSCSArgs3	8	0	3	4	4
208	__CLSCSArgs3.Result	2	1	404	1	4
209	__CLSCSArgs3.Port	1	1	405	1	4
210	__CLSCSArgs3.BytesReady	1	1	406	1	4
211	__strbufLook_Back	7	0	408	4	2
212	__strbufLook_Back.__strbufLook_Back_type	1	0	0	1	0
213	__OUT_AB	7	0	410	4	2
214	__OUT_AB.__OUT_AB_type	1	0	0	1	0
215	__rotate_ports2	7	0	412	4	6
216	__rotate_ports2.__rotate_ports2_type	1	0	0	1	0
217	__constStr0015	7	0	414	4	1
218	__constStr0015.__constStr0015_type	1	1	0	1	0
219	__strbufinitialise	7	0	416	4	18
220	__strbufinitialise.__strbufinitialise_type	1	0	0	1	0
221	__rotate_ports3	7	0	418	4	7
222	__rotate_ports3.__rotate_ports3_type	1	0	0	1	0
223	__RLSReadBuf3	7	0	420	4	16
224	__RLSReadBuf3.__RLSReadBuf3_type	1	0	0	1	0
225	__RLSLastGoodRead3	7	0	422	4	2
226	__RLSLastGoodRead3.__RLSLastGoodRead3_type	1	0	0	1	0
227	__BlankLine	7	0	424	4	7
228	__BlankLine.__BlankLine_type	1	0	0	1	0
229	__RLSBbufLSWrite1	7	0	426	4	5
230	__RLSBbufLSWrite1.__RLSBbufLSWrite1_type	1	0	0	1	0
231	__constStr0009	7	0	428	4	1
232	__constStr0009.__constStr0009_type	1	1	0	1	0
233	__constStr0013	7	0	430	4	1
234	__constStr0013.__constStr0013_type	1	1	0	1	0
235	__constStr0014	7	0	432	4	1
236	__constStr0014.__constStr0014_type	1	1	0	1	0
237	__constStr0012	7	0	434	4	1
238	__constStr0012.__constStr0012_type	1	1	0	1	0
239	__constStr0010	7	0	436	4	4
240	__constStr0010.__constStr0010_type	1	1	0	1	0
241	__constStr0011	7	0	438	4	1
242	__constStr0011.__constStr0011_type	1	1	0	1	0
#SOURCES
Clump	Line	PC	Source
0	37	0	#line 37 "C:\Users\kjeld\Documents\GitHub\SaSeRoS-Team359\Object_detection\Object_detection.nxc"
0	38	0		subcall __initialize_global_data, ____initialize_global_data_return
0	37	2	#line 37 "C:\Users\kjeld\Documents\GitHub\SaSeRoS-Team359\Object_detection\Object_detection.nxc"
0	38	2	#line 38 "C:\Users\kjeld\Documents\GitHub\SaSeRoS-Team359\Object_detection\Object_detection.nxc"
0	39	2		subcall initialise, __initialise_return
0	38	4	#line 38 "C:\Users\kjeld\Documents\GitHub\SaSeRoS-Team359\Object_detection\Object_detection.nxc"
0	38	4	#line 38 "C:\Users\kjeld\Documents\GitHub\SaSeRoS-Team359\Object_detection\Object_detection.nxc"
0	39	4		set __Drive_Forward_7qG2_pwr_7qG2_000, 50
0	38	7	#line 38 "C:\Users\kjeld\Documents\GitHub\SaSeRoS-Team359\Object_detection\Object_detection.nxc"
0	39	7	#line 39 "C:\Users\kjeld\Documents\GitHub\SaSeRoS-Team359\Object_detection\Object_detection.nxc"
0	40	7		subcall Drive_Forward, __Drive_Forward_return
0	39	9	#line 39 "C:\Users\kjeld\Documents\GitHub\SaSeRoS-Team359\Object_detection\Object_detection.nxc"
0	41	9	#line 41 "C:\Users\kjeld\Documents\GitHub\SaSeRoS-Team359\Object_detection\Object_detection.nxc"
0	42	9		subcall __Object_Detection_Spawner, __Object_Detection_Spawner_return
0	41	11	#line 41 "C:\Users\kjeld\Documents\GitHub\SaSeRoS-Team359\Object_detection\Object_detection.nxc"
0	42	11	#line 42 "C:\Users\kjeld\Documents\GitHub\SaSeRoS-Team359\Object_detection\Object_detection.nxc"
0	43	11		subcall __Look_Back_Spawner, __Look_Back_Spawner_return
0	42	13	#line 42 "C:\Users\kjeld\Documents\GitHub\SaSeRoS-Team359\Object_detection\Object_detection.nxc"
0	43	13		exit -1, -1
1	4582	0		brtst 4, __rotate_Done2, __rotate_angle2
1	4583	3		set ____RotateMotor2_sign_tmp, 0
1	4583	6		brtst EQ, __sign_2, __rotate_angle2
1	4583	9		set ____RotateMotor2_sign_tmp, -1
1	4583	12		brtst LT, __sign_2, __rotate_angle2
1	4583	15		set ____RotateMotor2_sign_tmp, 1
1	4583	18	__sign_2:	mov __rotate_thePower2, ____RotateMotor2_sign_tmp
1	4584	20		abs __rotate_theAngle2, __rotate_angle2
1	4585	23		mul __rotate_thePower2, __rotate_thePower2, __rotate_power2
1	4587	27		set __rotate_theUF2, 23
1	4588	30		brtst 4, __rotate_NoSync2, __rotate_sync2
1	4589	33		set __rotate_theOM2, 7
1	4590	36		set __rotate_theRM2, 2
1	4591	39		mov __rotate_theTurnPct2, __rotate_turnpct2
1	4592	41		brtst 4, __rotate_Start2, __rotate_theTurnPct2
1	4593	44		add __rotate_theUF2, __rotate_theUF2, __constVal32
1	4594	48		jmp __rotate_Start2
1	4596	50		set __rotate_theOM2, 3
1	4597	53		set __rotate_theRM2, 0
1	4598	56		set __rotate_theTurnPct2, 0
1	4600	59		set __rotate_theRS2, 32
1	4601	62		setout __rotate_ports2, 1, __rotate_theOM2, 8, __rotate_theRM2, 5, __rotate_theAngle2, 6, __rotate_theRS2, 10, __rotate_theRVP2, 11, __rotate_theRVI2, 12, __rotate_theRVD2, 2, __rotate_thePower2, 7, __rotate_turnpct2, 0, __rotate_theUF2
1	4604	85		index __rotate_firstPort2, __rotate_ports2, 65535
1	4606	89		getout __rotate_power2, __rotate_firstPort2, 2
1	4607	93		brtst 4, __rotate_doneRunning2, __rotate_power2
1	4608	96		getout __rotate_rs2, __rotate_firstPort2, 6
1	4609	100		brcmp 4, __rotate_Running2, __rotate_rs2, __constVal32
1	4611	104		brtst 4, __rotate_Reset2, __rotate_stop2
1	4613	107		set __rotate_theOM2, 7
1	4614	110		set __rotate_theUF2, 7
1	4615	113		setout __rotate_ports2, 1, __rotate_theOM2, 8, __constVal1, 6, __rotate_theRS2, 2, __constVal0, 5, __constVal0, 0, __rotate_theUF2
1	4617	128		getout __rotate_RotCount2, __rotate_firstPort2, 14
1	4619	132		mov __rotate_OldRotCount2, __rotate_RotCount2
1	4620	134		wait2 NA, __constVal50
1	4622	137		getout __rotate_RotCount2, __rotate_firstPort2, 14
1	4623	141		brcmp 5, __rotate_Stabilize2, __rotate_OldRotCount2, __rotate_RotCount2
1	4624	145		set __rotate_theOM2, 4
1	4625	148		setout __rotate_ports2, 8, __rotate_theRM2, 6, __constVal0, 1, __rotate_theOM2, 0, __constVal1
1	4628	159		brtst 4, __rotate_Done2, __rotate_theTurnPct2
1	4629	162		setout __rotate_ports2, 0, __constVal32
1	4631	167		subret ____RotateMotor2_return
2	4635	0		brtst 4, __rotate_Done3, __rotate_angle3
2	4636	3		set ____RotateMotor3_sign_tmp, 0
2	4636	6		brtst EQ, __sign_3, __rotate_angle3
2	4636	9		set ____RotateMotor3_sign_tmp, -1
2	4636	12		brtst LT, __sign_3, __rotate_angle3
2	4636	15		set ____RotateMotor3_sign_tmp, 1
2	4636	18	__sign_3:	mov __rotate_thePower3, ____RotateMotor3_sign_tmp
2	4637	20		abs __rotate_theAngle3, __rotate_angle3
2	4638	23		mul __rotate_thePower3, __rotate_thePower3, __rotate_power3
2	4640	27		set __rotate_theUF3, 23
2	4641	30		brtst 4, __rotate_NoSync3, __rotate_sync3
2	4642	33		set __rotate_theOM3, 7
2	4643	36		set __rotate_theRM3, 2
2	4644	39		mov __rotate_theTurnPct3, __rotate_turnpct3
2	4645	41		brtst 4, __rotate_Start3, __rotate_theTurnPct3
2	4646	44		add __rotate_theUF3, __rotate_theUF3, __constVal32
2	4647	48		jmp __rotate_Start3
2	4649	50		set __rotate_theOM3, 3
2	4650	53		set __rotate_theRM3, 0
2	4651	56		set __rotate_theTurnPct3, 0
2	4653	59		set __rotate_theRS3, 32
2	4654	62		setout __rotate_ports3, 1, __rotate_theOM3, 8, __rotate_theRM3, 5, __rotate_theAngle3, 6, __rotate_theRS3, 10, __rotate_theRVP3, 11, __rotate_theRVI3, 12, __rotate_theRVD3, 2, __rotate_thePower3, 7, __rotate_turnpct3, 0, __rotate_theUF3
2	4657	85		index __rotate_firstPort3, __rotate_ports3, 65535
2	4659	89		getout __rotate_power3, __rotate_firstPort3, 2
2	4660	93		brtst 4, __rotate_doneRunning3, __rotate_power3
2	4661	96		getout __rotate_rs3, __rotate_firstPort3, 6
2	4662	100		brcmp 4, __rotate_Running3, __rotate_rs3, __constVal32
2	4664	104		brtst 4, __rotate_Reset3, __rotate_stop3
2	4666	107		set __rotate_theOM3, 7
2	4667	110		set __rotate_theUF3, 7
2	4668	113		setout __rotate_ports3, 1, __rotate_theOM3, 8, __constVal1, 6, __rotate_theRS3, 2, __constVal0, 5, __constVal0, 0, __rotate_theUF3
2	4670	128		getout __rotate_RotCount3, __rotate_firstPort3, 14
2	4672	132		mov __rotate_OldRotCount3, __rotate_RotCount3
2	4673	134		wait2 NA, __constVal50
2	4675	137		getout __rotate_RotCount3, __rotate_firstPort3, 14
2	4676	141		brcmp 5, __rotate_Stabilize3, __rotate_OldRotCount3, __rotate_RotCount3
2	4677	145		set __rotate_theOM3, 4
2	4678	148		setout __rotate_ports3, 8, __rotate_theRM3, 6, __constVal0, 1, __rotate_theOM3, 0, __constVal1
2	4681	159		brtst 4, __rotate_Done3, __rotate_theTurnPct3
2	4682	162		setout __rotate_ports3, 0, __constVal32
2	4684	167		subret ____RotateMotor3_return
3	4885	0		setin __constVal1, __ResetSensorPort, 5
3	4887	4		getin __ResetSensorTmp, __ResetSensorPort, 5
3	4888	8		brtst 5, __SensorStillInvalid, __ResetSensorTmp
3	4889	11		subret ____ResetSensorSubroutine_return
4	5784	0	#pragma macro 25
4	5784	0		acquire __CLSWMutex3
4	5784	1		set __CLSWArgs3.Port, 3
4	5784	4		mov __CLSWArgs3.ReturnLen, __RLSBytesCount3
4	5784	6		mov __CLSWArgs3.Buffer, __RLSReadBuf3
4	5784	8		syscall 21, __CLSWArgs3
4	5784	11		mov __RLSBResult3, __CLSWArgs3.Result
4	5784	13		release __CLSWMutex3
4	5784	14	#line 5784 "NXTDefs.h"
4	5785	14		brtst 4, __RLSBReturn3, __RLSBytesCount3
4	5786	17		arrinit __RLSReadBuf3, __constVal0, __RLSBytesCount3
4	5787	21		brtst 5, __RLSBError3, __RLSBResult3
4	5788	24		set __RLSBIterations3, 4
4	5790	27	#pragma macro 23
4	5790	27		acquire __CLSCSMutex3
4	5790	28		set __CLSCSArgs3.Port, 3
4	5790	31		syscall 23, __CLSCSArgs3
4	5790	34		mov __RLSBytesCount3, __CLSCSArgs3.BytesReady
4	5790	36		mov __RLSBResult3, __CLSCSArgs3.Result
4	5790	38		release __CLSCSMutex3
4	5790	39	#line 5790 "NXTDefs.h"
4	5791	39		sub __RLSBIterations3, __RLSBIterations3, __constVal1
4	5792	43		brtst 2, __RLSBError3, __RLSBIterations3
4	5793	46		brtst 0, __RLSBError3, __RLSBResult3
4	5794	49		brtst 4, __RLSBReadyToRead3, __RLSBResult3
4	5796	52		wait2 NA, __constVal15
4	5797	55		jmp __RLSBDoCheckStatus3
4	5800	57	#pragma macro 25
4	5800	57		acquire __CLSRMutex3
4	5800	58		set __CLSRArgs3.Port, 3
4	5800	61		mov __CLSRArgs3.BufferLen, __RLSBytesCount3
4	5800	63		syscall 22, __CLSRArgs3
4	5800	66		mov __RLSReadBuf3, __CLSRArgs3.Buffer
4	5800	68		mov __RLSBResult3, __CLSRArgs3.Result
4	5800	70		release __CLSRMutex3
4	5800	71	#line 5800 "NXTDefs.h"
4	5801	71		brtst 5, __RLSBError3, __RLSBResult3
4	5802	74		mov __RLSLastGoodRead3, __RLSReadBuf3
4	5803	76		jmp __RLSBDone3
4	5805	78		mov __RLSReadBuf3, __RLSLastGoodRead3
4	5807	80		arrsize __RLSBytesCount3, __RLSReadBuf3
4	5809	83		subret ____ReadLSBytes3_return
5	4	0	#line 4 "C:\Users\kjeld\Documents\GitHub\SaSeRoS-Team359\Object_detection\.\../basic_functions/functions.h"
5	5	0		mov __SetSensorType_7qG2_port_7qG2_000_inline_Touch_Init, __Touch_Init_7qG2_Port_7qG2_000
5	4	2	#line 4 "C:\Users\kjeld\Documents\GitHub\SaSeRoS-Team359\Object_detection\.\../basic_functions/functions.h"
5	4	2	#line 4 "C:\Users\kjeld\Documents\GitHub\SaSeRoS-Team359\Object_detection\.\../basic_functions/functions.h"
5	5	2		set __SetSensorType_7qG2_type_7qG2_000_inline_Touch_Init, 1
5	4	5	#line 4 "C:\Users\kjeld\Documents\GitHub\SaSeRoS-Team359\Object_detection\.\../basic_functions/functions.h"
5	3663	5	#line 3663 "NXCDefs.h"
5	3664	5		setin __SetSensorType_7qG2_type_7qG2_000_inline_Touch_Init, __SetSensorType_7qG2_port_7qG2_000_inline_Touch_Init, 0
5	3663	9	#line 3663 "NXCDefs.h"
5	5	9	#line 5 "C:\Users\kjeld\Documents\GitHub\SaSeRoS-Team359\Object_detection\.\../basic_functions/functions.h"
5	5	9	#line 5 "C:\Users\kjeld\Documents\GitHub\SaSeRoS-Team359\Object_detection\.\../basic_functions/functions.h"
5	6	9		mov __SetSensorMode_7qG2_port_7qG2_000_inline_Touch_Init, __Touch_Init_7qG2_Port_7qG2_000
5	5	11	#line 5 "C:\Users\kjeld\Documents\GitHub\SaSeRoS-Team359\Object_detection\.\../basic_functions/functions.h"
5	5	11	#line 5 "C:\Users\kjeld\Documents\GitHub\SaSeRoS-Team359\Object_detection\.\../basic_functions/functions.h"
5	6	11		set __SetSensorMode_7qG2_mode_7qG2_000_inline_Touch_Init, 32
5	5	14	#line 5 "C:\Users\kjeld\Documents\GitHub\SaSeRoS-Team359\Object_detection\.\../basic_functions/functions.h"
5	3676	14	#line 3676 "NXCDefs.h"
5	3677	14		setin __SetSensorMode_7qG2_mode_7qG2_000_inline_Touch_Init, __SetSensorMode_7qG2_port_7qG2_000_inline_Touch_Init, 1
5	3676	18	#line 3676 "NXCDefs.h"
5	6	18	#line 6 "C:\Users\kjeld\Documents\GitHub\SaSeRoS-Team359\Object_detection\.\../basic_functions/functions.h"
5	8	18	#line 8 "C:\Users\kjeld\Documents\GitHub\SaSeRoS-Team359\Object_detection\.\../basic_functions/functions.h"
5	9	18		subret __Touch_Init_return
6	9	0	#line 9 "C:\Users\kjeld\Documents\GitHub\SaSeRoS-Team359\Object_detection\.\../basic_functions/functions.h"
6	9	0	#line 9 "C:\Users\kjeld\Documents\GitHub\SaSeRoS-Team359\Object_detection\.\../basic_functions/functions.h"
6	3768	0	#line 3768 "NXCDefs.h"
6	3769	0		mov __SetSensorLowspeed_7qG2_port_7qG2_000_inline_SetSensorUltrasonic_inline_Range_Sens_Init, __Range_Sens_Init_7qG2_Port_7qG2_000
6	3768	2	#line 3768 "NXCDefs.h"
6	3768	2	#line 3768 "NXCDefs.h"
6	3769	2		mov __SetSensorLowspeed_7qG2_bIsPowered_7qG2_000_inline_SetSensorUltrasonic_inline_Range_Sens_Init, __constVal1
6	3758	4	#line 3758 "NXCDefs.h"
6	3759	4		mov __SetSensorType_7qG2_port_7qG2_000_inline_SetSensorLowspeed_inline_SetSensorUltrasonic_inline_Range_Sens_Init, __SetSensorLowspeed_7qG2_port_7qG2_000_inline_SetSensorUltrasonic_inline_Range_Sens_Init
6	3758	6	#line 3758 "NXCDefs.h"
6	3758	6	#line 3758 "NXCDefs.h"
6	3759	6		mov __DU0SetSensorLowspeed_inline_SetSensorUltrasonic, __SetSensorLowspeed_7qG2_bIsPowered_7qG2_000_inline_SetSensorUltrasonic_inline_Range_Sens_Init
6	3758	8	#line 3758 "NXCDefs.h"
6	3759	8		tst 5, __zfSetSensorLowspeed_inline_SetSensorUltrasonic, __DU0SetSensorLowspeed_inline_SetSensorUltrasonic
6	3758	11	#line 3758 "NXCDefs.h"
6	3759	11		brtst 4, __001__001__NXC_Label_36, __zfSetSensorLowspeed_inline_SetSensorUltrasonic
6	3758	14	#line 3758 "NXCDefs.h"
6	3759	14		set __D0SetSensorLowspeed_inline_SetSensorUltrasonic, 11
6	3758	17	#line 3758 "NXCDefs.h"
6	3759	17		jmp __001__001__NXC_Label_37
6	3758	19	#line 3758 "NXCDefs.h"
6	3759	19		set __D0SetSensorLowspeed_inline_SetSensorUltrasonic, 10
6	3758	22	#line 3758 "NXCDefs.h"
6	3759	22		mov __SetSensorType_7qG2_type_7qG2_000_inline_SetSensorLowspeed_inline_SetSensorUltrasonic_inline_Range_Sens_Init, __D0SetSensorLowspeed_inline_SetSensorUltrasonic
6	3663	24	#line 3663 "NXCDefs.h"
6	3664	24		setin __SetSensorType_7qG2_type_7qG2_000_inline_SetSensorLowspeed_inline_SetSensorUltrasonic_inline_Range_Sens_Init, __SetSensorType_7qG2_port_7qG2_000_inline_SetSensorLowspeed_inline_SetSensorUltrasonic_inline_Range_Sens_Init, 0
6	3663	28	#line 3663 "NXCDefs.h"
6	3759	28	#line 3759 "NXCDefs.h"
6	3759	28	#line 3759 "NXCDefs.h"
6	3760	28		mov __SetSensorMode_7qG2_port_7qG2_000_inline_SetSensorLowspeed_inline_SetSensorUltrasonic_inline_Range_Sens_Init, __SetSensorLowspeed_7qG2_port_7qG2_000_inline_SetSensorUltrasonic_inline_Range_Sens_Init
6	3759	30	#line 3759 "NXCDefs.h"
6	3759	30	#line 3759 "NXCDefs.h"
6	3760	30		set __SetSensorMode_7qG2_mode_7qG2_000_inline_SetSensorLowspeed_inline_SetSensorUltrasonic_inline_Range_Sens_Init, 0
6	3759	33	#line 3759 "NXCDefs.h"
6	3676	33	#line 3676 "NXCDefs.h"
6	3677	33		setin __SetSensorMode_7qG2_mode_7qG2_000_inline_SetSensorLowspeed_inline_SetSensorUltrasonic_inline_Range_Sens_Init, __SetSensorMode_7qG2_port_7qG2_000_inline_SetSensorLowspeed_inline_SetSensorUltrasonic_inline_Range_Sens_Init, 1
6	3676	37	#line 3676 "NXCDefs.h"
6	3760	37	#line 3760 "NXCDefs.h"
6	3760	37	#line 3760 "NXCDefs.h"
6	3761	37		mov __ResetSensor_7qG2_port_7qG2_000_inline_SetSensorLowspeed_inline_SetSensorUltrasonic_inline_Range_Sens_Init, __SetSensorLowspeed_7qG2_port_7qG2_000_inline_SetSensorUltrasonic_inline_Range_Sens_Init
6	3760	39	#line 3760 "NXCDefs.h"
6	3694	39	#line 3694 "NXCDefs.h"
6	3695	39	#pragma macro 4
6	3695	39		acquire __ResetSensorMutex
6	3695	40		mov __ResetSensorPort, __ResetSensor_7qG2_port_7qG2_000_inline_SetSensorLowspeed_inline_SetSensorUltrasonic_inline_Range_Sens_Init
6	3695	42		subcall __ResetSensorSubroutine, ____ResetSensorSubroutine_return
6	3695	45		release __ResetSensorMutex
6	5558	46	#line 5558 "NXCDefs.h"
6	3694	46	#line 3694 "NXCDefs.h"
6	3761	46	#line 3761 "NXCDefs.h"
6	3768	46	#line 3768 "NXCDefs.h"
6	10	46	#line 10 "C:\Users\kjeld\Documents\GitHub\SaSeRoS-Team359\Object_detection\.\../basic_functions/functions.h"
6	10	46	#line 10 "C:\Users\kjeld\Documents\GitHub\SaSeRoS-Team359\Object_detection\.\../basic_functions/functions.h"
6	11	46		mov __SetSensorMode_7qG2_port_7qG2_000_inline_Range_Sens_Init, __Range_Sens_Init_7qG2_Port_7qG2_000
6	10	48	#line 10 "C:\Users\kjeld\Documents\GitHub\SaSeRoS-Team359\Object_detection\.\../basic_functions/functions.h"
6	10	48	#line 10 "C:\Users\kjeld\Documents\GitHub\SaSeRoS-Team359\Object_detection\.\../basic_functions/functions.h"
6	11	48		set __SetSensorMode_7qG2_mode_7qG2_000_inline_Range_Sens_Init, 0
6	10	51	#line 10 "C:\Users\kjeld\Documents\GitHub\SaSeRoS-Team359\Object_detection\.\../basic_functions/functions.h"
6	3676	51	#line 3676 "NXCDefs.h"
6	3677	51		setin __SetSensorMode_7qG2_mode_7qG2_000_inline_Range_Sens_Init, __SetSensorMode_7qG2_port_7qG2_000_inline_Range_Sens_Init, 1
6	3676	55	#line 3676 "NXCDefs.h"
6	11	55	#line 11 "C:\Users\kjeld\Documents\GitHub\SaSeRoS-Team359\Object_detection\.\../basic_functions/functions.h"
6	13	55	#line 13 "C:\Users\kjeld\Documents\GitHub\SaSeRoS-Team359\Object_detection\.\../basic_functions/functions.h"
6	14	55		subret __Range_Sens_Init_return
7	14	0	#line 14 "C:\Users\kjeld\Documents\GitHub\SaSeRoS-Team359\Object_detection\.\../basic_functions/functions.h"
7	15	0		mov __SetSensorLight_7qG2_port_7qG2_000_inline_Light_Sens_Init, __Light_Sens_Init_7qG2_Port_7qG2_000
7	14	2	#line 14 "C:\Users\kjeld\Documents\GitHub\SaSeRoS-Team359\Object_detection\.\../basic_functions/functions.h"
7	15	2	#line 15 "C:\Users\kjeld\Documents\GitHub\SaSeRoS-Team359\Object_detection\.\../basic_functions/functions.h"
7	16	2		mov __SetSensorLight_7qG2_bActive_7qG2_000_inline_Light_Sens_Init, __constVal1
7	3729	4	#line 3729 "NXCDefs.h"
7	3730	4		mov __SetSensorType_7qG2_port_7qG2_000_inline_SetSensorLight_inline_Light_Sens_Init, __SetSensorLight_7qG2_port_7qG2_000_inline_Light_Sens_Init
7	3729	6	#line 3729 "NXCDefs.h"
7	3729	6	#line 3729 "NXCDefs.h"
7	3730	6		mov __DU0SetSensorLight_inline_Light_Sens_Init, __SetSensorLight_7qG2_bActive_7qG2_000_inline_Light_Sens_Init
7	3729	8	#line 3729 "NXCDefs.h"
7	3730	8		tst 5, __zfSetSensorLight_inline_Light_Sens_Init, __DU0SetSensorLight_inline_Light_Sens_Init
7	3729	11	#line 3729 "NXCDefs.h"
7	3730	11		brtst 4, __001__NXC_Label_4, __zfSetSensorLight_inline_Light_Sens_Init
7	3729	14	#line 3729 "NXCDefs.h"
7	3730	14		set __D0SetSensorLight_inline_Light_Sens_Init, 5
7	3729	17	#line 3729 "NXCDefs.h"
7	3730	17		jmp __001__NXC_Label_5
7	3729	19	#line 3729 "NXCDefs.h"
7	3730	19		set __D0SetSensorLight_inline_Light_Sens_Init, 6
7	3729	22	#line 3729 "NXCDefs.h"
7	3730	22		mov __SetSensorType_7qG2_type_7qG2_000_inline_SetSensorLight_inline_Light_Sens_Init, __D0SetSensorLight_inline_Light_Sens_Init
7	3663	24	#line 3663 "NXCDefs.h"
7	3664	24		setin __SetSensorType_7qG2_type_7qG2_000_inline_SetSensorLight_inline_Light_Sens_Init, __SetSensorType_7qG2_port_7qG2_000_inline_SetSensorLight_inline_Light_Sens_Init, 0
7	3663	28	#line 3663 "NXCDefs.h"
7	3730	28	#line 3730 "NXCDefs.h"
7	3730	28	#line 3730 "NXCDefs.h"
7	3731	28		mov __SetSensorMode_7qG2_port_7qG2_000_inline_SetSensorLight_inline_Light_Sens_Init, __SetSensorLight_7qG2_port_7qG2_000_inline_Light_Sens_Init
7	3730	30	#line 3730 "NXCDefs.h"
7	3730	30	#line 3730 "NXCDefs.h"
7	3731	30		set __SetSensorMode_7qG2_mode_7qG2_000_inline_SetSensorLight_inline_Light_Sens_Init, 128
7	3730	33	#line 3730 "NXCDefs.h"
7	3676	33	#line 3676 "NXCDefs.h"
7	3677	33		setin __SetSensorMode_7qG2_mode_7qG2_000_inline_SetSensorLight_inline_Light_Sens_Init, __SetSensorMode_7qG2_port_7qG2_000_inline_SetSensorLight_inline_Light_Sens_Init, 1
7	3676	37	#line 3676 "NXCDefs.h"
7	3731	37	#line 3731 "NXCDefs.h"
7	3731	37	#line 3731 "NXCDefs.h"
7	3732	37		mov __ResetSensor_7qG2_port_7qG2_000_inline_SetSensorLight_inline_Light_Sens_Init, __SetSensorLight_7qG2_port_7qG2_000_inline_Light_Sens_Init
7	3731	39	#line 3731 "NXCDefs.h"
7	3694	39	#line 3694 "NXCDefs.h"
7	3695	39	#pragma macro 4
7	3695	39		acquire __ResetSensorMutex
7	3695	40		mov __ResetSensorPort, __ResetSensor_7qG2_port_7qG2_000_inline_SetSensorLight_inline_Light_Sens_Init
7	3695	42		subcall __ResetSensorSubroutine, ____ResetSensorSubroutine_return
7	3695	45		release __ResetSensorMutex
7	5687	46	#line 5687 "NXCDefs.h"
7	3694	46	#line 3694 "NXCDefs.h"
7	3732	46	#line 3732 "NXCDefs.h"
7	15	46	#line 15 "C:\Users\kjeld\Documents\GitHub\SaSeRoS-Team359\Object_detection\.\../basic_functions/functions.h"
7	15	46	#line 15 "C:\Users\kjeld\Documents\GitHub\SaSeRoS-Team359\Object_detection\.\../basic_functions/functions.h"
7	16	46		mov __SetSensorMode_7qG2_port_7qG2_000_inline_Light_Sens_Init, __Light_Sens_Init_7qG2_Port_7qG2_000
7	15	48	#line 15 "C:\Users\kjeld\Documents\GitHub\SaSeRoS-Team359\Object_detection\.\../basic_functions/functions.h"
7	15	48	#line 15 "C:\Users\kjeld\Documents\GitHub\SaSeRoS-Team359\Object_detection\.\../basic_functions/functions.h"
7	16	48		set __SetSensorMode_7qG2_mode_7qG2_000_inline_Light_Sens_Init, 0
7	15	51	#line 15 "C:\Users\kjeld\Documents\GitHub\SaSeRoS-Team359\Object_detection\.\../basic_functions/functions.h"
7	3676	51	#line 3676 "NXCDefs.h"
7	3677	51		setin __SetSensorMode_7qG2_mode_7qG2_000_inline_Light_Sens_Init, __SetSensorMode_7qG2_port_7qG2_000_inline_Light_Sens_Init, 1
7	3676	55	#line 3676 "NXCDefs.h"
7	16	55	#line 16 "C:\Users\kjeld\Documents\GitHub\SaSeRoS-Team359\Object_detection\.\../basic_functions/functions.h"
7	19	55	#line 19 "C:\Users\kjeld\Documents\GitHub\SaSeRoS-Team359\Object_detection\.\../basic_functions/functions.h"
7	20	55		subret __Light_Sens_Init_return
8	20	0	#line 20 "C:\Users\kjeld\Documents\GitHub\SaSeRoS-Team359\Object_detection\.\../basic_functions/functions.h"
8	21	0		mov __signed_stack_001TurnMotor, __TurnMotor_7qG2_deg_7qG2_000
8	20	2	#line 20 "C:\Users\kjeld\Documents\GitHub\SaSeRoS-Team359\Object_detection\.\../basic_functions/functions.h"
8	20	2	#line 20 "C:\Users\kjeld\Documents\GitHub\SaSeRoS-Team359\Object_detection\.\../basic_functions/functions.h"
8	21	2		set __D0TurnMotor, 0
8	20	5	#line 20 "C:\Users\kjeld\Documents\GitHub\SaSeRoS-Team359\Object_detection\.\../basic_functions/functions.h"
8	21	5		cmp 0, __zfTurnMotor, __signed_stack_001TurnMotor, __D0TurnMotor
8	20	9	#line 20 "C:\Users\kjeld\Documents\GitHub\SaSeRoS-Team359\Object_detection\.\../basic_functions/functions.h"
8	21	9		mov __D0TurnMotor, __zfTurnMotor
8	21	11	#line 21 "C:\Users\kjeld\Documents\GitHub\SaSeRoS-Team359\Object_detection\.\../basic_functions/functions.h"
8	22	11		brtst 4, __NXC_Label_511, __zfTurnMotor
8	21	14	#line 21 "C:\Users\kjeld\Documents\GitHub\SaSeRoS-Team359\Object_detection\.\../basic_functions/functions.h"
8	21	14	#line 21 "C:\Users\kjeld\Documents\GitHub\SaSeRoS-Team359\Object_detection\.\../basic_functions/functions.h"
8	21	14	#line 21 "C:\Users\kjeld\Documents\GitHub\SaSeRoS-Team359\Object_detection\.\../basic_functions/functions.h"
8	21	14	#line 21 "C:\Users\kjeld\Documents\GitHub\SaSeRoS-Team359\Object_detection\.\../basic_functions/functions.h"
8	22	14		sub __signed_stack_001TurnMotor, __constVal0, __TurnMotor_7qG2_pwr_7qG2_000
8	21	18	#line 21 "C:\Users\kjeld\Documents\GitHub\SaSeRoS-Team359\Object_detection\.\../basic_functions/functions.h"
8	21	18	#line 21 "C:\Users\kjeld\Documents\GitHub\SaSeRoS-Team359\Object_detection\.\../basic_functions/functions.h"
8	22	18		mov __signed_stack_002TurnMotor, __TurnMotor_7qG2_deg_7qG2_000
8	21	20	#line 21 "C:\Users\kjeld\Documents\GitHub\SaSeRoS-Team359\Object_detection\.\../basic_functions/functions.h"
8	21	20	#line 21 "C:\Users\kjeld\Documents\GitHub\SaSeRoS-Team359\Object_detection\.\../basic_functions/functions.h"
8	22	20		mov __signed_stack_003TurnMotor, __constValNeg100
8	21	23	#line 21 "C:\Users\kjeld\Documents\GitHub\SaSeRoS-Team359\Object_detection\.\../basic_functions/functions.h"
8	21	23	#line 21 "C:\Users\kjeld\Documents\GitHub\SaSeRoS-Team359\Object_detection\.\../basic_functions/functions.h"
8	22	23		set __signed_stack_004TurnMotor, 1
8	21	26	#line 21 "C:\Users\kjeld\Documents\GitHub\SaSeRoS-Team359\Object_detection\.\../basic_functions/functions.h"
8	21	26	#line 21 "C:\Users\kjeld\Documents\GitHub\SaSeRoS-Team359\Object_detection\.\../basic_functions/functions.h"
8	22	26		set __D0TurnMotor, 1
8	22	29	#line 22 "C:\Users\kjeld\Documents\GitHub\SaSeRoS-Team359\Object_detection\.\../basic_functions/functions.h"
8	23	29	#pragma macro 35
8	23	29		mov __rotate_ports3, __OUT_AB
8	23	31		mov __rotate_power3, __signed_stack_001TurnMotor
8	23	34		mov __rotate_angle3, __signed_stack_002TurnMotor
8	23	36		mov __rotate_turnpct3, __signed_stack_003TurnMotor
8	23	38		mov __rotate_sync3, __signed_stack_004TurnMotor
8	23	40		mov __rotate_stop3, __D0TurnMotor
8	23	42		mov __rotate_theRVP3, __constVal32
8	23	44		mov __rotate_theRVI3, __constVal0
8	23	46		mov __rotate_theRVD3, __constVal96
8	23	48		subcall __RotateMotor3, ____RotateMotor3_return
8	5777	51	#line 5777 "C:\Users\kjeld\Documents\GitHub\SaSeRoS-Team359\Object_detection\.\../basic_functions/functions.h"
8	22	51	#line 22 "C:\Users\kjeld\Documents\GitHub\SaSeRoS-Team359\Object_detection\.\../basic_functions/functions.h"
8	24	51	#line 24 "C:\Users\kjeld\Documents\GitHub\SaSeRoS-Team359\Object_detection\.\../basic_functions/functions.h"
8	25	51		jmp __NXC_Label_522
8	24	53	#line 24 "C:\Users\kjeld\Documents\GitHub\SaSeRoS-Team359\Object_detection\.\../basic_functions/functions.h"
8	24	53	#line 24 "C:\Users\kjeld\Documents\GitHub\SaSeRoS-Team359\Object_detection\.\../basic_functions/functions.h"
8	24	53	#line 24 "C:\Users\kjeld\Documents\GitHub\SaSeRoS-Team359\Object_detection\.\../basic_functions/functions.h"
8	24	53	#line 24 "C:\Users\kjeld\Documents\GitHub\SaSeRoS-Team359\Object_detection\.\../basic_functions/functions.h"
8	25	53		sub __signed_stack_001TurnMotor, __constVal0, __TurnMotor_7qG2_pwr_7qG2_000
8	24	57	#line 24 "C:\Users\kjeld\Documents\GitHub\SaSeRoS-Team359\Object_detection\.\../basic_functions/functions.h"
8	24	57	#line 24 "C:\Users\kjeld\Documents\GitHub\SaSeRoS-Team359\Object_detection\.\../basic_functions/functions.h"
8	25	57		mov __signed_stack_002TurnMotor, __TurnMotor_7qG2_deg_7qG2_000
8	24	59	#line 24 "C:\Users\kjeld\Documents\GitHub\SaSeRoS-Team359\Object_detection\.\../basic_functions/functions.h"
8	24	59	#line 24 "C:\Users\kjeld\Documents\GitHub\SaSeRoS-Team359\Object_detection\.\../basic_functions/functions.h"
8	25	59		set __signed_stack_003TurnMotor, 100
8	24	62	#line 24 "C:\Users\kjeld\Documents\GitHub\SaSeRoS-Team359\Object_detection\.\../basic_functions/functions.h"
8	24	62	#line 24 "C:\Users\kjeld\Documents\GitHub\SaSeRoS-Team359\Object_detection\.\../basic_functions/functions.h"
8	25	62		set __signed_stack_004TurnMotor, 1
8	24	65	#line 24 "C:\Users\kjeld\Documents\GitHub\SaSeRoS-Team359\Object_detection\.\../basic_functions/functions.h"
8	24	65	#line 24 "C:\Users\kjeld\Documents\GitHub\SaSeRoS-Team359\Object_detection\.\../basic_functions/functions.h"
8	25	65		set __D0TurnMotor, 1
8	25	68	#line 25 "C:\Users\kjeld\Documents\GitHub\SaSeRoS-Team359\Object_detection\.\../basic_functions/functions.h"
8	26	68	#pragma macro 35
8	26	68		mov __rotate_ports3, __OUT_AB
8	26	70		mov __rotate_power3, __signed_stack_001TurnMotor
8	26	73		mov __rotate_angle3, __signed_stack_002TurnMotor
8	26	75		mov __rotate_turnpct3, __signed_stack_003TurnMotor
8	26	77		mov __rotate_sync3, __signed_stack_004TurnMotor
8	26	79		mov __rotate_stop3, __D0TurnMotor
8	26	81		mov __rotate_theRVP3, __constVal32
8	26	83		mov __rotate_theRVI3, __constVal0
8	26	85		mov __rotate_theRVD3, __constVal96
8	26	87		subcall __RotateMotor3, ____RotateMotor3_return
8	5817	90	#line 5817 "C:\Users\kjeld\Documents\GitHub\SaSeRoS-Team359\Object_detection\.\../basic_functions/functions.h"
8	25	90	#line 25 "C:\Users\kjeld\Documents\GitHub\SaSeRoS-Team359\Object_detection\.\../basic_functions/functions.h"
8	29	90	#line 29 "C:\Users\kjeld\Documents\GitHub\SaSeRoS-Team359\Object_detection\.\../basic_functions/functions.h"
8	29	90	#line 29 "C:\Users\kjeld\Documents\GitHub\SaSeRoS-Team359\Object_detection\.\../basic_functions/functions.h"
8	30	90		subret __TurnMotor_return
9	31	0	#line 31 "C:\Users\kjeld\Documents\GitHub\SaSeRoS-Team359\Object_detection\.\../basic_functions/functions.h"
9	31	0	#line 31 "C:\Users\kjeld\Documents\GitHub\SaSeRoS-Team359\Object_detection\.\../basic_functions/functions.h"
9	31	0	#line 31 "C:\Users\kjeld\Documents\GitHub\SaSeRoS-Team359\Object_detection\.\../basic_functions/functions.h"
9	31	0	#line 31 "C:\Users\kjeld\Documents\GitHub\SaSeRoS-Team359\Object_detection\.\../basic_functions/functions.h"
9	31	0	#line 31 "C:\Users\kjeld\Documents\GitHub\SaSeRoS-Team359\Object_detection\.\../basic_functions/functions.h"
9	31	0	#line 31 "C:\Users\kjeld\Documents\GitHub\SaSeRoS-Team359\Object_detection\.\../basic_functions/functions.h"
9	32	0		mul __TurnMotor_7qG2_deg_7qG2_000, __TurnRobot_7qG2_deg_7qG2_000, __constValf3P5
9	31	4	#line 31 "C:\Users\kjeld\Documents\GitHub\SaSeRoS-Team359\Object_detection\.\../basic_functions/functions.h"
9	31	4	#line 31 "C:\Users\kjeld\Documents\GitHub\SaSeRoS-Team359\Object_detection\.\../basic_functions/functions.h"
9	32	4		mov __TurnMotor_7qG2_pwr_7qG2_000, __TurnRobot_7qG2_pwr_7qG2_000
9	31	6	#line 31 "C:\Users\kjeld\Documents\GitHub\SaSeRoS-Team359\Object_detection\.\../basic_functions/functions.h"
9	32	6	#line 32 "C:\Users\kjeld\Documents\GitHub\SaSeRoS-Team359\Object_detection\.\../basic_functions/functions.h"
9	33	6		subcall TurnMotor, __TurnMotor_return
9	32	8	#line 32 "C:\Users\kjeld\Documents\GitHub\SaSeRoS-Team359\Object_detection\.\../basic_functions/functions.h"
9	34	8	#line 34 "C:\Users\kjeld\Documents\GitHub\SaSeRoS-Team359\Object_detection\.\../basic_functions/functions.h"
9	35	8		subret __TurnRobot_return
10	36	0	#line 36 "C:\Users\kjeld\Documents\GitHub\SaSeRoS-Team359\Object_detection\.\../basic_functions/functions.h"
10	37	0	#pragma macro 7
10	37	0		setout __constVal0, 2, __constVal0, 1, __constVal3, 8, __constVal0, 6, __constVal32, 7, __constVal0, 5, __constVal0, 10, __constVal96, 11, __constVal32, 12, __constVal32, 0, __constVal63
10	5871	23	#line 5871 "C:\Users\kjeld\Documents\GitHub\SaSeRoS-Team359\Object_detection\.\../basic_functions/functions.h"
10	36	23	#line 36 "C:\Users\kjeld\Documents\GitHub\SaSeRoS-Team359\Object_detection\.\../basic_functions/functions.h"
10	37	23	#line 37 "C:\Users\kjeld\Documents\GitHub\SaSeRoS-Team359\Object_detection\.\../basic_functions/functions.h"
10	38	23	#pragma macro 7
10	38	23		setout __constVal1, 2, __constVal0, 1, __constVal3, 8, __constVal0, 6, __constVal32, 7, __constVal0, 5, __constVal0, 10, __constVal96, 11, __constVal32, 12, __constVal32, 0, __constVal63
10	5874	46	#line 5874 "C:\Users\kjeld\Documents\GitHub\SaSeRoS-Team359\Object_detection\.\../basic_functions/functions.h"
10	37	46	#line 37 "C:\Users\kjeld\Documents\GitHub\SaSeRoS-Team359\Object_detection\.\../basic_functions/functions.h"
10	39	46	#line 39 "C:\Users\kjeld\Documents\GitHub\SaSeRoS-Team359\Object_detection\.\../basic_functions/functions.h"
10	40	46		subret __Stop_Driving_return
11	40	0	#line 40 "C:\Users\kjeld\Documents\GitHub\SaSeRoS-Team359\Object_detection\.\../basic_functions/functions.h"
11	40	0	#line 40 "C:\Users\kjeld\Documents\GitHub\SaSeRoS-Team359\Object_detection\.\../basic_functions/functions.h"
11	40	0	#line 40 "C:\Users\kjeld\Documents\GitHub\SaSeRoS-Team359\Object_detection\.\../basic_functions/functions.h"
11	40	0	#line 40 "C:\Users\kjeld\Documents\GitHub\SaSeRoS-Team359\Object_detection\.\../basic_functions/functions.h"
11	41	0		sub __D0Drive_Forward, __constVal0, __Drive_Forward_7qG2_pwr_7qG2_000
11	41	4	#line 41 "C:\Users\kjeld\Documents\GitHub\SaSeRoS-Team359\Object_detection\.\../basic_functions/functions.h"
11	42	4	#pragma macro 7
11	42	4		setout __constVal0, 2, __D0Drive_Forward, 1, __constVal3, 8, __constVal0, 6, __constVal32, 7, __constVal0, 5, __constVal0, 10, __constVal96, 11, __constVal32, 12, __constVal32, 0, __constVal63
11	5896	27	#line 5896 "C:\Users\kjeld\Documents\GitHub\SaSeRoS-Team359\Object_detection\.\../basic_functions/functions.h"
11	41	27	#line 41 "C:\Users\kjeld\Documents\GitHub\SaSeRoS-Team359\Object_detection\.\../basic_functions/functions.h"
11	41	27	#line 41 "C:\Users\kjeld\Documents\GitHub\SaSeRoS-Team359\Object_detection\.\../basic_functions/functions.h"
11	41	27	#line 41 "C:\Users\kjeld\Documents\GitHub\SaSeRoS-Team359\Object_detection\.\../basic_functions/functions.h"
11	41	27	#line 41 "C:\Users\kjeld\Documents\GitHub\SaSeRoS-Team359\Object_detection\.\../basic_functions/functions.h"
11	41	27	#line 41 "C:\Users\kjeld\Documents\GitHub\SaSeRoS-Team359\Object_detection\.\../basic_functions/functions.h"
11	42	27		sub __D0Drive_Forward, __constVal0, __Drive_Forward_7qG2_pwr_7qG2_000
11	42	31	#line 42 "C:\Users\kjeld\Documents\GitHub\SaSeRoS-Team359\Object_detection\.\../basic_functions/functions.h"
11	43	31	#pragma macro 7
11	43	31		setout __constVal1, 2, __D0Drive_Forward, 1, __constVal3, 8, __constVal0, 6, __constVal32, 7, __constVal0, 5, __constVal0, 10, __constVal96, 11, __constVal32, 12, __constVal32, 0, __constVal63
11	5909	54	#line 5909 "C:\Users\kjeld\Documents\GitHub\SaSeRoS-Team359\Object_detection\.\../basic_functions/functions.h"
11	42	54	#line 42 "C:\Users\kjeld\Documents\GitHub\SaSeRoS-Team359\Object_detection\.\../basic_functions/functions.h"
11	44	54	#line 44 "C:\Users\kjeld\Documents\GitHub\SaSeRoS-Team359\Object_detection\.\../basic_functions/functions.h"
11	45	54		subret __Drive_Forward_return
12	45	0	#line 45 "C:\Users\kjeld\Documents\GitHub\SaSeRoS-Team359\Object_detection\.\../basic_functions/functions.h"
12	45	0	#line 45 "C:\Users\kjeld\Documents\GitHub\SaSeRoS-Team359\Object_detection\.\../basic_functions/functions.h"
12	45	0	#line 45 "C:\Users\kjeld\Documents\GitHub\SaSeRoS-Team359\Object_detection\.\../basic_functions/functions.h"
12	45	0	#line 45 "C:\Users\kjeld\Documents\GitHub\SaSeRoS-Team359\Object_detection\.\../basic_functions/functions.h"
12	46	0		sub __D0Drive_Backward, __constVal0, __Drive_Backward_7qG2_pwr_7qG2_000
12	46	4	#line 46 "C:\Users\kjeld\Documents\GitHub\SaSeRoS-Team359\Object_detection\.\../basic_functions/functions.h"
12	47	4	#pragma macro 10
12	47	4		acquire __OnRevMutex
12	47	5		neg __OnRev_Tmp, __D0Drive_Backward
12	47	8		setout __constVal0, 2, __OnRev_Tmp, 1, __constVal3, 8, __constVal0, 6, __constVal32, 7, __constVal0, 5, __constVal0, 10, __constVal96, 11, __constVal32, 12, __constVal32, 0, __constVal63
12	47	31		release __OnRevMutex
12	5931	32	#line 5931 "C:\Users\kjeld\Documents\GitHub\SaSeRoS-Team359\Object_detection\.\../basic_functions/functions.h"
12	46	32	#line 46 "C:\Users\kjeld\Documents\GitHub\SaSeRoS-Team359\Object_detection\.\../basic_functions/functions.h"
12	46	32	#line 46 "C:\Users\kjeld\Documents\GitHub\SaSeRoS-Team359\Object_detection\.\../basic_functions/functions.h"
12	46	32	#line 46 "C:\Users\kjeld\Documents\GitHub\SaSeRoS-Team359\Object_detection\.\../basic_functions/functions.h"
12	46	32	#line 46 "C:\Users\kjeld\Documents\GitHub\SaSeRoS-Team359\Object_detection\.\../basic_functions/functions.h"
12	46	32	#line 46 "C:\Users\kjeld\Documents\GitHub\SaSeRoS-Team359\Object_detection\.\../basic_functions/functions.h"
12	47	32		sub __D0Drive_Backward, __constVal0, __Drive_Backward_7qG2_pwr_7qG2_000
12	47	36	#line 47 "C:\Users\kjeld\Documents\GitHub\SaSeRoS-Team359\Object_detection\.\../basic_functions/functions.h"
12	48	36	#pragma macro 10
12	48	36		acquire __OnRevMutex
12	48	37		neg __OnRev_Tmp, __D0Drive_Backward
12	48	40		setout __constVal1, 2, __OnRev_Tmp, 1, __constVal3, 8, __constVal0, 6, __constVal32, 7, __constVal0, 5, __constVal0, 10, __constVal96, 11, __constVal32, 12, __constVal32, 0, __constVal63
12	48	63		release __OnRevMutex
12	5944	64	#line 5944 "C:\Users\kjeld\Documents\GitHub\SaSeRoS-Team359\Object_detection\.\../basic_functions/functions.h"
12	47	64	#line 47 "C:\Users\kjeld\Documents\GitHub\SaSeRoS-Team359\Object_detection\.\../basic_functions/functions.h"
12	49	64	#line 49 "C:\Users\kjeld\Documents\GitHub\SaSeRoS-Team359\Object_detection\.\../basic_functions/functions.h"
12	50	64		subret __Drive_Backward_return
13	50	0	#line 50 "C:\Users\kjeld\Documents\GitHub\SaSeRoS-Team359\Object_detection\.\../basic_functions/functions.h"
13	51	0		set __signed_stack_001ShortBeep, 500
13	50	3	#line 50 "C:\Users\kjeld\Documents\GitHub\SaSeRoS-Team359\Object_detection\.\../basic_functions/functions.h"
13	50	3	#line 50 "C:\Users\kjeld\Documents\GitHub\SaSeRoS-Team359\Object_detection\.\../basic_functions/functions.h"
13	51	3		set __signed_stack_002ShortBeep, 100
13	50	6	#line 50 "C:\Users\kjeld\Documents\GitHub\SaSeRoS-Team359\Object_detection\.\../basic_functions/functions.h"
13	50	6	#line 50 "C:\Users\kjeld\Documents\GitHub\SaSeRoS-Team359\Object_detection\.\../basic_functions/functions.h"
13	51	6		set __signed_stack_003ShortBeep, 4
13	50	9	#line 50 "C:\Users\kjeld\Documents\GitHub\SaSeRoS-Team359\Object_detection\.\../basic_functions/functions.h"
13	50	9	#line 50 "C:\Users\kjeld\Documents\GitHub\SaSeRoS-Team359\Object_detection\.\../basic_functions/functions.h"
13	51	9		set __D0ShortBeep, 0
13	51	12	#line 51 "C:\Users\kjeld\Documents\GitHub\SaSeRoS-Team359\Object_detection\.\../basic_functions/functions.h"
13	52	12		acquire __SPTArgsMutex
13	51	13	#line 51 "C:\Users\kjeld\Documents\GitHub\SaSeRoS-Team359\Object_detection\.\../basic_functions/functions.h"
13	52	13		mov __SPTArgs.Frequency, __signed_stack_001ShortBeep
13	51	16	#line 51 "C:\Users\kjeld\Documents\GitHub\SaSeRoS-Team359\Object_detection\.\../basic_functions/functions.h"
13	52	16		mov __SPTArgs.Duration, __signed_stack_002ShortBeep
13	51	19	#line 51 "C:\Users\kjeld\Documents\GitHub\SaSeRoS-Team359\Object_detection\.\../basic_functions/functions.h"
13	52	19		mov __SPTArgs.Volume, __signed_stack_003ShortBeep
13	51	22	#line 51 "C:\Users\kjeld\Documents\GitHub\SaSeRoS-Team359\Object_detection\.\../basic_functions/functions.h"
13	52	22		mov __SPTArgs.Loop, __D0ShortBeep
13	51	25	#line 51 "C:\Users\kjeld\Documents\GitHub\SaSeRoS-Team359\Object_detection\.\../basic_functions/functions.h"
13	52	25		syscall 10, __SPTArgs
13	51	28	#line 51 "C:\Users\kjeld\Documents\GitHub\SaSeRoS-Team359\Object_detection\.\../basic_functions/functions.h"
13	52	28		mov __D0ShortBeep, __SPTArgs.Result
13	51	31	#line 51 "C:\Users\kjeld\Documents\GitHub\SaSeRoS-Team359\Object_detection\.\../basic_functions/functions.h"
13	52	31		release __SPTArgsMutex
13	51	32	#line 51 "C:\Users\kjeld\Documents\GitHub\SaSeRoS-Team359\Object_detection\.\../basic_functions/functions.h"
13	53	32	#line 53 "C:\Users\kjeld\Documents\GitHub\SaSeRoS-Team359\Object_detection\.\../basic_functions/functions.h"
13	54	32		subret __ShortBeep_return
14	54	0	#line 54 "C:\Users\kjeld\Documents\GitHub\SaSeRoS-Team359\Object_detection\.\../basic_functions/functions.h"
14	55	0		set __signed_stack_001LongBeep, 500
14	54	3	#line 54 "C:\Users\kjeld\Documents\GitHub\SaSeRoS-Team359\Object_detection\.\../basic_functions/functions.h"
14	54	3	#line 54 "C:\Users\kjeld\Documents\GitHub\SaSeRoS-Team359\Object_detection\.\../basic_functions/functions.h"
14	55	3		set __signed_stack_002LongBeep, 1000
14	54	6	#line 54 "C:\Users\kjeld\Documents\GitHub\SaSeRoS-Team359\Object_detection\.\../basic_functions/functions.h"
14	54	6	#line 54 "C:\Users\kjeld\Documents\GitHub\SaSeRoS-Team359\Object_detection\.\../basic_functions/functions.h"
14	55	6		set __signed_stack_003LongBeep, 4
14	54	9	#line 54 "C:\Users\kjeld\Documents\GitHub\SaSeRoS-Team359\Object_detection\.\../basic_functions/functions.h"
14	54	9	#line 54 "C:\Users\kjeld\Documents\GitHub\SaSeRoS-Team359\Object_detection\.\../basic_functions/functions.h"
14	55	9		set __D0LongBeep, 0
14	55	12	#line 55 "C:\Users\kjeld\Documents\GitHub\SaSeRoS-Team359\Object_detection\.\../basic_functions/functions.h"
14	56	12		acquire __SPTArgsMutex
14	55	13	#line 55 "C:\Users\kjeld\Documents\GitHub\SaSeRoS-Team359\Object_detection\.\../basic_functions/functions.h"
14	56	13		mov __SPTArgs.Frequency, __signed_stack_001LongBeep
14	55	16	#line 55 "C:\Users\kjeld\Documents\GitHub\SaSeRoS-Team359\Object_detection\.\../basic_functions/functions.h"
14	56	16		mov __SPTArgs.Duration, __signed_stack_002LongBeep
14	55	19	#line 55 "C:\Users\kjeld\Documents\GitHub\SaSeRoS-Team359\Object_detection\.\../basic_functions/functions.h"
14	56	19		mov __SPTArgs.Volume, __signed_stack_003LongBeep
14	55	22	#line 55 "C:\Users\kjeld\Documents\GitHub\SaSeRoS-Team359\Object_detection\.\../basic_functions/functions.h"
14	56	22		mov __SPTArgs.Loop, __D0LongBeep
14	55	25	#line 55 "C:\Users\kjeld\Documents\GitHub\SaSeRoS-Team359\Object_detection\.\../basic_functions/functions.h"
14	56	25		syscall 10, __SPTArgs
14	55	28	#line 55 "C:\Users\kjeld\Documents\GitHub\SaSeRoS-Team359\Object_detection\.\../basic_functions/functions.h"
14	56	28		mov __D0LongBeep, __SPTArgs.Result
14	55	31	#line 55 "C:\Users\kjeld\Documents\GitHub\SaSeRoS-Team359\Object_detection\.\../basic_functions/functions.h"
14	56	31		release __SPTArgsMutex
14	55	32	#line 55 "C:\Users\kjeld\Documents\GitHub\SaSeRoS-Team359\Object_detection\.\../basic_functions/functions.h"
14	56	32	#line 56 "C:\Users\kjeld\Documents\GitHub\SaSeRoS-Team359\Object_detection\.\../basic_functions/functions.h"
14	57	32		subret __LongBeep_return
15	13	0	#line 13 "C:\Users\kjeld\Documents\GitHub\SaSeRoS-Team359\Object_detection\.\../initialise.h"
15	14	0		set __Touch_Init_7qG2_Port_7qG2_000, 0
15	13	3	#line 13 "C:\Users\kjeld\Documents\GitHub\SaSeRoS-Team359\Object_detection\.\../initialise.h"
15	14	3	#line 14 "C:\Users\kjeld\Documents\GitHub\SaSeRoS-Team359\Object_detection\.\../initialise.h"
15	15	3		subcall Touch_Init, __Touch_Init_return
15	14	5	#line 14 "C:\Users\kjeld\Documents\GitHub\SaSeRoS-Team359\Object_detection\.\../initialise.h"
15	14	5	#line 14 "C:\Users\kjeld\Documents\GitHub\SaSeRoS-Team359\Object_detection\.\../initialise.h"
15	15	5		set __Wait_7qG2_ms_7qG2_000_inline_initialise, 1000
15	14	8	#line 14 "C:\Users\kjeld\Documents\GitHub\SaSeRoS-Team359\Object_detection\.\../initialise.h"
15	7921	8	#line 7921 "NXCDefs.h"
15	7922	8		wait2 NA, __Wait_7qG2_ms_7qG2_000_inline_initialise
15	7921	11	#line 7921 "NXCDefs.h"
15	15	11	#line 15 "C:\Users\kjeld\Documents\GitHub\SaSeRoS-Team359\Object_detection\.\../initialise.h"
15	15	11	#line 15 "C:\Users\kjeld\Documents\GitHub\SaSeRoS-Team359\Object_detection\.\../initialise.h"
15	16	11		set __signed_stack_001initialise, 0
15	15	14	#line 15 "C:\Users\kjeld\Documents\GitHub\SaSeRoS-Team359\Object_detection\.\../initialise.h"
15	15	14	#line 15 "C:\Users\kjeld\Documents\GitHub\SaSeRoS-Team359\Object_detection\.\../initialise.h"
15	16	14		set __signed_stack_002initialise, 1
15	15	17	#line 15 "C:\Users\kjeld\Documents\GitHub\SaSeRoS-Team359\Object_detection\.\../initialise.h"
15	15	17	#line 15 "C:\Users\kjeld\Documents\GitHub\SaSeRoS-Team359\Object_detection\.\../initialise.h"
15	16	17		strcat __strbufinitialise, __constStr0009
15	16	21	#line 16 "C:\Users\kjeld\Documents\GitHub\SaSeRoS-Team359\Object_detection\.\../initialise.h"
15	17	21		acquire __TextOutMutex
15	16	22	#line 16 "C:\Users\kjeld\Documents\GitHub\SaSeRoS-Team359\Object_detection\.\../initialise.h"
15	17	22		mov __TextOutArgs.Location.X, __signed_stack_001initialise
15	16	25	#line 16 "C:\Users\kjeld\Documents\GitHub\SaSeRoS-Team359\Object_detection\.\../initialise.h"
15	17	25		mov __TextOutArgs.Location.Y, __signed_stack_002initialise
15	16	28	#line 16 "C:\Users\kjeld\Documents\GitHub\SaSeRoS-Team359\Object_detection\.\../initialise.h"
15	17	28		set __TextOutArgs.Options, 0
15	16	31	#line 16 "C:\Users\kjeld\Documents\GitHub\SaSeRoS-Team359\Object_detection\.\../initialise.h"
15	17	31		mov __TextOutArgs.Text, __strbufinitialise
15	16	33	#line 16 "C:\Users\kjeld\Documents\GitHub\SaSeRoS-Team359\Object_detection\.\../initialise.h"
15	17	33		syscall 13, __TextOutArgs
15	16	36	#line 16 "C:\Users\kjeld\Documents\GitHub\SaSeRoS-Team359\Object_detection\.\../initialise.h"
15	17	36		mov __D0initialise, __TextOutArgs.Result
15	16	39	#line 16 "C:\Users\kjeld\Documents\GitHub\SaSeRoS-Team359\Object_detection\.\../initialise.h"
15	17	39		release __TextOutMutex
15	16	40	#line 16 "C:\Users\kjeld\Documents\GitHub\SaSeRoS-Team359\Object_detection\.\../initialise.h"
15	16	40	#line 16 "C:\Users\kjeld\Documents\GitHub\SaSeRoS-Team359\Object_detection\.\../initialise.h"
15	17	40		getin __D0initialise, __constVal0, 4
15	16	44	#line 16 "C:\Users\kjeld\Documents\GitHub\SaSeRoS-Team359\Object_detection\.\../initialise.h"
15	17	44		tst 5, __zfinitialise, __D0initialise
15	16	47	#line 16 "C:\Users\kjeld\Documents\GitHub\SaSeRoS-Team359\Object_detection\.\../initialise.h"
15	17	47		brtst 4, __NXC_Label_586, __zfinitialise
15	17	50	#line 17 "C:\Users\kjeld\Documents\GitHub\SaSeRoS-Team359\Object_detection\.\../initialise.h"
15	18	50		jmp __NXC_Label_585
15	17	52	#line 17 "C:\Users\kjeld\Documents\GitHub\SaSeRoS-Team359\Object_detection\.\../initialise.h"
15	17	52	#line 17 "C:\Users\kjeld\Documents\GitHub\SaSeRoS-Team359\Object_detection\.\../initialise.h"
15	18	52		set __ClearLine_7qG2_line_7qG2_000_inline_initialise, 1
15	17	55	#line 17 "C:\Users\kjeld\Documents\GitHub\SaSeRoS-Team359\Object_detection\.\../initialise.h"
15	6076	55	#line 6076 "NXCDefs.h"
15	6077	55	#pragma macro 7
15	6077	55		acquire __TextOutMutex
15	6077	56		mov __TextOutArgs.Location.X, __constVal0
15	6077	58		mov __TextOutArgs.Location.Y, __ClearLine_7qG2_line_7qG2_000_inline_initialise
15	6077	60		mov __TextOutArgs.Options, __constVal0
15	6077	62		mov __TextOutArgs.Text, __BlankLine
15	6077	64		syscall 13, __TextOutArgs
15	6077	67		release __TextOutMutex
15	6213	68	#line 6213 "NXCDefs.h"
15	6076	68	#line 6076 "NXCDefs.h"
15	18	68	#line 18 "C:\Users\kjeld\Documents\GitHub\SaSeRoS-Team359\Object_detection\.\../initialise.h"
15	18	68	#line 18 "C:\Users\kjeld\Documents\GitHub\SaSeRoS-Team359\Object_detection\.\../initialise.h"
15	19	68		set __signed_stack_001initialise, 0
15	18	71	#line 18 "C:\Users\kjeld\Documents\GitHub\SaSeRoS-Team359\Object_detection\.\../initialise.h"
15	18	71	#line 18 "C:\Users\kjeld\Documents\GitHub\SaSeRoS-Team359\Object_detection\.\../initialise.h"
15	19	71		set __signed_stack_002initialise, 1
15	18	74	#line 18 "C:\Users\kjeld\Documents\GitHub\SaSeRoS-Team359\Object_detection\.\../initialise.h"
15	18	74	#line 18 "C:\Users\kjeld\Documents\GitHub\SaSeRoS-Team359\Object_detection\.\../initialise.h"
15	19	74		strcat __strbufinitialise, __constStr0010
15	19	78	#line 19 "C:\Users\kjeld\Documents\GitHub\SaSeRoS-Team359\Object_detection\.\../initialise.h"
15	20	78		acquire __TextOutMutex
15	19	79	#line 19 "C:\Users\kjeld\Documents\GitHub\SaSeRoS-Team359\Object_detection\.\../initialise.h"
15	20	79		mov __TextOutArgs.Location.X, __signed_stack_001initialise
15	19	82	#line 19 "C:\Users\kjeld\Documents\GitHub\SaSeRoS-Team359\Object_detection\.\../initialise.h"
15	20	82		mov __TextOutArgs.Location.Y, __signed_stack_002initialise
15	19	85	#line 19 "C:\Users\kjeld\Documents\GitHub\SaSeRoS-Team359\Object_detection\.\../initialise.h"
15	20	85		set __TextOutArgs.Options, 0
15	19	88	#line 19 "C:\Users\kjeld\Documents\GitHub\SaSeRoS-Team359\Object_detection\.\../initialise.h"
15	20	88		mov __TextOutArgs.Text, __strbufinitialise
15	19	90	#line 19 "C:\Users\kjeld\Documents\GitHub\SaSeRoS-Team359\Object_detection\.\../initialise.h"
15	20	90		syscall 13, __TextOutArgs
15	19	93	#line 19 "C:\Users\kjeld\Documents\GitHub\SaSeRoS-Team359\Object_detection\.\../initialise.h"
15	20	93		mov __D0initialise, __TextOutArgs.Result
15	19	96	#line 19 "C:\Users\kjeld\Documents\GitHub\SaSeRoS-Team359\Object_detection\.\../initialise.h"
15	20	96		release __TextOutMutex
15	19	97	#line 19 "C:\Users\kjeld\Documents\GitHub\SaSeRoS-Team359\Object_detection\.\../initialise.h"
15	19	97	#line 19 "C:\Users\kjeld\Documents\GitHub\SaSeRoS-Team359\Object_detection\.\../initialise.h"
15	20	97		set __Wait_7qG2_ms_7qG2_000_inline_initialise, 5000
15	19	100	#line 19 "C:\Users\kjeld\Documents\GitHub\SaSeRoS-Team359\Object_detection\.\../initialise.h"
15	7921	100	#line 7921 "NXCDefs.h"
15	7922	100		wait2 NA, __Wait_7qG2_ms_7qG2_000_inline_initialise
15	7921	103	#line 7921 "NXCDefs.h"
15	20	103	#line 20 "C:\Users\kjeld\Documents\GitHub\SaSeRoS-Team359\Object_detection\.\../initialise.h"
15	20	103	#line 20 "C:\Users\kjeld\Documents\GitHub\SaSeRoS-Team359\Object_detection\.\../initialise.h"
15	21	103		set __ClearLine_7qG2_line_7qG2_000_inline_initialise, 1
15	20	106	#line 20 "C:\Users\kjeld\Documents\GitHub\SaSeRoS-Team359\Object_detection\.\../initialise.h"
15	6076	106	#line 6076 "NXCDefs.h"
15	6077	106	#pragma macro 7
15	6077	106		acquire __TextOutMutex
15	6077	107		mov __TextOutArgs.Location.X, __constVal0
15	6077	109		mov __TextOutArgs.Location.Y, __ClearLine_7qG2_line_7qG2_000_inline_initialise
15	6077	111		mov __TextOutArgs.Options, __constVal0
15	6077	113		mov __TextOutArgs.Text, __BlankLine
15	6077	115		syscall 13, __TextOutArgs
15	6077	118		release __TextOutMutex
15	6264	119	#line 6264 "NXCDefs.h"
15	6076	119	#line 6076 "NXCDefs.h"
15	21	119	#line 21 "C:\Users\kjeld\Documents\GitHub\SaSeRoS-Team359\Object_detection\.\../initialise.h"
15	21	119	#line 21 "C:\Users\kjeld\Documents\GitHub\SaSeRoS-Team359\Object_detection\.\../initialise.h"
15	22	119		set __Touch_Init_7qG2_Port_7qG2_000, 2
15	21	122	#line 21 "C:\Users\kjeld\Documents\GitHub\SaSeRoS-Team359\Object_detection\.\../initialise.h"
15	22	122	#line 22 "C:\Users\kjeld\Documents\GitHub\SaSeRoS-Team359\Object_detection\.\../initialise.h"
15	23	122		subcall Touch_Init, __Touch_Init_return
15	22	124	#line 22 "C:\Users\kjeld\Documents\GitHub\SaSeRoS-Team359\Object_detection\.\../initialise.h"
15	22	124	#line 22 "C:\Users\kjeld\Documents\GitHub\SaSeRoS-Team359\Object_detection\.\../initialise.h"
15	23	124		set __Wait_7qG2_ms_7qG2_000_inline_initialise, 1000
15	22	127	#line 22 "C:\Users\kjeld\Documents\GitHub\SaSeRoS-Team359\Object_detection\.\../initialise.h"
15	7921	127	#line 7921 "NXCDefs.h"
15	7922	127		wait2 NA, __Wait_7qG2_ms_7qG2_000_inline_initialise
15	7921	130	#line 7921 "NXCDefs.h"
15	23	130	#line 23 "C:\Users\kjeld\Documents\GitHub\SaSeRoS-Team359\Object_detection\.\../initialise.h"
15	23	130	#line 23 "C:\Users\kjeld\Documents\GitHub\SaSeRoS-Team359\Object_detection\.\../initialise.h"
15	24	130		set __signed_stack_001initialise, 0
15	23	133	#line 23 "C:\Users\kjeld\Documents\GitHub\SaSeRoS-Team359\Object_detection\.\../initialise.h"
15	23	133	#line 23 "C:\Users\kjeld\Documents\GitHub\SaSeRoS-Team359\Object_detection\.\../initialise.h"
15	24	133		set __signed_stack_002initialise, 1
15	23	136	#line 23 "C:\Users\kjeld\Documents\GitHub\SaSeRoS-Team359\Object_detection\.\../initialise.h"
15	23	136	#line 23 "C:\Users\kjeld\Documents\GitHub\SaSeRoS-Team359\Object_detection\.\../initialise.h"
15	24	136		strcat __strbufinitialise, __constStr0011
15	24	140	#line 24 "C:\Users\kjeld\Documents\GitHub\SaSeRoS-Team359\Object_detection\.\../initialise.h"
15	25	140		acquire __TextOutMutex
15	24	141	#line 24 "C:\Users\kjeld\Documents\GitHub\SaSeRoS-Team359\Object_detection\.\../initialise.h"
15	25	141		mov __TextOutArgs.Location.X, __signed_stack_001initialise
15	24	144	#line 24 "C:\Users\kjeld\Documents\GitHub\SaSeRoS-Team359\Object_detection\.\../initialise.h"
15	25	144		mov __TextOutArgs.Location.Y, __signed_stack_002initialise
15	24	147	#line 24 "C:\Users\kjeld\Documents\GitHub\SaSeRoS-Team359\Object_detection\.\../initialise.h"
15	25	147		set __TextOutArgs.Options, 0
15	24	150	#line 24 "C:\Users\kjeld\Documents\GitHub\SaSeRoS-Team359\Object_detection\.\../initialise.h"
15	25	150		mov __TextOutArgs.Text, __strbufinitialise
15	24	152	#line 24 "C:\Users\kjeld\Documents\GitHub\SaSeRoS-Team359\Object_detection\.\../initialise.h"
15	25	152		syscall 13, __TextOutArgs
15	24	155	#line 24 "C:\Users\kjeld\Documents\GitHub\SaSeRoS-Team359\Object_detection\.\../initialise.h"
15	25	155		mov __D0initialise, __TextOutArgs.Result
15	24	158	#line 24 "C:\Users\kjeld\Documents\GitHub\SaSeRoS-Team359\Object_detection\.\../initialise.h"
15	25	158		release __TextOutMutex
15	24	159	#line 24 "C:\Users\kjeld\Documents\GitHub\SaSeRoS-Team359\Object_detection\.\../initialise.h"
15	24	159	#line 24 "C:\Users\kjeld\Documents\GitHub\SaSeRoS-Team359\Object_detection\.\../initialise.h"
15	25	159		getin __D0initialise, __constVal2, 4
15	24	163	#line 24 "C:\Users\kjeld\Documents\GitHub\SaSeRoS-Team359\Object_detection\.\../initialise.h"
15	25	163		tst 5, __zfinitialise, __D0initialise
15	24	166	#line 24 "C:\Users\kjeld\Documents\GitHub\SaSeRoS-Team359\Object_detection\.\../initialise.h"
15	25	166		brtst 4, __NXC_Label_608, __zfinitialise
15	25	169	#line 25 "C:\Users\kjeld\Documents\GitHub\SaSeRoS-Team359\Object_detection\.\../initialise.h"
15	26	169		jmp __NXC_Label_607
15	25	171	#line 25 "C:\Users\kjeld\Documents\GitHub\SaSeRoS-Team359\Object_detection\.\../initialise.h"
15	25	171	#line 25 "C:\Users\kjeld\Documents\GitHub\SaSeRoS-Team359\Object_detection\.\../initialise.h"
15	26	171		set __ClearLine_7qG2_line_7qG2_000_inline_initialise, 1
15	25	174	#line 25 "C:\Users\kjeld\Documents\GitHub\SaSeRoS-Team359\Object_detection\.\../initialise.h"
15	6076	174	#line 6076 "NXCDefs.h"
15	6077	174	#pragma macro 7
15	6077	174		acquire __TextOutMutex
15	6077	175		mov __TextOutArgs.Location.X, __constVal0
15	6077	177		mov __TextOutArgs.Location.Y, __ClearLine_7qG2_line_7qG2_000_inline_initialise
15	6077	179		mov __TextOutArgs.Options, __constVal0
15	6077	181		mov __TextOutArgs.Text, __BlankLine
15	6077	183		syscall 13, __TextOutArgs
15	6077	186		release __TextOutMutex
15	6337	187	#line 6337 "NXCDefs.h"
15	6076	187	#line 6076 "NXCDefs.h"
15	26	187	#line 26 "C:\Users\kjeld\Documents\GitHub\SaSeRoS-Team359\Object_detection\.\../initialise.h"
15	26	187	#line 26 "C:\Users\kjeld\Documents\GitHub\SaSeRoS-Team359\Object_detection\.\../initialise.h"
15	27	187		set __signed_stack_001initialise, 0
15	26	190	#line 26 "C:\Users\kjeld\Documents\GitHub\SaSeRoS-Team359\Object_detection\.\../initialise.h"
15	26	190	#line 26 "C:\Users\kjeld\Documents\GitHub\SaSeRoS-Team359\Object_detection\.\../initialise.h"
15	27	190		set __signed_stack_002initialise, 1
15	26	193	#line 26 "C:\Users\kjeld\Documents\GitHub\SaSeRoS-Team359\Object_detection\.\../initialise.h"
15	26	193	#line 26 "C:\Users\kjeld\Documents\GitHub\SaSeRoS-Team359\Object_detection\.\../initialise.h"
15	27	193		strcat __strbufinitialise, __constStr0010
15	27	197	#line 27 "C:\Users\kjeld\Documents\GitHub\SaSeRoS-Team359\Object_detection\.\../initialise.h"
15	28	197		acquire __TextOutMutex
15	27	198	#line 27 "C:\Users\kjeld\Documents\GitHub\SaSeRoS-Team359\Object_detection\.\../initialise.h"
15	28	198		mov __TextOutArgs.Location.X, __signed_stack_001initialise
15	27	201	#line 27 "C:\Users\kjeld\Documents\GitHub\SaSeRoS-Team359\Object_detection\.\../initialise.h"
15	28	201		mov __TextOutArgs.Location.Y, __signed_stack_002initialise
15	27	204	#line 27 "C:\Users\kjeld\Documents\GitHub\SaSeRoS-Team359\Object_detection\.\../initialise.h"
15	28	204		set __TextOutArgs.Options, 0
15	27	207	#line 27 "C:\Users\kjeld\Documents\GitHub\SaSeRoS-Team359\Object_detection\.\../initialise.h"
15	28	207		mov __TextOutArgs.Text, __strbufinitialise
15	27	209	#line 27 "C:\Users\kjeld\Documents\GitHub\SaSeRoS-Team359\Object_detection\.\../initialise.h"
15	28	209		syscall 13, __TextOutArgs
15	27	212	#line 27 "C:\Users\kjeld\Documents\GitHub\SaSeRoS-Team359\Object_detection\.\../initialise.h"
15	28	212		mov __D0initialise, __TextOutArgs.Result
15	27	215	#line 27 "C:\Users\kjeld\Documents\GitHub\SaSeRoS-Team359\Object_detection\.\../initialise.h"
15	28	215		release __TextOutMutex
15	27	216	#line 27 "C:\Users\kjeld\Documents\GitHub\SaSeRoS-Team359\Object_detection\.\../initialise.h"
15	27	216	#line 27 "C:\Users\kjeld\Documents\GitHub\SaSeRoS-Team359\Object_detection\.\../initialise.h"
15	28	216		set __Range_Sens_Init_7qG2_Port_7qG2_000, 3
15	27	219	#line 27 "C:\Users\kjeld\Documents\GitHub\SaSeRoS-Team359\Object_detection\.\../initialise.h"
15	28	219	#line 28 "C:\Users\kjeld\Documents\GitHub\SaSeRoS-Team359\Object_detection\.\../initialise.h"
15	29	219		subcall Range_Sens_Init, __Range_Sens_Init_return
15	28	221	#line 28 "C:\Users\kjeld\Documents\GitHub\SaSeRoS-Team359\Object_detection\.\../initialise.h"
15	28	221	#line 28 "C:\Users\kjeld\Documents\GitHub\SaSeRoS-Team359\Object_detection\.\../initialise.h"
15	29	221		set __Wait_7qG2_ms_7qG2_000_inline_initialise, 1000
15	28	224	#line 28 "C:\Users\kjeld\Documents\GitHub\SaSeRoS-Team359\Object_detection\.\../initialise.h"
15	7921	224	#line 7921 "NXCDefs.h"
15	7922	224		wait2 NA, __Wait_7qG2_ms_7qG2_000_inline_initialise
15	7921	227	#line 7921 "NXCDefs.h"
15	29	227	#line 29 "C:\Users\kjeld\Documents\GitHub\SaSeRoS-Team359\Object_detection\.\../initialise.h"
15	29	227	#line 29 "C:\Users\kjeld\Documents\GitHub\SaSeRoS-Team359\Object_detection\.\../initialise.h"
15	30	227	#pragma macro 26
15	30	227		acquire __RLSBmutex3
15	30	228		mov __RLSReadBuf3, __RLSBbufLSWrite1
15	30	230		set __RLSBytesCount3, 1
15	30	233		wait2 NA, __constVal15
15	30	236		subcall __ReadLSBytes3, ____ReadLSBytes3_return
15	30	239		index __D0initialise, __RLSReadBuf3, 65535
15	30	243		release __RLSBmutex3
15	6391	244	#line 6391 "C:\Users\kjeld\Documents\GitHub\SaSeRoS-Team359\Object_detection\.\../initialise.h"
15	29	244	#line 29 "C:\Users\kjeld\Documents\GitHub\SaSeRoS-Team359\Object_detection\.\../initialise.h"
15	30	244		mov __initialise_7qG2_Range_7qG2_000, __D0initialise
15	29	246	#line 29 "C:\Users\kjeld\Documents\GitHub\SaSeRoS-Team359\Object_detection\.\../initialise.h"
15	29	246	#line 29 "C:\Users\kjeld\Documents\GitHub\SaSeRoS-Team359\Object_detection\.\../initialise.h"
15	30	246	#line 30 "C:\Users\kjeld\Documents\GitHub\SaSeRoS-Team359\Object_detection\.\../initialise.h"
15	31	246		set __ClearLine_7qG2_line_7qG2_000_inline_initialise, 1
15	30	249	#line 30 "C:\Users\kjeld\Documents\GitHub\SaSeRoS-Team359\Object_detection\.\../initialise.h"
15	6076	249	#line 6076 "NXCDefs.h"
15	6077	249	#pragma macro 7
15	6077	249		acquire __TextOutMutex
15	6077	250		mov __TextOutArgs.Location.X, __constVal0
15	6077	252		mov __TextOutArgs.Location.Y, __ClearLine_7qG2_line_7qG2_000_inline_initialise
15	6077	254		mov __TextOutArgs.Options, __constVal0
15	6077	256		mov __TextOutArgs.Text, __BlankLine
15	6077	258		syscall 13, __TextOutArgs
15	6077	261		release __TextOutMutex
15	6405	262	#line 6405 "NXCDefs.h"
15	6076	262	#line 6076 "NXCDefs.h"
15	31	262	#line 31 "C:\Users\kjeld\Documents\GitHub\SaSeRoS-Team359\Object_detection\.\../initialise.h"
15	31	262	#line 31 "C:\Users\kjeld\Documents\GitHub\SaSeRoS-Team359\Object_detection\.\../initialise.h"
15	32	262		set __signed_stack_001initialise, 0
15	31	265	#line 31 "C:\Users\kjeld\Documents\GitHub\SaSeRoS-Team359\Object_detection\.\../initialise.h"
15	31	265	#line 31 "C:\Users\kjeld\Documents\GitHub\SaSeRoS-Team359\Object_detection\.\../initialise.h"
15	32	265		set __signed_stack_002initialise, 1
15	31	268	#line 31 "C:\Users\kjeld\Documents\GitHub\SaSeRoS-Team359\Object_detection\.\../initialise.h"
15	31	268	#line 31 "C:\Users\kjeld\Documents\GitHub\SaSeRoS-Team359\Object_detection\.\../initialise.h"
15	32	268		strcat __strbufinitialise, __constStr0012
15	32	272	#line 32 "C:\Users\kjeld\Documents\GitHub\SaSeRoS-Team359\Object_detection\.\../initialise.h"
15	33	272		acquire __TextOutMutex
15	32	273	#line 32 "C:\Users\kjeld\Documents\GitHub\SaSeRoS-Team359\Object_detection\.\../initialise.h"
15	33	273		mov __TextOutArgs.Location.X, __signed_stack_001initialise
15	32	276	#line 32 "C:\Users\kjeld\Documents\GitHub\SaSeRoS-Team359\Object_detection\.\../initialise.h"
15	33	276		mov __TextOutArgs.Location.Y, __signed_stack_002initialise
15	32	279	#line 32 "C:\Users\kjeld\Documents\GitHub\SaSeRoS-Team359\Object_detection\.\../initialise.h"
15	33	279		set __TextOutArgs.Options, 0
15	32	282	#line 32 "C:\Users\kjeld\Documents\GitHub\SaSeRoS-Team359\Object_detection\.\../initialise.h"
15	33	282		mov __TextOutArgs.Text, __strbufinitialise
15	32	284	#line 32 "C:\Users\kjeld\Documents\GitHub\SaSeRoS-Team359\Object_detection\.\../initialise.h"
15	33	284		syscall 13, __TextOutArgs
15	32	287	#line 32 "C:\Users\kjeld\Documents\GitHub\SaSeRoS-Team359\Object_detection\.\../initialise.h"
15	33	287		mov __D0initialise, __TextOutArgs.Result
15	32	290	#line 32 "C:\Users\kjeld\Documents\GitHub\SaSeRoS-Team359\Object_detection\.\../initialise.h"
15	33	290		release __TextOutMutex
15	32	291	#line 32 "C:\Users\kjeld\Documents\GitHub\SaSeRoS-Team359\Object_detection\.\../initialise.h"
15	32	291	#line 32 "C:\Users\kjeld\Documents\GitHub\SaSeRoS-Team359\Object_detection\.\../initialise.h"
15	33	291	#pragma macro 26
15	33	291		acquire __RLSBmutex3
15	33	292		mov __RLSReadBuf3, __RLSBbufLSWrite1
15	33	294		set __RLSBytesCount3, 1
15	33	297		wait2 NA, __constVal15
15	33	300		subcall __ReadLSBytes3, ____ReadLSBytes3_return
15	33	303		index __D0initialise, __RLSReadBuf3, 65535
15	33	307		release __RLSBmutex3
15	6441	308	#line 6441 "C:\Users\kjeld\Documents\GitHub\SaSeRoS-Team359\Object_detection\.\../initialise.h"
15	32	308	#line 32 "C:\Users\kjeld\Documents\GitHub\SaSeRoS-Team359\Object_detection\.\../initialise.h"
15	33	308		mov __signed_stack_001initialise, __D0initialise
15	32	310	#line 32 "C:\Users\kjeld\Documents\GitHub\SaSeRoS-Team359\Object_detection\.\../initialise.h"
15	32	310	#line 32 "C:\Users\kjeld\Documents\GitHub\SaSeRoS-Team359\Object_detection\.\../initialise.h"
15	32	310	#line 32 "C:\Users\kjeld\Documents\GitHub\SaSeRoS-Team359\Object_detection\.\../initialise.h"
15	32	310	#line 32 "C:\Users\kjeld\Documents\GitHub\SaSeRoS-Team359\Object_detection\.\../initialise.h"
15	33	310		sub __D0initialise, __initialise_7qG2_Range_7qG2_000, __constVal10
15	32	314	#line 32 "C:\Users\kjeld\Documents\GitHub\SaSeRoS-Team359\Object_detection\.\../initialise.h"
15	33	314		cmp 1, __zfinitialise, __signed_stack_001initialise, __D0initialise
15	32	318	#line 32 "C:\Users\kjeld\Documents\GitHub\SaSeRoS-Team359\Object_detection\.\../initialise.h"
15	33	318		mov __D0initialise, __zfinitialise
15	32	321	#line 32 "C:\Users\kjeld\Documents\GitHub\SaSeRoS-Team359\Object_detection\.\../initialise.h"
15	33	321		brtst 4, __NXC_Label_632, __zfinitialise
15	32	324	#line 32 "C:\Users\kjeld\Documents\GitHub\SaSeRoS-Team359\Object_detection\.\../initialise.h"
15	33	324		mov __signed_stack_001initialise, __D0initialise
15	32	326	#line 32 "C:\Users\kjeld\Documents\GitHub\SaSeRoS-Team359\Object_detection\.\../initialise.h"
15	33	326	#pragma macro 26
15	33	326		acquire __RLSBmutex3
15	33	327		mov __RLSReadBuf3, __RLSBbufLSWrite1
15	33	329		set __RLSBytesCount3, 1
15	33	332		wait2 NA, __constVal15
15	33	335		subcall __ReadLSBytes3, ____ReadLSBytes3_return
15	33	338		index __D0initialise, __RLSReadBuf3, 65535
15	33	342		release __RLSBmutex3
15	6465	343	#line 6465 "C:\Users\kjeld\Documents\GitHub\SaSeRoS-Team359\Object_detection\.\../initialise.h"
15	32	343	#line 32 "C:\Users\kjeld\Documents\GitHub\SaSeRoS-Team359\Object_detection\.\../initialise.h"
15	33	343		mov __signed_stack_002initialise, __D0initialise
15	32	345	#line 32 "C:\Users\kjeld\Documents\GitHub\SaSeRoS-Team359\Object_detection\.\../initialise.h"
15	32	345	#line 32 "C:\Users\kjeld\Documents\GitHub\SaSeRoS-Team359\Object_detection\.\../initialise.h"
15	32	345	#line 32 "C:\Users\kjeld\Documents\GitHub\SaSeRoS-Team359\Object_detection\.\../initialise.h"
15	32	345	#line 32 "C:\Users\kjeld\Documents\GitHub\SaSeRoS-Team359\Object_detection\.\../initialise.h"
15	33	345		add __D0initialise, __initialise_7qG2_Range_7qG2_000, __constVal10
15	32	349	#line 32 "C:\Users\kjeld\Documents\GitHub\SaSeRoS-Team359\Object_detection\.\../initialise.h"
15	33	349		cmp 0, __zfinitialise, __signed_stack_002initialise, __D0initialise
15	32	353	#line 32 "C:\Users\kjeld\Documents\GitHub\SaSeRoS-Team359\Object_detection\.\../initialise.h"
15	32	353	#line 32 "C:\Users\kjeld\Documents\GitHub\SaSeRoS-Team359\Object_detection\.\../initialise.h"
15	33	353		and __D0initialise, __signed_stack_001initialise, __zfinitialise
15	32	357	#line 32 "C:\Users\kjeld\Documents\GitHub\SaSeRoS-Team359\Object_detection\.\../initialise.h"
15	33	357		tst 5, __zfinitialise, __D0initialise
15	32	360	#line 32 "C:\Users\kjeld\Documents\GitHub\SaSeRoS-Team359\Object_detection\.\../initialise.h"
15	33	360		brtst 4, __NXC_Label_630, __zfinitialise
15	33	363	#line 33 "C:\Users\kjeld\Documents\GitHub\SaSeRoS-Team359\Object_detection\.\../initialise.h"
15	34	363		jmp __NXC_Label_629
15	33	365	#line 33 "C:\Users\kjeld\Documents\GitHub\SaSeRoS-Team359\Object_detection\.\../initialise.h"
15	33	365	#line 33 "C:\Users\kjeld\Documents\GitHub\SaSeRoS-Team359\Object_detection\.\../initialise.h"
15	34	365		set __ClearLine_7qG2_line_7qG2_000_inline_initialise, 1
15	33	368	#line 33 "C:\Users\kjeld\Documents\GitHub\SaSeRoS-Team359\Object_detection\.\../initialise.h"
15	6076	368	#line 6076 "NXCDefs.h"
15	6077	368	#pragma macro 7
15	6077	368		acquire __TextOutMutex
15	6077	369		mov __TextOutArgs.Location.X, __constVal0
15	6077	371		mov __TextOutArgs.Location.Y, __ClearLine_7qG2_line_7qG2_000_inline_initialise
15	6077	373		mov __TextOutArgs.Options, __constVal0
15	6077	375		mov __TextOutArgs.Text, __BlankLine
15	6077	377		syscall 13, __TextOutArgs
15	6077	380		release __TextOutMutex
15	6503	381	#line 6503 "NXCDefs.h"
15	6076	381	#line 6076 "NXCDefs.h"
15	34	381	#line 34 "C:\Users\kjeld\Documents\GitHub\SaSeRoS-Team359\Object_detection\.\../initialise.h"
15	34	381	#line 34 "C:\Users\kjeld\Documents\GitHub\SaSeRoS-Team359\Object_detection\.\../initialise.h"
15	35	381		set __signed_stack_001initialise, 0
15	34	384	#line 34 "C:\Users\kjeld\Documents\GitHub\SaSeRoS-Team359\Object_detection\.\../initialise.h"
15	34	384	#line 34 "C:\Users\kjeld\Documents\GitHub\SaSeRoS-Team359\Object_detection\.\../initialise.h"
15	35	384		set __signed_stack_002initialise, 1
15	34	387	#line 34 "C:\Users\kjeld\Documents\GitHub\SaSeRoS-Team359\Object_detection\.\../initialise.h"
15	34	387	#line 34 "C:\Users\kjeld\Documents\GitHub\SaSeRoS-Team359\Object_detection\.\../initialise.h"
15	35	387		strcat __strbufinitialise, __constStr0010
15	35	391	#line 35 "C:\Users\kjeld\Documents\GitHub\SaSeRoS-Team359\Object_detection\.\../initialise.h"
15	36	391		acquire __TextOutMutex
15	35	392	#line 35 "C:\Users\kjeld\Documents\GitHub\SaSeRoS-Team359\Object_detection\.\../initialise.h"
15	36	392		mov __TextOutArgs.Location.X, __signed_stack_001initialise
15	35	395	#line 35 "C:\Users\kjeld\Documents\GitHub\SaSeRoS-Team359\Object_detection\.\../initialise.h"
15	36	395		mov __TextOutArgs.Location.Y, __signed_stack_002initialise
15	35	398	#line 35 "C:\Users\kjeld\Documents\GitHub\SaSeRoS-Team359\Object_detection\.\../initialise.h"
15	36	398		set __TextOutArgs.Options, 0
15	35	401	#line 35 "C:\Users\kjeld\Documents\GitHub\SaSeRoS-Team359\Object_detection\.\../initialise.h"
15	36	401		mov __TextOutArgs.Text, __strbufinitialise
15	35	403	#line 35 "C:\Users\kjeld\Documents\GitHub\SaSeRoS-Team359\Object_detection\.\../initialise.h"
15	36	403		syscall 13, __TextOutArgs
15	35	406	#line 35 "C:\Users\kjeld\Documents\GitHub\SaSeRoS-Team359\Object_detection\.\../initialise.h"
15	36	406		mov __D0initialise, __TextOutArgs.Result
15	35	409	#line 35 "C:\Users\kjeld\Documents\GitHub\SaSeRoS-Team359\Object_detection\.\../initialise.h"
15	36	409		release __TextOutMutex
15	35	410	#line 35 "C:\Users\kjeld\Documents\GitHub\SaSeRoS-Team359\Object_detection\.\../initialise.h"
15	35	410	#line 35 "C:\Users\kjeld\Documents\GitHub\SaSeRoS-Team359\Object_detection\.\../initialise.h"
15	36	410		set __Wait_7qG2_ms_7qG2_000_inline_initialise, 5000
15	35	413	#line 35 "C:\Users\kjeld\Documents\GitHub\SaSeRoS-Team359\Object_detection\.\../initialise.h"
15	7921	413	#line 7921 "NXCDefs.h"
15	7922	413		wait2 NA, __Wait_7qG2_ms_7qG2_000_inline_initialise
15	7921	416	#line 7921 "NXCDefs.h"
15	36	416	#line 36 "C:\Users\kjeld\Documents\GitHub\SaSeRoS-Team359\Object_detection\.\../initialise.h"
15	36	416	#line 36 "C:\Users\kjeld\Documents\GitHub\SaSeRoS-Team359\Object_detection\.\../initialise.h"
15	37	416		set __Light_Sens_Init_7qG2_Port_7qG2_000, 1
15	36	419	#line 36 "C:\Users\kjeld\Documents\GitHub\SaSeRoS-Team359\Object_detection\.\../initialise.h"
15	37	419	#line 37 "C:\Users\kjeld\Documents\GitHub\SaSeRoS-Team359\Object_detection\.\../initialise.h"
15	38	419		subcall Light_Sens_Init, __Light_Sens_Init_return
15	37	421	#line 37 "C:\Users\kjeld\Documents\GitHub\SaSeRoS-Team359\Object_detection\.\../initialise.h"
15	37	421	#line 37 "C:\Users\kjeld\Documents\GitHub\SaSeRoS-Team359\Object_detection\.\../initialise.h"
15	38	421		set __Wait_7qG2_ms_7qG2_000_inline_initialise, 1000
15	37	424	#line 37 "C:\Users\kjeld\Documents\GitHub\SaSeRoS-Team359\Object_detection\.\../initialise.h"
15	7921	424	#line 7921 "NXCDefs.h"
15	7922	424		wait2 NA, __Wait_7qG2_ms_7qG2_000_inline_initialise
15	7921	427	#line 7921 "NXCDefs.h"
15	38	427	#line 38 "C:\Users\kjeld\Documents\GitHub\SaSeRoS-Team359\Object_detection\.\../initialise.h"
15	38	427	#line 38 "C:\Users\kjeld\Documents\GitHub\SaSeRoS-Team359\Object_detection\.\../initialise.h"
15	39	427		getin __initialise_7qG2_Light_7qG2_000, __constVal1, 4
15	38	431	#line 38 "C:\Users\kjeld\Documents\GitHub\SaSeRoS-Team359\Object_detection\.\../initialise.h"
15	38	431	#line 38 "C:\Users\kjeld\Documents\GitHub\SaSeRoS-Team359\Object_detection\.\../initialise.h"
15	38	431	#line 38 "C:\Users\kjeld\Documents\GitHub\SaSeRoS-Team359\Object_detection\.\../initialise.h"
15	39	431	#line 39 "C:\Users\kjeld\Documents\GitHub\SaSeRoS-Team359\Object_detection\.\../initialise.h"
15	40	431		set __signed_stack_001initialise, 0
15	39	434	#line 39 "C:\Users\kjeld\Documents\GitHub\SaSeRoS-Team359\Object_detection\.\../initialise.h"
15	39	434	#line 39 "C:\Users\kjeld\Documents\GitHub\SaSeRoS-Team359\Object_detection\.\../initialise.h"
15	40	434		set __signed_stack_002initialise, 1
15	39	437	#line 39 "C:\Users\kjeld\Documents\GitHub\SaSeRoS-Team359\Object_detection\.\../initialise.h"
15	39	437	#line 39 "C:\Users\kjeld\Documents\GitHub\SaSeRoS-Team359\Object_detection\.\../initialise.h"
15	40	437		strcat __strbufinitialise, __constStr0013
15	41	441	#line 41 "C:\Users\kjeld\Documents\GitHub\SaSeRoS-Team359\Object_detection\.\../initialise.h"
15	42	441		acquire __TextOutMutex
15	41	442	#line 41 "C:\Users\kjeld\Documents\GitHub\SaSeRoS-Team359\Object_detection\.\../initialise.h"
15	42	442		mov __TextOutArgs.Location.X, __signed_stack_001initialise
15	41	445	#line 41 "C:\Users\kjeld\Documents\GitHub\SaSeRoS-Team359\Object_detection\.\../initialise.h"
15	42	445		mov __TextOutArgs.Location.Y, __signed_stack_002initialise
15	41	448	#line 41 "C:\Users\kjeld\Documents\GitHub\SaSeRoS-Team359\Object_detection\.\../initialise.h"
15	42	448		set __TextOutArgs.Options, 0
15	41	451	#line 41 "C:\Users\kjeld\Documents\GitHub\SaSeRoS-Team359\Object_detection\.\../initialise.h"
15	42	451		mov __TextOutArgs.Text, __strbufinitialise
15	41	453	#line 41 "C:\Users\kjeld\Documents\GitHub\SaSeRoS-Team359\Object_detection\.\../initialise.h"
15	42	453		syscall 13, __TextOutArgs
15	41	456	#line 41 "C:\Users\kjeld\Documents\GitHub\SaSeRoS-Team359\Object_detection\.\../initialise.h"
15	42	456		mov __D0initialise, __TextOutArgs.Result
15	41	459	#line 41 "C:\Users\kjeld\Documents\GitHub\SaSeRoS-Team359\Object_detection\.\../initialise.h"
15	42	459		release __TextOutMutex
15	41	460	#line 41 "C:\Users\kjeld\Documents\GitHub\SaSeRoS-Team359\Object_detection\.\../initialise.h"
15	41	460	#line 41 "C:\Users\kjeld\Documents\GitHub\SaSeRoS-Team359\Object_detection\.\../initialise.h"
15	42	460		getin __signed_stack_001initialise, __constVal1, 4
15	41	464	#line 41 "C:\Users\kjeld\Documents\GitHub\SaSeRoS-Team359\Object_detection\.\../initialise.h"
15	41	464	#line 41 "C:\Users\kjeld\Documents\GitHub\SaSeRoS-Team359\Object_detection\.\../initialise.h"
15	41	464	#line 41 "C:\Users\kjeld\Documents\GitHub\SaSeRoS-Team359\Object_detection\.\../initialise.h"
15	41	464	#line 41 "C:\Users\kjeld\Documents\GitHub\SaSeRoS-Team359\Object_detection\.\../initialise.h"
15	41	464	#line 41 "C:\Users\kjeld\Documents\GitHub\SaSeRoS-Team359\Object_detection\.\../initialise.h"
15	42	464		sub __D0initialise, __initialise_7qG2_Light_7qG2_000, __constVal100
15	41	468	#line 41 "C:\Users\kjeld\Documents\GitHub\SaSeRoS-Team359\Object_detection\.\../initialise.h"
15	42	468		cmp 1, __zfinitialise, __signed_stack_001initialise, __D0initialise
15	41	472	#line 41 "C:\Users\kjeld\Documents\GitHub\SaSeRoS-Team359\Object_detection\.\../initialise.h"
15	42	472		mov __D0initialise, __zfinitialise
15	41	475	#line 41 "C:\Users\kjeld\Documents\GitHub\SaSeRoS-Team359\Object_detection\.\../initialise.h"
15	42	475		brtst 4, __NXC_Label_662, __zfinitialise
15	41	478	#line 41 "C:\Users\kjeld\Documents\GitHub\SaSeRoS-Team359\Object_detection\.\../initialise.h"
15	42	478		mov __signed_stack_001initialise, __D0initialise
15	41	480	#line 41 "C:\Users\kjeld\Documents\GitHub\SaSeRoS-Team359\Object_detection\.\../initialise.h"
15	42	480		getin __signed_stack_002initialise, __constVal1, 4
15	41	484	#line 41 "C:\Users\kjeld\Documents\GitHub\SaSeRoS-Team359\Object_detection\.\../initialise.h"
15	41	484	#line 41 "C:\Users\kjeld\Documents\GitHub\SaSeRoS-Team359\Object_detection\.\../initialise.h"
15	41	484	#line 41 "C:\Users\kjeld\Documents\GitHub\SaSeRoS-Team359\Object_detection\.\../initialise.h"
15	41	484	#line 41 "C:\Users\kjeld\Documents\GitHub\SaSeRoS-Team359\Object_detection\.\../initialise.h"
15	41	484	#line 41 "C:\Users\kjeld\Documents\GitHub\SaSeRoS-Team359\Object_detection\.\../initialise.h"
15	42	484		add __D0initialise, __initialise_7qG2_Light_7qG2_000, __constVal100
15	41	488	#line 41 "C:\Users\kjeld\Documents\GitHub\SaSeRoS-Team359\Object_detection\.\../initialise.h"
15	42	488		cmp 0, __zfinitialise, __signed_stack_002initialise, __D0initialise
15	41	492	#line 41 "C:\Users\kjeld\Documents\GitHub\SaSeRoS-Team359\Object_detection\.\../initialise.h"
15	41	492	#line 41 "C:\Users\kjeld\Documents\GitHub\SaSeRoS-Team359\Object_detection\.\../initialise.h"
15	42	492		and __D0initialise, __signed_stack_001initialise, __zfinitialise
15	41	496	#line 41 "C:\Users\kjeld\Documents\GitHub\SaSeRoS-Team359\Object_detection\.\../initialise.h"
15	42	496		tst 5, __zfinitialise, __D0initialise
15	41	499	#line 41 "C:\Users\kjeld\Documents\GitHub\SaSeRoS-Team359\Object_detection\.\../initialise.h"
15	42	499		brtst 4, __NXC_Label_660, __zfinitialise
15	42	502	#line 42 "C:\Users\kjeld\Documents\GitHub\SaSeRoS-Team359\Object_detection\.\../initialise.h"
15	43	502		jmp __NXC_Label_659
15	42	504	#line 42 "C:\Users\kjeld\Documents\GitHub\SaSeRoS-Team359\Object_detection\.\../initialise.h"
15	42	504	#line 42 "C:\Users\kjeld\Documents\GitHub\SaSeRoS-Team359\Object_detection\.\../initialise.h"
15	43	504		set __ClearLine_7qG2_line_7qG2_000_inline_initialise, 1
15	42	507	#line 42 "C:\Users\kjeld\Documents\GitHub\SaSeRoS-Team359\Object_detection\.\../initialise.h"
15	6076	507	#line 6076 "NXCDefs.h"
15	6077	507	#pragma macro 7
15	6077	507		acquire __TextOutMutex
15	6077	508		mov __TextOutArgs.Location.X, __constVal0
15	6077	510		mov __TextOutArgs.Location.Y, __ClearLine_7qG2_line_7qG2_000_inline_initialise
15	6077	512		mov __TextOutArgs.Options, __constVal0
15	6077	514		mov __TextOutArgs.Text, __BlankLine
15	6077	516		syscall 13, __TextOutArgs
15	6077	519		release __TextOutMutex
15	6669	520	#line 6669 "NXCDefs.h"
15	6076	520	#line 6076 "NXCDefs.h"
15	43	520	#line 43 "C:\Users\kjeld\Documents\GitHub\SaSeRoS-Team359\Object_detection\.\../initialise.h"
15	43	520	#line 43 "C:\Users\kjeld\Documents\GitHub\SaSeRoS-Team359\Object_detection\.\../initialise.h"
15	44	520		set __signed_stack_001initialise, 0
15	43	523	#line 43 "C:\Users\kjeld\Documents\GitHub\SaSeRoS-Team359\Object_detection\.\../initialise.h"
15	43	523	#line 43 "C:\Users\kjeld\Documents\GitHub\SaSeRoS-Team359\Object_detection\.\../initialise.h"
15	44	523		set __signed_stack_002initialise, 1
15	43	526	#line 43 "C:\Users\kjeld\Documents\GitHub\SaSeRoS-Team359\Object_detection\.\../initialise.h"
15	43	526	#line 43 "C:\Users\kjeld\Documents\GitHub\SaSeRoS-Team359\Object_detection\.\../initialise.h"
15	44	526		strcat __strbufinitialise, __constStr0010
15	44	530	#line 44 "C:\Users\kjeld\Documents\GitHub\SaSeRoS-Team359\Object_detection\.\../initialise.h"
15	45	530		acquire __TextOutMutex
15	44	531	#line 44 "C:\Users\kjeld\Documents\GitHub\SaSeRoS-Team359\Object_detection\.\../initialise.h"
15	45	531		mov __TextOutArgs.Location.X, __signed_stack_001initialise
15	44	534	#line 44 "C:\Users\kjeld\Documents\GitHub\SaSeRoS-Team359\Object_detection\.\../initialise.h"
15	45	534		mov __TextOutArgs.Location.Y, __signed_stack_002initialise
15	44	537	#line 44 "C:\Users\kjeld\Documents\GitHub\SaSeRoS-Team359\Object_detection\.\../initialise.h"
15	45	537		set __TextOutArgs.Options, 0
15	44	540	#line 44 "C:\Users\kjeld\Documents\GitHub\SaSeRoS-Team359\Object_detection\.\../initialise.h"
15	45	540		mov __TextOutArgs.Text, __strbufinitialise
15	44	542	#line 44 "C:\Users\kjeld\Documents\GitHub\SaSeRoS-Team359\Object_detection\.\../initialise.h"
15	45	542		syscall 13, __TextOutArgs
15	44	545	#line 44 "C:\Users\kjeld\Documents\GitHub\SaSeRoS-Team359\Object_detection\.\../initialise.h"
15	45	545		mov __D0initialise, __TextOutArgs.Result
15	44	548	#line 44 "C:\Users\kjeld\Documents\GitHub\SaSeRoS-Team359\Object_detection\.\../initialise.h"
15	45	548		release __TextOutMutex
15	44	549	#line 44 "C:\Users\kjeld\Documents\GitHub\SaSeRoS-Team359\Object_detection\.\../initialise.h"
15	44	549	#line 44 "C:\Users\kjeld\Documents\GitHub\SaSeRoS-Team359\Object_detection\.\../initialise.h"
15	45	549		set __Wait_7qG2_ms_7qG2_000_inline_initialise, 5000
15	44	552	#line 44 "C:\Users\kjeld\Documents\GitHub\SaSeRoS-Team359\Object_detection\.\../initialise.h"
15	7921	552	#line 7921 "NXCDefs.h"
15	7922	552		wait2 NA, __Wait_7qG2_ms_7qG2_000_inline_initialise
15	7921	555	#line 7921 "NXCDefs.h"
15	45	555	#line 45 "C:\Users\kjeld\Documents\GitHub\SaSeRoS-Team359\Object_detection\.\../initialise.h"
15	45	555	#line 45 "C:\Users\kjeld\Documents\GitHub\SaSeRoS-Team359\Object_detection\.\../initialise.h"
15	46	555		set __ClearLine_7qG2_line_7qG2_000_inline_initialise, 1
15	45	558	#line 45 "C:\Users\kjeld\Documents\GitHub\SaSeRoS-Team359\Object_detection\.\../initialise.h"
15	6076	558	#line 6076 "NXCDefs.h"
15	6077	558	#pragma macro 7
15	6077	558		acquire __TextOutMutex
15	6077	559		mov __TextOutArgs.Location.X, __constVal0
15	6077	561		mov __TextOutArgs.Location.Y, __ClearLine_7qG2_line_7qG2_000_inline_initialise
15	6077	563		mov __TextOutArgs.Options, __constVal0
15	6077	565		mov __TextOutArgs.Text, __BlankLine
15	6077	567		syscall 13, __TextOutArgs
15	6077	570		release __TextOutMutex
15	6720	571	#line 6720 "NXCDefs.h"
15	6076	571	#line 6076 "NXCDefs.h"
15	46	571	#line 46 "C:\Users\kjeld\Documents\GitHub\SaSeRoS-Team359\Object_detection\.\../initialise.h"
15	46	571	#line 46 "C:\Users\kjeld\Documents\GitHub\SaSeRoS-Team359\Object_detection\.\../initialise.h"
15	47	571		set __signed_stack_001initialise, 0
15	46	574	#line 46 "C:\Users\kjeld\Documents\GitHub\SaSeRoS-Team359\Object_detection\.\../initialise.h"
15	46	574	#line 46 "C:\Users\kjeld\Documents\GitHub\SaSeRoS-Team359\Object_detection\.\../initialise.h"
15	47	574		set __signed_stack_002initialise, 1
15	46	577	#line 46 "C:\Users\kjeld\Documents\GitHub\SaSeRoS-Team359\Object_detection\.\../initialise.h"
15	46	577	#line 46 "C:\Users\kjeld\Documents\GitHub\SaSeRoS-Team359\Object_detection\.\../initialise.h"
15	47	577		strcat __strbufinitialise, __constStr0014
15	47	581	#line 47 "C:\Users\kjeld\Documents\GitHub\SaSeRoS-Team359\Object_detection\.\../initialise.h"
15	48	581		acquire __TextOutMutex
15	47	582	#line 47 "C:\Users\kjeld\Documents\GitHub\SaSeRoS-Team359\Object_detection\.\../initialise.h"
15	48	582		mov __TextOutArgs.Location.X, __signed_stack_001initialise
15	47	585	#line 47 "C:\Users\kjeld\Documents\GitHub\SaSeRoS-Team359\Object_detection\.\../initialise.h"
15	48	585		mov __TextOutArgs.Location.Y, __signed_stack_002initialise
15	47	588	#line 47 "C:\Users\kjeld\Documents\GitHub\SaSeRoS-Team359\Object_detection\.\../initialise.h"
15	48	588		set __TextOutArgs.Options, 0
15	47	591	#line 47 "C:\Users\kjeld\Documents\GitHub\SaSeRoS-Team359\Object_detection\.\../initialise.h"
15	48	591		mov __TextOutArgs.Text, __strbufinitialise
15	47	593	#line 47 "C:\Users\kjeld\Documents\GitHub\SaSeRoS-Team359\Object_detection\.\../initialise.h"
15	48	593		syscall 13, __TextOutArgs
15	47	596	#line 47 "C:\Users\kjeld\Documents\GitHub\SaSeRoS-Team359\Object_detection\.\../initialise.h"
15	48	596		mov __D0initialise, __TextOutArgs.Result
15	47	599	#line 47 "C:\Users\kjeld\Documents\GitHub\SaSeRoS-Team359\Object_detection\.\../initialise.h"
15	48	599		release __TextOutMutex
15	47	600	#line 47 "C:\Users\kjeld\Documents\GitHub\SaSeRoS-Team359\Object_detection\.\../initialise.h"
15	48	600	#line 48 "C:\Users\kjeld\Documents\GitHub\SaSeRoS-Team359\Object_detection\.\../initialise.h"
15	49	600		subret __initialise_return
16	16	0	#line 16 "C:\Users\kjeld\Documents\GitHub\SaSeRoS-Team359\Object_detection\.\../scanner.h"
16	17	0		set __signed_stack_001TurnTurret, 30
16	16	3	#line 16 "C:\Users\kjeld\Documents\GitHub\SaSeRoS-Team359\Object_detection\.\../scanner.h"
16	16	3	#line 16 "C:\Users\kjeld\Documents\GitHub\SaSeRoS-Team359\Object_detection\.\../scanner.h"
16	17	3		mov __D0TurnTurret, __TurnTurret_7qG2_deg_7qG2_000
16	17	5	#line 17 "C:\Users\kjeld\Documents\GitHub\SaSeRoS-Team359\Object_detection\.\../scanner.h"
16	18	5	#pragma macro 33
16	18	5		acquire __rotateMutex2
16	18	6		arrbuild __rotate_ports2, __constVal2
16	18	10		mov __rotate_power2, __signed_stack_001TurnTurret
16	18	12		mov __rotate_angle2, __D0TurnTurret
16	18	14		mov __rotate_turnpct2, __constVal0
16	18	16		mov __rotate_sync2, __constVal0
16	18	18		mov __rotate_stop2, __constVal1
16	18	20		mov __rotate_theRVP2, __constVal32
16	18	22		mov __rotate_theRVI2, __constVal0
16	18	24		mov __rotate_theRVD2, __constVal96
16	18	26		subcall __RotateMotor2, ____RotateMotor2_return
16	18	29		release __rotateMutex2
16	6782	30	#line 6782 "C:\Users\kjeld\Documents\GitHub\SaSeRoS-Team359\Object_detection\.\../scanner.h"
16	17	30	#line 17 "C:\Users\kjeld\Documents\GitHub\SaSeRoS-Team359\Object_detection\.\../scanner.h"
16	18	30	#line 18 "C:\Users\kjeld\Documents\GitHub\SaSeRoS-Team359\Object_detection\.\../scanner.h"
16	18	30	#line 18 "C:\Users\kjeld\Documents\GitHub\SaSeRoS-Team359\Object_detection\.\../scanner.h"
16	18	30	#line 18 "C:\Users\kjeld\Documents\GitHub\SaSeRoS-Team359\Object_detection\.\../scanner.h"
16	20	30	#line 20 "C:\Users\kjeld\Documents\GitHub\SaSeRoS-Team359\Object_detection\.\../scanner.h"
16	21	30		subret __TurnTurret_return
17	28	0	#line 28 "C:\Users\kjeld\Documents\GitHub\SaSeRoS-Team359\Object_detection\.\../scanner.h"
17	29	0		mov __TurnTurret_7qG2_deg_7qG2_000, __CheckDirection_7qG2_dir_7qG2_000
17	28	2	#line 28 "C:\Users\kjeld\Documents\GitHub\SaSeRoS-Team359\Object_detection\.\../scanner.h"
17	29	2	#line 29 "C:\Users\kjeld\Documents\GitHub\SaSeRoS-Team359\Object_detection\.\../scanner.h"
17	30	2		subcall TurnTurret, __TurnTurret_return
17	29	4	#line 29 "C:\Users\kjeld\Documents\GitHub\SaSeRoS-Team359\Object_detection\.\../scanner.h"
17	29	4	#line 29 "C:\Users\kjeld\Documents\GitHub\SaSeRoS-Team359\Object_detection\.\../scanner.h"
17	30	4		set __Wait_7qG2_ms_7qG2_000_inline_CheckDirection, 300
17	29	7	#line 29 "C:\Users\kjeld\Documents\GitHub\SaSeRoS-Team359\Object_detection\.\../scanner.h"
17	7921	7	#line 7921 "NXCDefs.h"
17	7922	7		wait2 NA, __Wait_7qG2_ms_7qG2_000_inline_CheckDirection
17	7921	10	#line 7921 "NXCDefs.h"
17	30	10	#line 30 "C:\Users\kjeld\Documents\GitHub\SaSeRoS-Team359\Object_detection\.\../scanner.h"
17	30	10	#line 30 "C:\Users\kjeld\Documents\GitHub\SaSeRoS-Team359\Object_detection\.\../scanner.h"
17	31	10	#pragma macro 26
17	31	10		acquire __RLSBmutex3
17	31	11		mov __RLSReadBuf3, __RLSBbufLSWrite1
17	31	13		set __RLSBytesCount3, 1
17	31	16		wait2 NA, __constVal15
17	31	19		subcall __ReadLSBytes3, ____ReadLSBytes3_return
17	31	22		index __D0CheckDirection, __RLSReadBuf3, 65535
17	31	26		release __RLSBmutex3
17	6855	27	#line 6855 "C:\Users\kjeld\Documents\GitHub\SaSeRoS-Team359\Object_detection\.\../scanner.h"
17	30	27	#line 30 "C:\Users\kjeld\Documents\GitHub\SaSeRoS-Team359\Object_detection\.\../scanner.h"
17	31	27		mov __signed_stack_001CheckDirection, __D0CheckDirection
17	30	29	#line 30 "C:\Users\kjeld\Documents\GitHub\SaSeRoS-Team359\Object_detection\.\../scanner.h"
17	31	29		set __D0CheckDirection, 30
17	30	32	#line 30 "C:\Users\kjeld\Documents\GitHub\SaSeRoS-Team359\Object_detection\.\../scanner.h"
17	31	32		cmp 1, __zfCheckDirection, __signed_stack_001CheckDirection, __D0CheckDirection
17	30	36	#line 30 "C:\Users\kjeld\Documents\GitHub\SaSeRoS-Team359\Object_detection\.\../scanner.h"
17	31	36		mov __D0CheckDirection, __zfCheckDirection
17	31	39	#line 31 "C:\Users\kjeld\Documents\GitHub\SaSeRoS-Team359\Object_detection\.\../scanner.h"
17	32	39		brtst 4, __NXC_Label_703, __zfCheckDirection
17	31	42	#line 31 "C:\Users\kjeld\Documents\GitHub\SaSeRoS-Team359\Object_detection\.\../scanner.h"
17	31	42	#line 31 "C:\Users\kjeld\Documents\GitHub\SaSeRoS-Team359\Object_detection\.\../scanner.h"
17	31	42	#line 31 "C:\Users\kjeld\Documents\GitHub\SaSeRoS-Team359\Object_detection\.\../scanner.h"
17	31	42	#line 31 "C:\Users\kjeld\Documents\GitHub\SaSeRoS-Team359\Object_detection\.\../scanner.h"
17	32	42		sub __TurnTurret_7qG2_deg_7qG2_000, __constVal0, __CheckDirection_7qG2_dir_7qG2_000
17	31	46	#line 31 "C:\Users\kjeld\Documents\GitHub\SaSeRoS-Team359\Object_detection\.\../scanner.h"
17	32	46	#line 32 "C:\Users\kjeld\Documents\GitHub\SaSeRoS-Team359\Object_detection\.\../scanner.h"
17	33	46		subcall TurnTurret, __TurnTurret_return
17	32	48	#line 32 "C:\Users\kjeld\Documents\GitHub\SaSeRoS-Team359\Object_detection\.\../scanner.h"
17	33	48	#line 33 "C:\Users\kjeld\Documents\GitHub\SaSeRoS-Team359\Object_detection\.\../scanner.h"
17	34	48		set __DU0CheckDirection, 1
17	33	51	#line 33 "C:\Users\kjeld\Documents\GitHub\SaSeRoS-Team359\Object_detection\.\../scanner.h"
17	33	51	#line 33 "C:\Users\kjeld\Documents\GitHub\SaSeRoS-Team359\Object_detection\.\../scanner.h"
17	34	51		subret __CheckDirection_return
17	33	53	#line 33 "C:\Users\kjeld\Documents\GitHub\SaSeRoS-Team359\Object_detection\.\../scanner.h"
17	35	53	#line 35 "C:\Users\kjeld\Documents\GitHub\SaSeRoS-Team359\Object_detection\.\../scanner.h"
17	36	53		jmp __NXC_Label_708
17	35	55	#line 35 "C:\Users\kjeld\Documents\GitHub\SaSeRoS-Team359\Object_detection\.\../scanner.h"
17	35	55	#line 35 "C:\Users\kjeld\Documents\GitHub\SaSeRoS-Team359\Object_detection\.\../scanner.h"
17	35	55	#line 35 "C:\Users\kjeld\Documents\GitHub\SaSeRoS-Team359\Object_detection\.\../scanner.h"
17	35	55	#line 35 "C:\Users\kjeld\Documents\GitHub\SaSeRoS-Team359\Object_detection\.\../scanner.h"
17	36	55		sub __TurnTurret_7qG2_deg_7qG2_000, __constVal0, __CheckDirection_7qG2_dir_7qG2_000
17	35	59	#line 35 "C:\Users\kjeld\Documents\GitHub\SaSeRoS-Team359\Object_detection\.\../scanner.h"
17	36	59	#line 36 "C:\Users\kjeld\Documents\GitHub\SaSeRoS-Team359\Object_detection\.\../scanner.h"
17	37	59		subcall TurnTurret, __TurnTurret_return
17	36	61	#line 36 "C:\Users\kjeld\Documents\GitHub\SaSeRoS-Team359\Object_detection\.\../scanner.h"
17	37	61	#line 37 "C:\Users\kjeld\Documents\GitHub\SaSeRoS-Team359\Object_detection\.\../scanner.h"
17	38	61		set __DU0CheckDirection, 0
17	37	64	#line 37 "C:\Users\kjeld\Documents\GitHub\SaSeRoS-Team359\Object_detection\.\../scanner.h"
17	37	64	#line 37 "C:\Users\kjeld\Documents\GitHub\SaSeRoS-Team359\Object_detection\.\../scanner.h"
17	38	64		subret __CheckDirection_return
17	37	66	#line 37 "C:\Users\kjeld\Documents\GitHub\SaSeRoS-Team359\Object_detection\.\../scanner.h"
17	43	66	#line 43 "C:\Users\kjeld\Documents\GitHub\SaSeRoS-Team359\Object_detection\.\../scanner.h"
17	43	66	#line 43 "C:\Users\kjeld\Documents\GitHub\SaSeRoS-Team359\Object_detection\.\../scanner.h"
17	44	66		subret __CheckDirection_return
18	8	0	#line 8 "C:\Users\kjeld\Documents\GitHub\SaSeRoS-Team359\Object_detection\.\../object_detection.h"
18	9	0	#pragma macro 4
18	9	0		syscall 24, __RandomArgs
18	7181	3	#line 7181 "C:\Users\kjeld\Documents\GitHub\SaSeRoS-Team359\Object_detection\.\../object_detection.h"
18	8	3	#line 8 "C:\Users\kjeld\Documents\GitHub\SaSeRoS-Team359\Object_detection\.\../object_detection.h"
18	8	3	#line 8 "C:\Users\kjeld\Documents\GitHub\SaSeRoS-Team359\Object_detection\.\../object_detection.h"
18	8	3	#line 8 "C:\Users\kjeld\Documents\GitHub\SaSeRoS-Team359\Object_detection\.\../object_detection.h"
18	9	3		mod __Random_Angle_7qG2_x_7qG2_000, __RandomArgs.Result, __constVal360
18	9	7	#line 9 "C:\Users\kjeld\Documents\GitHub\SaSeRoS-Team359\Object_detection\.\../object_detection.h"
18	9	7	#line 9 "C:\Users\kjeld\Documents\GitHub\SaSeRoS-Team359\Object_detection\.\../object_detection.h"
18	10	7	#line 10 "C:\Users\kjeld\Documents\GitHub\SaSeRoS-Team359\Object_detection\.\../object_detection.h"
18	10	7	#line 10 "C:\Users\kjeld\Documents\GitHub\SaSeRoS-Team359\Object_detection\.\../object_detection.h"
18	11	7		sub __Random_Angle_7qG2_x_7qG2_000, __Random_Angle_7qG2_x_7qG2_000, __constVal180
18	10	11	#line 10 "C:\Users\kjeld\Documents\GitHub\SaSeRoS-Team359\Object_detection\.\../object_detection.h"
18	11	11	#line 11 "C:\Users\kjeld\Documents\GitHub\SaSeRoS-Team359\Object_detection\.\../object_detection.h"
18	12	11		mov __D0Random_Angle, __Random_Angle_7qG2_x_7qG2_000
18	11	13	#line 11 "C:\Users\kjeld\Documents\GitHub\SaSeRoS-Team359\Object_detection\.\../object_detection.h"
18	12	13		subret __Random_Angle_return
18	11	15	#line 11 "C:\Users\kjeld\Documents\GitHub\SaSeRoS-Team359\Object_detection\.\../object_detection.h"
18	13	15	#line 13 "C:\Users\kjeld\Documents\GitHub\SaSeRoS-Team359\Object_detection\.\../object_detection.h"
18	14	15		subret __Random_Angle_return
19	14	0	#line 14 "C:\Users\kjeld\Documents\GitHub\SaSeRoS-Team359\Object_detection\.\../object_detection.h"
19	14	0	#line 14 "C:\Users\kjeld\Documents\GitHub\SaSeRoS-Team359\Object_detection\.\../object_detection.h"
19	15	0		not __DU0Look_Back, reverse
19	15	3	#line 15 "C:\Users\kjeld\Documents\GitHub\SaSeRoS-Team359\Object_detection\.\../object_detection.h"
19	16	3		tst 5, __zfLook_Back, __DU0Look_Back
19	15	6	#line 15 "C:\Users\kjeld\Documents\GitHub\SaSeRoS-Team359\Object_detection\.\../object_detection.h"
19	16	6		brtst 4, __NXC_Label_747, __zfLook_Back
19	15	9	#line 15 "C:\Users\kjeld\Documents\GitHub\SaSeRoS-Team359\Object_detection\.\../object_detection.h"
19	16	9		getin __D0Look_Back, __constVal2, 4
19	15	13	#line 15 "C:\Users\kjeld\Documents\GitHub\SaSeRoS-Team359\Object_detection\.\../object_detection.h"
19	16	13		not __D0Look_Back, __D0Look_Back
19	16	16	#line 16 "C:\Users\kjeld\Documents\GitHub\SaSeRoS-Team359\Object_detection\.\../object_detection.h"
19	17	16		tst 5, __zfLook_Back, __D0Look_Back
19	16	19	#line 16 "C:\Users\kjeld\Documents\GitHub\SaSeRoS-Team359\Object_detection\.\../object_detection.h"
19	17	19		brtst 4, __NXC_Label_752, __zfLook_Back
19	17	22	#line 17 "C:\Users\kjeld\Documents\GitHub\SaSeRoS-Team359\Object_detection\.\../object_detection.h"
19	18	22		subcall Stop_Driving, __Stop_Driving_return
19	17	24	#line 17 "C:\Users\kjeld\Documents\GitHub\SaSeRoS-Team359\Object_detection\.\../object_detection.h"
19	17	24	#line 17 "C:\Users\kjeld\Documents\GitHub\SaSeRoS-Team359\Object_detection\.\../object_detection.h"
19	18	24		set __Drive_Backward_7qG2_pwr_7qG2_000, 50
19	17	27	#line 17 "C:\Users\kjeld\Documents\GitHub\SaSeRoS-Team359\Object_detection\.\../object_detection.h"
19	19	27	#line 19 "C:\Users\kjeld\Documents\GitHub\SaSeRoS-Team359\Object_detection\.\../object_detection.h"
19	20	27		subcall Drive_Backward, __Drive_Backward_return
19	19	29	#line 19 "C:\Users\kjeld\Documents\GitHub\SaSeRoS-Team359\Object_detection\.\../object_detection.h"
19	19	29	#line 19 "C:\Users\kjeld\Documents\GitHub\SaSeRoS-Team359\Object_detection\.\../object_detection.h"
19	20	29		set __Wait_7qG2_ms_7qG2_000_inline_Look_Back, 1000
19	19	32	#line 19 "C:\Users\kjeld\Documents\GitHub\SaSeRoS-Team359\Object_detection\.\../object_detection.h"
19	7921	32	#line 7921 "NXCDefs.h"
19	7922	32		wait2 NA, __Wait_7qG2_ms_7qG2_000_inline_Look_Back
19	7921	35	#line 7921 "NXCDefs.h"
19	20	35	#line 20 "C:\Users\kjeld\Documents\GitHub\SaSeRoS-Team359\Object_detection\.\../object_detection.h"
19	21	35	#line 21 "C:\Users\kjeld\Documents\GitHub\SaSeRoS-Team359\Object_detection\.\../object_detection.h"
19	22	35		subcall Stop_Driving, __Stop_Driving_return
19	21	37	#line 21 "C:\Users\kjeld\Documents\GitHub\SaSeRoS-Team359\Object_detection\.\../object_detection.h"
19	21	37	#line 21 "C:\Users\kjeld\Documents\GitHub\SaSeRoS-Team359\Object_detection\.\../object_detection.h"
19	22	37		set __Drive_Forward_7qG2_pwr_7qG2_000, 50
19	21	40	#line 21 "C:\Users\kjeld\Documents\GitHub\SaSeRoS-Team359\Object_detection\.\../object_detection.h"
19	22	40	#line 22 "C:\Users\kjeld\Documents\GitHub\SaSeRoS-Team359\Object_detection\.\../object_detection.h"
19	23	40		subcall Drive_Forward, __Drive_Forward_return
19	22	42	#line 22 "C:\Users\kjeld\Documents\GitHub\SaSeRoS-Team359\Object_detection\.\../object_detection.h"
19	24	42	#line 24 "C:\Users\kjeld\Documents\GitHub\SaSeRoS-Team359\Object_detection\.\../object_detection.h"
19	24	42	#line 24 "C:\Users\kjeld\Documents\GitHub\SaSeRoS-Team359\Object_detection\.\../object_detection.h"
19	25	42		jmp __NXC_Label_746
19	24	44	#line 24 "C:\Users\kjeld\Documents\GitHub\SaSeRoS-Team359\Object_detection\.\../object_detection.h"
19	24	44	#line 24 "C:\Users\kjeld\Documents\GitHub\SaSeRoS-Team359\Object_detection\.\../object_detection.h"
19	25	44		mov __DU0Look_Back, reverse
19	25	46	#line 25 "C:\Users\kjeld\Documents\GitHub\SaSeRoS-Team359\Object_detection\.\../object_detection.h"
19	26	46		tst 5, __zfLook_Back, __DU0Look_Back
19	25	49	#line 25 "C:\Users\kjeld\Documents\GitHub\SaSeRoS-Team359\Object_detection\.\../object_detection.h"
19	26	49		brtst 4, __NXC_Label_760, __zfLook_Back
19	25	52	#line 25 "C:\Users\kjeld\Documents\GitHub\SaSeRoS-Team359\Object_detection\.\../object_detection.h"
19	26	52		getin __D0Look_Back, __constVal2, 4
19	25	56	#line 25 "C:\Users\kjeld\Documents\GitHub\SaSeRoS-Team359\Object_detection\.\../object_detection.h"
19	26	56		not __D0Look_Back, __D0Look_Back
19	26	59	#line 26 "C:\Users\kjeld\Documents\GitHub\SaSeRoS-Team359\Object_detection\.\../object_detection.h"
19	27	59		tst 5, __zfLook_Back, __D0Look_Back
19	26	62	#line 26 "C:\Users\kjeld\Documents\GitHub\SaSeRoS-Team359\Object_detection\.\../object_detection.h"
19	27	62		brtst 4, __NXC_Label_765, __zfLook_Back
19	27	65	#line 27 "C:\Users\kjeld\Documents\GitHub\SaSeRoS-Team359\Object_detection\.\../object_detection.h"
19	28	65		set stuck, 1
19	27	68	#line 27 "C:\Users\kjeld\Documents\GitHub\SaSeRoS-Team359\Object_detection\.\../object_detection.h"
19	27	68	#line 27 "C:\Users\kjeld\Documents\GitHub\SaSeRoS-Team359\Object_detection\.\../object_detection.h"
19	27	68	#line 27 "C:\Users\kjeld\Documents\GitHub\SaSeRoS-Team359\Object_detection\.\../object_detection.h"
19	28	68		set __signed_stack_001Look_Back, 1
19	27	71	#line 27 "C:\Users\kjeld\Documents\GitHub\SaSeRoS-Team359\Object_detection\.\../object_detection.h"
19	27	71	#line 27 "C:\Users\kjeld\Documents\GitHub\SaSeRoS-Team359\Object_detection\.\../object_detection.h"
19	28	71		set __signed_stack_002Look_Back, 1
19	27	74	#line 27 "C:\Users\kjeld\Documents\GitHub\SaSeRoS-Team359\Object_detection\.\../object_detection.h"
19	27	74	#line 27 "C:\Users\kjeld\Documents\GitHub\SaSeRoS-Team359\Object_detection\.\../object_detection.h"
19	28	74		strcat __strbufLook_Back, __constStr0015
19	28	78	#line 28 "C:\Users\kjeld\Documents\GitHub\SaSeRoS-Team359\Object_detection\.\../object_detection.h"
19	29	78		acquire __TextOutMutex
19	28	79	#line 28 "C:\Users\kjeld\Documents\GitHub\SaSeRoS-Team359\Object_detection\.\../object_detection.h"
19	29	79		mov __TextOutArgs.Location.X, __signed_stack_001Look_Back
19	28	82	#line 28 "C:\Users\kjeld\Documents\GitHub\SaSeRoS-Team359\Object_detection\.\../object_detection.h"
19	29	82		mov __TextOutArgs.Location.Y, __signed_stack_002Look_Back
19	28	85	#line 28 "C:\Users\kjeld\Documents\GitHub\SaSeRoS-Team359\Object_detection\.\../object_detection.h"
19	29	85		set __TextOutArgs.Options, 0
19	28	88	#line 28 "C:\Users\kjeld\Documents\GitHub\SaSeRoS-Team359\Object_detection\.\../object_detection.h"
19	29	88		mov __TextOutArgs.Text, __strbufLook_Back
19	28	90	#line 28 "C:\Users\kjeld\Documents\GitHub\SaSeRoS-Team359\Object_detection\.\../object_detection.h"
19	29	90		syscall 13, __TextOutArgs
19	28	93	#line 28 "C:\Users\kjeld\Documents\GitHub\SaSeRoS-Team359\Object_detection\.\../object_detection.h"
19	29	93		mov __D0Look_Back, __TextOutArgs.Result
19	28	96	#line 28 "C:\Users\kjeld\Documents\GitHub\SaSeRoS-Team359\Object_detection\.\../object_detection.h"
19	29	96		release __TextOutMutex
19	28	97	#line 28 "C:\Users\kjeld\Documents\GitHub\SaSeRoS-Team359\Object_detection\.\../object_detection.h"
19	30	97	#line 30 "C:\Users\kjeld\Documents\GitHub\SaSeRoS-Team359\Object_detection\.\../object_detection.h"
19	32	97	#line 32 "C:\Users\kjeld\Documents\GitHub\SaSeRoS-Team359\Object_detection\.\../object_detection.h"
19	33	97		jmp __NXC_Label_759
19	32	99	#line 32 "C:\Users\kjeld\Documents\GitHub\SaSeRoS-Team359\Object_detection\.\../object_detection.h"
19	33	99		exit -1, -1
20	33	0	#line 33 "C:\Users\kjeld\Documents\GitHub\SaSeRoS-Team359\Object_detection\.\../object_detection.h"
20	33	0	#line 33 "C:\Users\kjeld\Documents\GitHub\SaSeRoS-Team359\Object_detection\.\../object_detection.h"
20	34	0		not __DU0Object_Detection, stuck
20	34	3	#line 34 "C:\Users\kjeld\Documents\GitHub\SaSeRoS-Team359\Object_detection\.\../object_detection.h"
20	35	3		tst 5, __zfObject_Detection, __DU0Object_Detection
20	34	6	#line 34 "C:\Users\kjeld\Documents\GitHub\SaSeRoS-Team359\Object_detection\.\../object_detection.h"
20	35	6		brtst 4, __NXC_Label_773, __zfObject_Detection
20	34	9	#line 34 "C:\Users\kjeld\Documents\GitHub\SaSeRoS-Team359\Object_detection\.\../object_detection.h"
20	35	9	#pragma macro 26
20	35	9		acquire __RLSBmutex3
20	35	10		mov __RLSReadBuf3, __RLSBbufLSWrite1
20	35	12		set __RLSBytesCount3, 1
20	35	15		wait2 NA, __constVal15
20	35	18		subcall __ReadLSBytes3, ____ReadLSBytes3_return
20	35	21		index __D0Object_Detection, __RLSReadBuf3, 65535
20	35	25		release __RLSBmutex3
20	7357	26	#line 7357 "C:\Users\kjeld\Documents\GitHub\SaSeRoS-Team359\Object_detection\.\../object_detection.h"
20	34	26	#line 34 "C:\Users\kjeld\Documents\GitHub\SaSeRoS-Team359\Object_detection\.\../object_detection.h"
20	35	26		mov __signed_stack_001Object_Detection, __D0Object_Detection
20	34	28	#line 34 "C:\Users\kjeld\Documents\GitHub\SaSeRoS-Team359\Object_detection\.\../object_detection.h"
20	35	28		set __D0Object_Detection, 30
20	34	31	#line 34 "C:\Users\kjeld\Documents\GitHub\SaSeRoS-Team359\Object_detection\.\../object_detection.h"
20	35	31		cmp 0, __zfObject_Detection, __signed_stack_001Object_Detection, __D0Object_Detection
20	34	35	#line 34 "C:\Users\kjeld\Documents\GitHub\SaSeRoS-Team359\Object_detection\.\../object_detection.h"
20	35	35		mov __D0Object_Detection, __zfObject_Detection
20	35	38	#line 35 "C:\Users\kjeld\Documents\GitHub\SaSeRoS-Team359\Object_detection\.\../object_detection.h"
20	36	38		brtst 4, __NXC_Label_778, __zfObject_Detection
20	36	41	#line 36 "C:\Users\kjeld\Documents\GitHub\SaSeRoS-Team359\Object_detection\.\../object_detection.h"
20	37	41		subcall Stop_Driving, __Stop_Driving_return
20	36	43	#line 36 "C:\Users\kjeld\Documents\GitHub\SaSeRoS-Team359\Object_detection\.\../object_detection.h"
20	36	43	#line 36 "C:\Users\kjeld\Documents\GitHub\SaSeRoS-Team359\Object_detection\.\../object_detection.h"
20	37	43		mov __DU0Object_Detection, direction
20	37	45	#line 37 "C:\Users\kjeld\Documents\GitHub\SaSeRoS-Team359\Object_detection\.\../object_detection.h"
20	38	45		tst 5, __zfObject_Detection, __DU0Object_Detection
20	37	48	#line 37 "C:\Users\kjeld\Documents\GitHub\SaSeRoS-Team359\Object_detection\.\../object_detection.h"
20	38	48		brtst 4, __NXC_Label_780, __zfObject_Detection
20	38	51	#line 38 "C:\Users\kjeld\Documents\GitHub\SaSeRoS-Team359\Object_detection\.\../object_detection.h"
20	39	51		subcall Random_Angle, __Random_Angle_return
20	38	53	#line 38 "C:\Users\kjeld\Documents\GitHub\SaSeRoS-Team359\Object_detection\.\../object_detection.h"
20	39	53		mov angle, __D0Random_Angle
20	38	55	#line 38 "C:\Users\kjeld\Documents\GitHub\SaSeRoS-Team359\Object_detection\.\../object_detection.h"
20	38	55	#line 38 "C:\Users\kjeld\Documents\GitHub\SaSeRoS-Team359\Object_detection\.\../object_detection.h"
20	38	55	#line 38 "C:\Users\kjeld\Documents\GitHub\SaSeRoS-Team359\Object_detection\.\../object_detection.h"
20	39	55		mov __CheckDirection_7qG2_dir_7qG2_000, __D0Random_Angle
20	38	57	#line 38 "C:\Users\kjeld\Documents\GitHub\SaSeRoS-Team359\Object_detection\.\../object_detection.h"
20	39	57	#line 39 "C:\Users\kjeld\Documents\GitHub\SaSeRoS-Team359\Object_detection\.\../object_detection.h"
20	40	57		subcall CheckDirection, __CheckDirection_return
20	39	59	#line 39 "C:\Users\kjeld\Documents\GitHub\SaSeRoS-Team359\Object_detection\.\../object_detection.h"
20	39	59	#line 39 "C:\Users\kjeld\Documents\GitHub\SaSeRoS-Team359\Object_detection\.\../object_detection.h"
20	40	59		not direction, __DU0CheckDirection
20	39	62	#line 39 "C:\Users\kjeld\Documents\GitHub\SaSeRoS-Team359\Object_detection\.\../object_detection.h"
20	39	62	#line 39 "C:\Users\kjeld\Documents\GitHub\SaSeRoS-Team359\Object_detection\.\../object_detection.h"
20	42	62	#line 42 "C:\Users\kjeld\Documents\GitHub\SaSeRoS-Team359\Object_detection\.\../object_detection.h"
20	43	62		jmp __NXC_Label_779
20	42	64	#line 42 "C:\Users\kjeld\Documents\GitHub\SaSeRoS-Team359\Object_detection\.\../object_detection.h"
20	42	64	#line 42 "C:\Users\kjeld\Documents\GitHub\SaSeRoS-Team359\Object_detection\.\../object_detection.h"
20	43	64		mov __TurnRobot_7qG2_deg_7qG2_000, angle
20	42	66	#line 42 "C:\Users\kjeld\Documents\GitHub\SaSeRoS-Team359\Object_detection\.\../object_detection.h"
20	42	66	#line 42 "C:\Users\kjeld\Documents\GitHub\SaSeRoS-Team359\Object_detection\.\../object_detection.h"
20	43	66		set __TurnRobot_7qG2_pwr_7qG2_000, 50
20	42	69	#line 42 "C:\Users\kjeld\Documents\GitHub\SaSeRoS-Team359\Object_detection\.\../object_detection.h"
20	43	69	#line 43 "C:\Users\kjeld\Documents\GitHub\SaSeRoS-Team359\Object_detection\.\../object_detection.h"
20	44	69		subcall TurnRobot, __TurnRobot_return
20	43	71	#line 43 "C:\Users\kjeld\Documents\GitHub\SaSeRoS-Team359\Object_detection\.\../object_detection.h"
20	43	71	#line 43 "C:\Users\kjeld\Documents\GitHub\SaSeRoS-Team359\Object_detection\.\../object_detection.h"
20	44	71		set __Drive_Forward_7qG2_pwr_7qG2_000, 50
20	43	74	#line 43 "C:\Users\kjeld\Documents\GitHub\SaSeRoS-Team359\Object_detection\.\../object_detection.h"
20	44	74	#line 44 "C:\Users\kjeld\Documents\GitHub\SaSeRoS-Team359\Object_detection\.\../object_detection.h"
20	45	74		subcall Drive_Forward, __Drive_Forward_return
20	44	76	#line 44 "C:\Users\kjeld\Documents\GitHub\SaSeRoS-Team359\Object_detection\.\../object_detection.h"
20	45	76	#line 45 "C:\Users\kjeld\Documents\GitHub\SaSeRoS-Team359\Object_detection\.\../object_detection.h"
20	46	76		set direction, 1
20	45	79	#line 45 "C:\Users\kjeld\Documents\GitHub\SaSeRoS-Team359\Object_detection\.\../object_detection.h"
20	45	79	#line 45 "C:\Users\kjeld\Documents\GitHub\SaSeRoS-Team359\Object_detection\.\../object_detection.h"
20	46	79	#line 46 "C:\Users\kjeld\Documents\GitHub\SaSeRoS-Team359\Object_detection\.\../object_detection.h"
20	47	79		subcall ShortBeep, __ShortBeep_return
20	46	81	#line 46 "C:\Users\kjeld\Documents\GitHub\SaSeRoS-Team359\Object_detection\.\../object_detection.h"
20	47	81	#line 47 "C:\Users\kjeld\Documents\GitHub\SaSeRoS-Team359\Object_detection\.\../object_detection.h"
20	47	81	#line 47 "C:\Users\kjeld\Documents\GitHub\SaSeRoS-Team359\Object_detection\.\../object_detection.h"
20	48	81		getin __D0Object_Detection, __constVal0, 4
20	47	85	#line 47 "C:\Users\kjeld\Documents\GitHub\SaSeRoS-Team359\Object_detection\.\../object_detection.h"
20	48	85		not __D0Object_Detection, __D0Object_Detection
20	48	88	#line 48 "C:\Users\kjeld\Documents\GitHub\SaSeRoS-Team359\Object_detection\.\../object_detection.h"
20	49	88		tst 5, __zfObject_Detection, __D0Object_Detection
20	48	91	#line 48 "C:\Users\kjeld\Documents\GitHub\SaSeRoS-Team359\Object_detection\.\../object_detection.h"
20	49	91		brtst 4, __NXC_Label_799, __zfObject_Detection
20	49	94	#line 49 "C:\Users\kjeld\Documents\GitHub\SaSeRoS-Team359\Object_detection\.\../object_detection.h"
20	50	94		subcall Stop_Driving, __Stop_Driving_return
20	49	96	#line 49 "C:\Users\kjeld\Documents\GitHub\SaSeRoS-Team359\Object_detection\.\../object_detection.h"
20	50	96	#line 50 "C:\Users\kjeld\Documents\GitHub\SaSeRoS-Team359\Object_detection\.\../object_detection.h"
20	51	96		set reverse, 1
20	50	99	#line 50 "C:\Users\kjeld\Documents\GitHub\SaSeRoS-Team359\Object_detection\.\../object_detection.h"
20	50	99	#line 50 "C:\Users\kjeld\Documents\GitHub\SaSeRoS-Team359\Object_detection\.\../object_detection.h"
20	50	99	#line 50 "C:\Users\kjeld\Documents\GitHub\SaSeRoS-Team359\Object_detection\.\../object_detection.h"
20	51	99		set __Drive_Backward_7qG2_pwr_7qG2_000, 50
20	50	102	#line 50 "C:\Users\kjeld\Documents\GitHub\SaSeRoS-Team359\Object_detection\.\../object_detection.h"
20	51	102	#line 51 "C:\Users\kjeld\Documents\GitHub\SaSeRoS-Team359\Object_detection\.\../object_detection.h"
20	52	102		subcall Drive_Backward, __Drive_Backward_return
20	51	104	#line 51 "C:\Users\kjeld\Documents\GitHub\SaSeRoS-Team359\Object_detection\.\../object_detection.h"
20	51	104	#line 51 "C:\Users\kjeld\Documents\GitHub\SaSeRoS-Team359\Object_detection\.\../object_detection.h"
20	52	104		set __Wait_7qG2_ms_7qG2_000_inline_Object_Detection, 1000
20	51	107	#line 51 "C:\Users\kjeld\Documents\GitHub\SaSeRoS-Team359\Object_detection\.\../object_detection.h"
20	7921	107	#line 7921 "NXCDefs.h"
20	7922	107		wait2 NA, __Wait_7qG2_ms_7qG2_000_inline_Object_Detection
20	7921	110	#line 7921 "NXCDefs.h"
20	52	110	#line 52 "C:\Users\kjeld\Documents\GitHub\SaSeRoS-Team359\Object_detection\.\../object_detection.h"
20	53	110	#line 53 "C:\Users\kjeld\Documents\GitHub\SaSeRoS-Team359\Object_detection\.\../object_detection.h"
20	54	110		subcall Stop_Driving, __Stop_Driving_return
20	53	112	#line 53 "C:\Users\kjeld\Documents\GitHub\SaSeRoS-Team359\Object_detection\.\../object_detection.h"
20	54	112	#line 54 "C:\Users\kjeld\Documents\GitHub\SaSeRoS-Team359\Object_detection\.\../object_detection.h"
20	55	112		set reverse, 0
20	54	115	#line 54 "C:\Users\kjeld\Documents\GitHub\SaSeRoS-Team359\Object_detection\.\../object_detection.h"
20	54	115	#line 54 "C:\Users\kjeld\Documents\GitHub\SaSeRoS-Team359\Object_detection\.\../object_detection.h"
20	54	115	#line 54 "C:\Users\kjeld\Documents\GitHub\SaSeRoS-Team359\Object_detection\.\../object_detection.h"
20	55	115		mov __DU0Object_Detection, direction
20	55	117	#line 55 "C:\Users\kjeld\Documents\GitHub\SaSeRoS-Team359\Object_detection\.\../object_detection.h"
20	56	117		tst 5, __zfObject_Detection, __DU0Object_Detection
20	55	120	#line 55 "C:\Users\kjeld\Documents\GitHub\SaSeRoS-Team359\Object_detection\.\../object_detection.h"
20	56	120		brtst 4, __NXC_Label_809, __zfObject_Detection
20	56	123	#line 56 "C:\Users\kjeld\Documents\GitHub\SaSeRoS-Team359\Object_detection\.\../object_detection.h"
20	57	123		subcall Random_Angle, __Random_Angle_return
20	56	125	#line 56 "C:\Users\kjeld\Documents\GitHub\SaSeRoS-Team359\Object_detection\.\../object_detection.h"
20	57	125		mov angle, __D0Random_Angle
20	56	127	#line 56 "C:\Users\kjeld\Documents\GitHub\SaSeRoS-Team359\Object_detection\.\../object_detection.h"
20	56	127	#line 56 "C:\Users\kjeld\Documents\GitHub\SaSeRoS-Team359\Object_detection\.\../object_detection.h"
20	56	127	#line 56 "C:\Users\kjeld\Documents\GitHub\SaSeRoS-Team359\Object_detection\.\../object_detection.h"
20	57	127		mov __CheckDirection_7qG2_dir_7qG2_000, __D0Random_Angle
20	56	129	#line 56 "C:\Users\kjeld\Documents\GitHub\SaSeRoS-Team359\Object_detection\.\../object_detection.h"
20	57	129	#line 57 "C:\Users\kjeld\Documents\GitHub\SaSeRoS-Team359\Object_detection\.\../object_detection.h"
20	58	129		subcall CheckDirection, __CheckDirection_return
20	57	131	#line 57 "C:\Users\kjeld\Documents\GitHub\SaSeRoS-Team359\Object_detection\.\../object_detection.h"
20	57	131	#line 57 "C:\Users\kjeld\Documents\GitHub\SaSeRoS-Team359\Object_detection\.\../object_detection.h"
20	58	131		not direction, __DU0CheckDirection
20	57	134	#line 57 "C:\Users\kjeld\Documents\GitHub\SaSeRoS-Team359\Object_detection\.\../object_detection.h"
20	57	134	#line 57 "C:\Users\kjeld\Documents\GitHub\SaSeRoS-Team359\Object_detection\.\../object_detection.h"
20	60	134	#line 60 "C:\Users\kjeld\Documents\GitHub\SaSeRoS-Team359\Object_detection\.\../object_detection.h"
20	61	134		jmp __NXC_Label_808
20	60	136	#line 60 "C:\Users\kjeld\Documents\GitHub\SaSeRoS-Team359\Object_detection\.\../object_detection.h"
20	60	136	#line 60 "C:\Users\kjeld\Documents\GitHub\SaSeRoS-Team359\Object_detection\.\../object_detection.h"
20	61	136		mov __TurnRobot_7qG2_deg_7qG2_000, angle
20	60	138	#line 60 "C:\Users\kjeld\Documents\GitHub\SaSeRoS-Team359\Object_detection\.\../object_detection.h"
20	60	138	#line 60 "C:\Users\kjeld\Documents\GitHub\SaSeRoS-Team359\Object_detection\.\../object_detection.h"
20	61	138		set __TurnRobot_7qG2_pwr_7qG2_000, 50
20	60	141	#line 60 "C:\Users\kjeld\Documents\GitHub\SaSeRoS-Team359\Object_detection\.\../object_detection.h"
20	61	141	#line 61 "C:\Users\kjeld\Documents\GitHub\SaSeRoS-Team359\Object_detection\.\../object_detection.h"
20	62	141		subcall TurnRobot, __TurnRobot_return
20	61	143	#line 61 "C:\Users\kjeld\Documents\GitHub\SaSeRoS-Team359\Object_detection\.\../object_detection.h"
20	61	143	#line 61 "C:\Users\kjeld\Documents\GitHub\SaSeRoS-Team359\Object_detection\.\../object_detection.h"
20	62	143		set __Drive_Forward_7qG2_pwr_7qG2_000, 50
20	61	146	#line 61 "C:\Users\kjeld\Documents\GitHub\SaSeRoS-Team359\Object_detection\.\../object_detection.h"
20	62	146	#line 62 "C:\Users\kjeld\Documents\GitHub\SaSeRoS-Team359\Object_detection\.\../object_detection.h"
20	63	146		subcall Drive_Forward, __Drive_Forward_return
20	62	148	#line 62 "C:\Users\kjeld\Documents\GitHub\SaSeRoS-Team359\Object_detection\.\../object_detection.h"
20	63	148	#line 63 "C:\Users\kjeld\Documents\GitHub\SaSeRoS-Team359\Object_detection\.\../object_detection.h"
20	64	148		set direction, 1
20	63	151	#line 63 "C:\Users\kjeld\Documents\GitHub\SaSeRoS-Team359\Object_detection\.\../object_detection.h"
20	63	151	#line 63 "C:\Users\kjeld\Documents\GitHub\SaSeRoS-Team359\Object_detection\.\../object_detection.h"
20	64	151	#line 64 "C:\Users\kjeld\Documents\GitHub\SaSeRoS-Team359\Object_detection\.\../object_detection.h"
20	65	151		subcall LongBeep, __LongBeep_return
20	64	153	#line 64 "C:\Users\kjeld\Documents\GitHub\SaSeRoS-Team359\Object_detection\.\../object_detection.h"
20	67	153	#line 67 "C:\Users\kjeld\Documents\GitHub\SaSeRoS-Team359\Object_detection\.\../object_detection.h"
20	68	153	#line 68 "C:\Users\kjeld\Documents\GitHub\SaSeRoS-Team359\Object_detection\.\../object_detection.h"
20	69	153		jmp __NXC_Label_772
20	68	155	#line 68 "C:\Users\kjeld\Documents\GitHub\SaSeRoS-Team359\Object_detection\.\../object_detection.h"
20	69	155		exit -1, -1
21	0	0		subret __Object_Detection_Spawner_return
22	0	0		exit 0, 1
23	0	0		subret __Look_Back_Spawner_return
24	0	0		exit 0, 1
25	45	0	#line 45 "C:\Users\kjeld\Documents\GitHub\SaSeRoS-Team359\Object_detection\Object_detection.nxc"
25	46	0		subret ____initialize_global_data_return
#CLUMPS
Clump	Name	Offset	File
0	main	0	C:\Users\kjeld\Documents\GitHub\SaSeRoS-Team359\Object_detection\Object_detection.nxc
1	__RotateMotor2	16	NXTDefs.h
2	__RotateMotor3	185	NXTDefs.h
3	__ResetSensorSubroutine	354	NXTDefs.h
4	__ReadLSBytes3	367	NXTDefs.h
5	Touch_Init	452	C:\Users\kjeld\Documents\GitHub\SaSeRoS-Team359\Object_detection\.\../basic_functions/functions.h
6	Range_Sens_Init	472	C:\Users\kjeld\Documents\GitHub\SaSeRoS-Team359\Object_detection\.\../basic_functions/functions.h
7	Light_Sens_Init	529	C:\Users\kjeld\Documents\GitHub\SaSeRoS-Team359\Object_detection\.\../basic_functions/functions.h
8	TurnMotor	586	C:\Users\kjeld\Documents\GitHub\SaSeRoS-Team359\Object_detection\.\../basic_functions/functions.h
9	TurnRobot	678	C:\Users\kjeld\Documents\GitHub\SaSeRoS-Team359\Object_detection\.\../basic_functions/functions.h
10	Stop_Driving	688	C:\Users\kjeld\Documents\GitHub\SaSeRoS-Team359\Object_detection\.\../basic_functions/functions.h
11	Drive_Forward	736	C:\Users\kjeld\Documents\GitHub\SaSeRoS-Team359\Object_detection\.\../basic_functions/functions.h
12	Drive_Backward	792	C:\Users\kjeld\Documents\GitHub\SaSeRoS-Team359\Object_detection\.\../basic_functions/functions.h
13	ShortBeep	858	C:\Users\kjeld\Documents\GitHub\SaSeRoS-Team359\Object_detection\.\../basic_functions/functions.h
14	LongBeep	892	C:\Users\kjeld\Documents\GitHub\SaSeRoS-Team359\Object_detection\.\../basic_functions/functions.h
15	initialise	926	C:\Users\kjeld\Documents\GitHub\SaSeRoS-Team359\Object_detection\.\../initialise.h
16	TurnTurret	1528	C:\Users\kjeld\Documents\GitHub\SaSeRoS-Team359\Object_detection\.\../scanner.h
17	CheckDirection	1560	C:\Users\kjeld\Documents\GitHub\SaSeRoS-Team359\Object_detection\.\../scanner.h
18	Random_Angle	1628	C:\Users\kjeld\Documents\GitHub\SaSeRoS-Team359\Object_detection\.\../object_detection.h
19	Look_Back	1645	C:\Users\kjeld\Documents\GitHub\SaSeRoS-Team359\Object_detection\.\../object_detection.h
20	Object_Detection	1747	C:\Users\kjeld\Documents\GitHub\SaSeRoS-Team359\Object_detection\.\../object_detection.h
21	__Object_Detection_Returner	1905	C:\Users\kjeld\Documents\GitHub\SaSeRoS-Team359\Object_detection\Object_detection.nxc
22	__Object_Detection_Spawner	1907	C:\Users\kjeld\Documents\GitHub\SaSeRoS-Team359\Object_detection\Object_detection.nxc
23	__Look_Back_Returner	1910	C:\Users\kjeld\Documents\GitHub\SaSeRoS-Team359\Object_detection\Object_detection.nxc
24	__Look_Back_Spawner	1912	C:\Users\kjeld\Documents\GitHub\SaSeRoS-Team359\Object_detection\Object_detection.nxc
25	__initialize_global_data	1915	C:\Users\kjeld\Documents\GitHub\SaSeRoS-Team359\Object_detection\Object_detection.nxc
