#SYMBOLS
Index	Identifier	Type	Flag	Data	Size	RefCount
0	__DU0Object_Detection	5	1	0	4	2
1	__D0ShortBeep	6	1	4	4	3
2	__D0Object_Detection	6	1	8	4	9
3	__D0LongBeep	6	1	12	4	3
4	__D0Look_Back	6	1	16	4	15
5	__D0TurnMotor	6	1	20	4	7
6	__DU0SetSensorLight_inline_Light_Sens_Init	5	1	24	4	2
7	__D0SetSensorLowspeed_inline_SetSensorUltrasonic	6	1	28	4	6
8	__D0SetSensorLight_inline_Light_Sens_Init	6	1	32	4	3
9	__D0TurnTurret	6	1	36	4	2
10	__D0UltrasonicScan	6	1	40	4	15
11	__CLSRMutex3	9	0	44	4	2
12	__TextOutMutex	9	0	48	4	34
13	__CLSWMutex3	9	0	52	4	2
14	__ResetSensorMutex	9	0	56	4	6
15	__CLSCSMutex3	9	0	60	4	2
16	__RLSBmutex3	9	0	64	4	10
17	__D0Drive_Forward	6	1	68	4	4
18	__D0initialise	6	1	72	4	35
19	__D0Drive_Backward	6	1	76	4	4
20	__SPTArgsMutex	9	0	80	4	4
21	__D0CenterTurret	6	1	84	4	2
22	__signed_stack_001TurnMotor	6	1	88	4	6
23	__signed_stack_002TurnMotor	6	1	92	4	4
24	__signed_stack_003ShortBeep	6	1	96	4	2
25	__signed_stack_001ShortBeep	6	1	100	4	2
26	__signed_stack_002ShortBeep	6	1	104	4	2
27	__signed_stack_003TurnMotor	6	1	108	4	4
28	__constValf3P5	10	0	112	4	1
29	__Wait_7qG2_ms_7qG2_000_inline_initialise	5	1	116	4	7
30	__signed_stack_001UltrasonicScan	6	1	120	4	4
31	__signed_stack_004TurnMotor	6	1	124	4	4
32	__signed_stack_001TurnTurret	6	1	128	4	2
33	__signed_stack_002initialise	6	1	132	4	22
34	__signed_stack_001LongBeep	6	1	136	4	2
35	__signed_stack_001initialise	6	1	140	4	26
36	__DU0SetSensorLowspeed_inline_SetSensorUltrasonic	5	1	144	4	4
37	__signed_stack_001CenterTurret	6	1	148	4	2
38	__signed_stack_002LongBeep	6	1	152	4	2
39	__unsigned_stack_001Look_Back	5	1	156	4	4
40	__signed_stack_001Object_Detection	6	1	160	4	2
41	__signed_stack_002Look_Back	6	1	164	4	2
42	__signed_stack_003LongBeep	6	1	168	4	2
43	__signed_stack_001Look_Back	6	1	172	4	2
44	__rotate_angle3	6	1	176	4	5
45	__rotate_theAngle2	5	1	180	4	2
46	__rotate_theAngle3	5	1	184	4	2
47	__rotate_angle2	6	1	188	4	5
48	__rotateMutex2	9	0	192	4	4
49	__rotate_OldRotCount2	4	1	196	2	2
50	__rotate_RotCount2	4	1	198	2	4
51	__initialise_7qG2_Light_7qG2_000	4	1	200	2	3
52	scanner_currentRotation	4	1	202	2	6
53	__initialise_7qG2_Range_7qG2_000	4	1	204	2	3
54	__rotate_OldRotCount3	4	1	206	2	2
55	__TurnRobot_7qG2_deg_7qG2_000	4	1	208	2	4
56	__TurnMotor_7qG2_deg_7qG2_000	4	1	210	2	4
57	__TurnMotor_7qG2_pwr_7qG2_000	4	1	212	2	3
58	__TurnRobot_7qG2_pwr_7qG2_000	4	1	214	2	4
59	__Drive_Backward_7qG2_pwr_7qG2_000	4	1	216	2	4
60	__Drive_Forward_7qG2_pwr_7qG2_000	4	1	218	2	6
61	__Light_Sens_Init_7qG2_Port_7qG2_000	4	1	220	2	3
62	__UltrasonicScan_7qG2_sensor_value_7qG2_000	4	1	222	2	2
63	__Touch_Init_7qG2_Port_7qG2_000	4	1	224	2	4
64	__Range_Sens_Init_7qG2_Port_7qG2_000	4	1	226	2	3
65	angle	4	1	228	2	2
66	__rotate_RotCount3	4	1	230	2	4
67	__TurnTurret_7qG2_deg_7qG2_000	4	1	232	2	4
68	__SetSensorMode_7qG2_port_7qG2_000_inline_Touch_Init	1	1	234	1	2
69	__Touch_Init_return	1	1	235	1	4
70	__SetSensorType_7qG2_type_7qG2_000_inline_Touch_Init	1	1	236	1	2
71	__SetSensorType_7qG2_port_7qG2_000_inline_Touch_Init	1	1	237	1	2
72	__SetSensorLight_7qG2_port_7qG2_000_inline_Light_Sens_Init	1	1	238	1	4
73	__SetSensorLight_7qG2_bActive_7qG2_000_inline_Light_Sens_Init	1	1	239	1	2
74	__SetSensorType_7qG2_port_7qG2_000_inline_SetSensorLight_inline_Light_Sens_Init	1	1	240	1	2
75	__Light_Sens_Init_return	1	1	241	1	3
76	__SetSensorType_7qG2_type_7qG2_000_inline_SetSensorLight_inline_Light_Sens_Init	1	1	242	1	2
77	__SetSensorMode_7qG2_port_7qG2_000_inline_SetSensorLowspeed_inline_SetSensorUltrasonic_inline_Range_Sens_Init	1	1	243	1	2
78	__SetSensorLowspeed_7qG2_port_7qG2_000_inline_SetSensorUltrasonic_inline_Range_Sens_Init	1	1	244	1	4
79	__SetSensorLowspeed_7qG2_bIsPowered_7qG2_000_inline_SetSensorUltrasonic_inline_Range_Sens_Init	1	1	245	1	2
80	__SetSensorType_7qG2_type_7qG2_000_inline_SetSensorLowspeed_inline_SetSensorUltrasonic_inline_Range_Sens_Init	1	1	246	1	2
81	__SetSensorType_7qG2_port_7qG2_000_inline_SetSensorLowspeed_inline_SetSensorUltrasonic_inline_Range_Sens_Init	1	1	247	1	2
82	__SetSensorMode_7qG2_mode_7qG2_000_inline_SetSensorLowspeed_inline_SetSensorUltrasonic_inline_Range_Sens_Init	1	1	248	1	2
83	__SetSensorMode_7qG2_port_7qG2_000_inline_Range_Sens_Init	1	1	249	1	2
84	__SetSensorMode_7qG2_mode_7qG2_000_inline_Range_Sens_Init	1	1	250	1	2
85	__SetSensorMode_7qG2_mode_7qG2_000_inline_Touch_Init	1	1	251	1	2
86	__Range_Sens_Init_return	1	1	252	1	3
87	__ResetSensor_7qG2_port_7qG2_000_inline_SetSensorLowspeed_inline_SetSensorUltrasonic_inline_Range_Sens_Init	1	1	253	1	2
88	__SetSensorMode_7qG2_port_7qG2_000_inline_SetSensorLight_inline_Light_Sens_Init	1	1	254	1	2
89	__SetSensorLowspeed_7qG2_port_7qG2_000_inline_SetSensorUltrasonic_inline_UltrasonicScan	1	1	255	1	4
90	__SetSensorLowspeed_7qG2_bIsPowered_7qG2_000_inline_SetSensorUltrasonic_inline_UltrasonicScan	1	1	256	1	2
91	__SetSensorType_7qG2_port_7qG2_000_inline_SetSensorLowspeed_inline_SetSensorUltrasonic_inline_UltrasonicScan	1	1	257	1	2
92	__UltrasonicScan_return	1	1	258	1	6
93	__ClearLine_7qG2_line_7qG2_000_inline_initialise	1	1	259	1	14
94	__TurnTurret_return	1	1	260	1	4
95	__CenterTurret_return	1	1	261	1	4
96	stuck	1	1	262	1	3
97	reverse	1	1	263	1	4
98	____initialize_global_data_return	1	1	264	1	3
99	__ResetSensor_7qG2_port_7qG2_000_inline_SetSensorLowspeed_inline_SetSensorUltrasonic_inline_UltrasonicScan	1	1	265	1	2
100	__SetSensorType_7qG2_type_7qG2_000_inline_SetSensorLowspeed_inline_SetSensorUltrasonic_inline_UltrasonicScan	1	1	266	1	2
101	__SetSensorMode_7qG2_port_7qG2_000_inline_SetSensorLowspeed_inline_SetSensorUltrasonic_inline_UltrasonicScan	1	1	267	1	2
102	__SetSensorMode_7qG2_mode_7qG2_000_inline_SetSensorLowspeed_inline_SetSensorUltrasonic_inline_UltrasonicScan	1	1	268	1	2
103	__initialise_return	1	1	269	1	3
104	__TurnMotor_return	1	1	270	1	3
105	__constVal96	2	0	271	1	10
106	__TurnRobot_return	1	1	272	1	5
107	__SetSensorMode_7qG2_mode_7qG2_000_inline_Light_Sens_Init	1	1	273	1	2
108	__SetSensorMode_7qG2_mode_7qG2_000_inline_SetSensorLight_inline_Light_Sens_Init	1	1	274	1	2
109	__ResetSensor_7qG2_port_7qG2_000_inline_SetSensorLight_inline_Light_Sens_Init	1	1	275	1	2
110	__SetSensorMode_7qG2_port_7qG2_000_inline_Light_Sens_Init	1	1	276	1	2
111	__Drive_Backward_return	1	1	277	1	4
112	__ShortBeep_return	1	1	278	1	3
113	__LongBeep_return	1	1	279	1	3
114	__Drive_Forward_return	1	1	280	1	6
115	__OnRev_Tmp	2	1	281	1	4
116	__Stop_Driving_return	1	1	282	1	7
117	__constVal63	2	0	283	1	6
118	__constVal100	2	0	284	1	2
119	__rotate_rs3	1	1	285	1	2
120	__rotate_theRVD3	1	1	286	1	3
121	__RLSBytesCount3	1	1	287	1	11
122	__RLSBIterations3	1	1	288	1	4
123	__constVal10	2	0	289	1	2
124	__rotate_theRVI3	1	1	290	1	3
125	__rotate_theRM3	1	1	291	1	4
126	__rotate_theOM3	1	1	292	1	7
127	__zfLook_Back	1	1	293	1	10
128	__rotate_theRVP3	1	1	294	1	3
129	__rotate_theRS3	1	1	295	1	3
130	__zfinitialise	1	1	296	1	18
131	__RLSBResult3	2	1	297	1	7
132	____RotateMotor3_return	1	1	298	1	4
133	__constVal3	2	0	299	1	7
134	__constVal32	2	0	300	1	28
135	__constVal1	2	0	301	1	17
136	__constVal0	2	1	302	1	61
137	____RotateMotor2_return	1	1	303	1	4
138	__ResetSensorPort	1	1	304	1	5
139	__rotate_thePower3	2	1	305	1	4
140	__constVal2	2	0	306	1	5
141	____ReadLSBytes3_return	1	1	307	1	7
142	__ResetSensorTmp	1	1	308	1	2
143	____ResetSensorSubroutine_return	1	1	309	1	5
144	__rotate_theTurnPct3	2	1	310	1	4
145	__rotate_theUF3	1	1	311	1	6
146	__rotate_theRVI2	1	1	312	1	3
147	__rotate_theRVP2	1	1	313	1	3
148	__rotate_theRS2	1	1	314	1	3
149	__rotate_theRVD2	1	1	315	1	3
150	__zfSetSensorLowspeed_inline_SetSensorUltrasonic	1	1	316	1	4
151	__rotate_thePower2	2	1	317	1	4
152	__rotate_rs2	1	1	318	1	2
153	__rotate_theRM2	1	1	319	1	4
154	__rotate_sync2	1	1	320	1	3
155	__rotate_firstPort2	1	1	321	1	5
156	__rotate_power2	1	1	322	1	5
157	__rotate_stop2	1	1	323	1	3
158	__rotate_theOM2	1	1	324	1	7
159	__rotate_theUF2	1	1	325	1	6
160	__rotate_turnpct2	2	1	326	1	4
161	__zfTurnMotor	1	1	327	1	3
162	__rotate_sync3	1	1	328	1	3
163	__rotate_power3	1	1	329	1	5
164	__zfUltrasonicScan	1	1	330	1	6
165	__rotate_firstPort3	1	1	331	1	5
166	__rotate_theTurnPct2	2	1	332	1	4
167	__rotate_turnpct3	2	1	333	1	4
168	__zfSetSensorLight_inline_Light_Sens_Init	1	1	334	1	2
169	__rotate_stop3	1	1	335	1	3
170	__zfObject_Detection	1	1	336	1	7
171	__TextOutArgs	8	0	4	16	95
172	__TextOutArgs.Result	2	1	340	1	95
173	__TextOutArgs.Location	8	0	2	4	95
174	__TextOutArgs.Location.X	4	1	344	2	95
175	__TextOutArgs.Location.Y	4	1	346	2	95
176	__TextOutArgs.Text	7	0	348	4	95
177	__TextOutArgs.Text.Text_type	1	0	0	1	0
178	__TextOutArgs.Options	5	1	352	4	95
179	__CLSRArgs3	8	0	4	12	5
180	__CLSRArgs3.Result	2	1	356	1	5
181	__CLSRArgs3.Port	1	1	357	1	5
182	__CLSRArgs3.Buffer	7	0	358	4	5
183	__CLSRArgs3.Buffer.Buffer_type	1	0	0	1	0
184	__CLSRArgs3.BufferLen	1	1	360	1	5
185	__CLSCSArgs3	8	0	3	4	4
186	__CLSCSArgs3.Result	2	1	364	1	4
187	__CLSCSArgs3.Port	1	1	365	1	4
188	__CLSCSArgs3.BytesReady	1	1	366	1	4
189	__CLSWArgs3	8	0	4	12	5
190	__CLSWArgs3.Result	2	1	368	1	5
191	__CLSWArgs3.Port	1	1	369	1	5
192	__CLSWArgs3.Buffer	7	0	370	4	5
193	__CLSWArgs3.Buffer.Buffer_type	1	0	0	1	0
194	__CLSWArgs3.ReturnLen	1	1	372	1	5
195	__SPTArgs	8	0	5	8	12
196	__SPTArgs.Result	2	1	376	1	12
197	__SPTArgs.Frequency	3	1	378	2	12
198	__SPTArgs.Duration	3	1	380	2	12
199	__SPTArgs.Loop	1	1	382	1	12
200	__SPTArgs.Volume	1	1	383	1	12
201	__RLSLastGoodRead3	7	0	384	4	2
202	__RLSLastGoodRead3.__RLSLastGoodRead3_type	1	0	0	1	0
203	__OUT_AB	7	0	386	4	2
204	__OUT_AB.__OUT_AB_type	1	0	0	1	0
205	__strbufinitialise	7	0	388	4	18
206	__strbufinitialise.__strbufinitialise_type	1	0	0	1	0
207	__constStr0015	7	0	390	4	1
208	__constStr0015.__constStr0015_type	1	1	0	1	0
209	__strbufLook_Back	7	0	392	4	2
210	__strbufLook_Back.__strbufLook_Back_type	1	0	0	1	0
211	__RLSReadBuf3	7	0	394	4	16
212	__RLSReadBuf3.__RLSReadBuf3_type	1	0	0	1	0
213	__rotate_ports2	7	0	396	4	7
214	__rotate_ports2.__rotate_ports2_type	1	0	0	1	0
215	__constStr0009	7	0	398	4	1
216	__constStr0009.__constStr0009_type	1	1	0	1	0
217	__constStr0014	7	0	400	4	1
218	__constStr0014.__constStr0014_type	1	1	0	1	0
219	__constStr0013	7	0	402	4	1
220	__constStr0013.__constStr0013_type	1	1	0	1	0
221	__BlankLine	7	0	404	4	7
222	__BlankLine.__BlankLine_type	1	0	0	1	0
223	__RLSBbufLSWrite1	7	0	406	4	5
224	__RLSBbufLSWrite1.__RLSBbufLSWrite1_type	1	0	0	1	0
225	__constStr0011	7	0	408	4	1
226	__constStr0011.__constStr0011_type	1	1	0	1	0
227	__constStr0010	7	0	410	4	4
228	__constStr0010.__constStr0010_type	1	1	0	1	0
229	__constStr0012	7	0	412	4	1
230	__constStr0012.__constStr0012_type	1	1	0	1	0
231	__rotate_ports3	7	0	414	4	7
232	__rotate_ports3.__rotate_ports3_type	1	0	0	1	0
#SOURCES
Clump	Line	PC	Source
0	84	0	#line 84 "C:\Users\Pascal\AppData\Local\Temp\temp.nxc"
0	85	0		subcall __initialize_global_data, ____initialize_global_data_return
0	84	2	#line 84 "C:\Users\Pascal\AppData\Local\Temp\temp.nxc"
0	85	2	#line 85 "C:\Users\Pascal\AppData\Local\Temp\temp.nxc"
0	86	2		subcall initialise, __initialise_return
0	85	4	#line 85 "C:\Users\Pascal\AppData\Local\Temp\temp.nxc"
0	85	4	#line 85 "C:\Users\Pascal\AppData\Local\Temp\temp.nxc"
0	86	4		set __Drive_Forward_7qG2_pwr_7qG2_000, 50
0	85	7	#line 85 "C:\Users\Pascal\AppData\Local\Temp\temp.nxc"
0	86	7	#line 86 "C:\Users\Pascal\AppData\Local\Temp\temp.nxc"
0	87	7		subcall Drive_Forward, __Drive_Forward_return
0	86	9	#line 86 "C:\Users\Pascal\AppData\Local\Temp\temp.nxc"
0	88	9	#line 88 "C:\Users\Pascal\AppData\Local\Temp\temp.nxc"
0	89	9		start Object_Detection
0	88	11	#line 88 "C:\Users\Pascal\AppData\Local\Temp\temp.nxc"
0	89	11	#line 89 "C:\Users\Pascal\AppData\Local\Temp\temp.nxc"
0	90	11		start Look_Back
0	89	13	#line 89 "C:\Users\Pascal\AppData\Local\Temp\temp.nxc"
0	90	13		exit -1, -1
1	4582	0		brtst 4, __rotate_Done2, __rotate_angle2
1	4583	3		sign __rotate_thePower2, __rotate_angle2
1	4584	6		abs __rotate_theAngle2, __rotate_angle2
1	4585	9		mul __rotate_thePower2, __rotate_thePower2, __rotate_power2
1	4587	13		set __rotate_theUF2, 23
1	4588	16		brtst 4, __rotate_NoSync2, __rotate_sync2
1	4589	19		set __rotate_theOM2, 7
1	4590	22		set __rotate_theRM2, 2
1	4591	25		mov __rotate_theTurnPct2, __rotate_turnpct2
1	4592	27		brtst 4, __rotate_Start2, __rotate_theTurnPct2
1	4593	30		add __rotate_theUF2, __rotate_theUF2, __constVal32
1	4594	34		jmp __rotate_Start2
1	4596	36		set __rotate_theOM2, 3
1	4597	39		set __rotate_theRM2, 0
1	4598	42		set __rotate_theTurnPct2, 0
1	4600	45		set __rotate_theRS2, 32
1	4601	48		setout __rotate_ports2, 1, __rotate_theOM2, 8, __rotate_theRM2, 5, __rotate_theAngle2, 6, __rotate_theRS2, 10, __rotate_theRVP2, 11, __rotate_theRVI2, 12, __rotate_theRVD2, 2, __rotate_thePower2, 7, __rotate_turnpct2, 0, __rotate_theUF2
1	4604	71		index __rotate_firstPort2, __rotate_ports2, 65535
1	4606	75		getout __rotate_power2, __rotate_firstPort2, 2
1	4607	79		brtst 4, __rotate_doneRunning2, __rotate_power2
1	4608	82		getout __rotate_rs2, __rotate_firstPort2, 6
1	4609	86		brcmp 4, __rotate_Running2, __rotate_rs2, __constVal32
1	4611	90		brtst 4, __rotate_Reset2, __rotate_stop2
1	4613	93		set __rotate_theOM2, 7
1	4614	96		set __rotate_theUF2, 7
1	4615	99		setout __rotate_ports2, 1, __rotate_theOM2, 8, __constVal1, 6, __rotate_theRS2, 2, __constVal0, 5, __constVal0, 0, __rotate_theUF2
1	4617	114		getout __rotate_RotCount2, __rotate_firstPort2, 14
1	4619	118		mov __rotate_OldRotCount2, __rotate_RotCount2
1	4620	120		wait 50
1	4622	122		getout __rotate_RotCount2, __rotate_firstPort2, 14
1	4623	126		brcmp 5, __rotate_Stabilize2, __rotate_OldRotCount2, __rotate_RotCount2
1	4624	130		set __rotate_theOM2, 4
1	4625	133		setout __rotate_ports2, 8, __rotate_theRM2, 6, __constVal0, 1, __rotate_theOM2, 0, __constVal1
1	4628	144		brtst 4, __rotate_Done2, __rotate_theTurnPct2
1	4629	147		setout __rotate_ports2, 0, __constVal32
1	4631	152		subret ____RotateMotor2_return
2	4635	0		brtst 4, __rotate_Done3, __rotate_angle3
2	4636	3		sign __rotate_thePower3, __rotate_angle3
2	4637	6		abs __rotate_theAngle3, __rotate_angle3
2	4638	9		mul __rotate_thePower3, __rotate_thePower3, __rotate_power3
2	4640	13		set __rotate_theUF3, 23
2	4641	16		brtst 4, __rotate_NoSync3, __rotate_sync3
2	4642	19		set __rotate_theOM3, 7
2	4643	22		set __rotate_theRM3, 2
2	4644	25		mov __rotate_theTurnPct3, __rotate_turnpct3
2	4645	27		brtst 4, __rotate_Start3, __rotate_theTurnPct3
2	4646	30		add __rotate_theUF3, __rotate_theUF3, __constVal32
2	4647	34		jmp __rotate_Start3
2	4649	36		set __rotate_theOM3, 3
2	4650	39		set __rotate_theRM3, 0
2	4651	42		set __rotate_theTurnPct3, 0
2	4653	45		set __rotate_theRS3, 32
2	4654	48		setout __rotate_ports3, 1, __rotate_theOM3, 8, __rotate_theRM3, 5, __rotate_theAngle3, 6, __rotate_theRS3, 10, __rotate_theRVP3, 11, __rotate_theRVI3, 12, __rotate_theRVD3, 2, __rotate_thePower3, 7, __rotate_turnpct3, 0, __rotate_theUF3
2	4657	71		index __rotate_firstPort3, __rotate_ports3, 65535
2	4659	75		getout __rotate_power3, __rotate_firstPort3, 2
2	4660	79		brtst 4, __rotate_doneRunning3, __rotate_power3
2	4661	82		getout __rotate_rs3, __rotate_firstPort3, 6
2	4662	86		brcmp 4, __rotate_Running3, __rotate_rs3, __constVal32
2	4664	90		brtst 4, __rotate_Reset3, __rotate_stop3
2	4666	93		set __rotate_theOM3, 7
2	4667	96		set __rotate_theUF3, 7
2	4668	99		setout __rotate_ports3, 1, __rotate_theOM3, 8, __constVal1, 6, __rotate_theRS3, 2, __constVal0, 5, __constVal0, 0, __rotate_theUF3
2	4670	114		getout __rotate_RotCount3, __rotate_firstPort3, 14
2	4672	118		mov __rotate_OldRotCount3, __rotate_RotCount3
2	4673	120		wait 50
2	4675	122		getout __rotate_RotCount3, __rotate_firstPort3, 14
2	4676	126		brcmp 5, __rotate_Stabilize3, __rotate_OldRotCount3, __rotate_RotCount3
2	4677	130		set __rotate_theOM3, 4
2	4678	133		setout __rotate_ports3, 8, __rotate_theRM3, 6, __constVal0, 1, __rotate_theOM3, 0, __constVal1
2	4681	144		brtst 4, __rotate_Done3, __rotate_theTurnPct3
2	4682	147		setout __rotate_ports3, 0, __constVal32
2	4684	152		subret ____RotateMotor3_return
3	4885	0		setin __constVal1, __ResetSensorPort, 5
3	4887	4		getin __ResetSensorTmp, __ResetSensorPort, 5
3	4888	8		brtst 5, __SensorStillInvalid, __ResetSensorTmp
3	4889	11		subret ____ResetSensorSubroutine_return
4	5784	0	#pragma macro 25
4	5784	0		acquire __CLSWMutex3
4	5784	1		set __CLSWArgs3.Port, 3
4	5784	4		mov __CLSWArgs3.ReturnLen, __RLSBytesCount3
4	5784	6		mov __CLSWArgs3.Buffer, __RLSReadBuf3
4	5784	8		syscall 21, __CLSWArgs3
4	5784	11		mov __RLSBResult3, __CLSWArgs3.Result
4	5784	13		release __CLSWMutex3
4	5784	14	#line 5784 "NXTDefs.h"
4	5785	14		brtst 4, __RLSBReturn3, __RLSBytesCount3
4	5786	17		arrinit __RLSReadBuf3, __constVal0, __RLSBytesCount3
4	5787	21		brtst 5, __RLSBError3, __RLSBResult3
4	5788	24		set __RLSBIterations3, 4
4	5790	27	#pragma macro 23
4	5790	27		acquire __CLSCSMutex3
4	5790	28		set __CLSCSArgs3.Port, 3
4	5790	31		syscall 23, __CLSCSArgs3
4	5790	34		mov __RLSBytesCount3, __CLSCSArgs3.BytesReady
4	5790	36		mov __RLSBResult3, __CLSCSArgs3.Result
4	5790	38		release __CLSCSMutex3
4	5790	39	#line 5790 "NXTDefs.h"
4	5791	39		sub __RLSBIterations3, __RLSBIterations3, __constVal1
4	5792	43		brtst 2, __RLSBError3, __RLSBIterations3
4	5793	46		brtst 0, __RLSBError3, __RLSBResult3
4	5794	49		brtst 4, __RLSBReadyToRead3, __RLSBResult3
4	5796	52		wait 15
4	5797	54		jmp __RLSBDoCheckStatus3
4	5800	56	#pragma macro 25
4	5800	56		acquire __CLSRMutex3
4	5800	57		set __CLSRArgs3.Port, 3
4	5800	60		mov __CLSRArgs3.BufferLen, __RLSBytesCount3
4	5800	62		syscall 22, __CLSRArgs3
4	5800	65		mov __RLSReadBuf3, __CLSRArgs3.Buffer
4	5800	67		mov __RLSBResult3, __CLSRArgs3.Result
4	5800	69		release __CLSRMutex3
4	5800	70	#line 5800 "NXTDefs.h"
4	5801	70		brtst 5, __RLSBError3, __RLSBResult3
4	5802	73		mov __RLSLastGoodRead3, __RLSReadBuf3
4	5803	75		jmp __RLSBDone3
4	5805	77		mov __RLSReadBuf3, __RLSLastGoodRead3
4	5807	79		arrsize __RLSBytesCount3, __RLSReadBuf3
4	5809	82		subret ____ReadLSBytes3_return
5	4	0	#line 4 "C:\Users\Pascal\Documents\GitHub\SaSeRoS-Team359\Object_detection\../basic_functions/functions.h"
5	5	0		mov __SetSensorType_7qG2_port_7qG2_000_inline_Touch_Init, __Touch_Init_7qG2_Port_7qG2_000
5	4	2	#line 4 "C:\Users\Pascal\Documents\GitHub\SaSeRoS-Team359\Object_detection\../basic_functions/functions.h"
5	4	2	#line 4 "C:\Users\Pascal\Documents\GitHub\SaSeRoS-Team359\Object_detection\../basic_functions/functions.h"
5	5	2		set __SetSensorType_7qG2_type_7qG2_000_inline_Touch_Init, 1
5	4	5	#line 4 "C:\Users\Pascal\Documents\GitHub\SaSeRoS-Team359\Object_detection\../basic_functions/functions.h"
5	3663	5	#line 3663 "NXCDefs.h"
5	3664	5		setin __SetSensorType_7qG2_type_7qG2_000_inline_Touch_Init, __SetSensorType_7qG2_port_7qG2_000_inline_Touch_Init, 0
5	3663	9	#line 3663 "NXCDefs.h"
5	5	9	#line 5 "C:\Users\Pascal\Documents\GitHub\SaSeRoS-Team359\Object_detection\../basic_functions/functions.h"
5	5	9	#line 5 "C:\Users\Pascal\Documents\GitHub\SaSeRoS-Team359\Object_detection\../basic_functions/functions.h"
5	6	9		mov __SetSensorMode_7qG2_port_7qG2_000_inline_Touch_Init, __Touch_Init_7qG2_Port_7qG2_000
5	5	11	#line 5 "C:\Users\Pascal\Documents\GitHub\SaSeRoS-Team359\Object_detection\../basic_functions/functions.h"
5	5	11	#line 5 "C:\Users\Pascal\Documents\GitHub\SaSeRoS-Team359\Object_detection\../basic_functions/functions.h"
5	6	11		set __SetSensorMode_7qG2_mode_7qG2_000_inline_Touch_Init, 32
5	5	14	#line 5 "C:\Users\Pascal\Documents\GitHub\SaSeRoS-Team359\Object_detection\../basic_functions/functions.h"
5	3676	14	#line 3676 "NXCDefs.h"
5	3677	14		setin __SetSensorMode_7qG2_mode_7qG2_000_inline_Touch_Init, __SetSensorMode_7qG2_port_7qG2_000_inline_Touch_Init, 1
5	3676	18	#line 3676 "NXCDefs.h"
5	6	18	#line 6 "C:\Users\Pascal\Documents\GitHub\SaSeRoS-Team359\Object_detection\../basic_functions/functions.h"
5	8	18	#line 8 "C:\Users\Pascal\Documents\GitHub\SaSeRoS-Team359\Object_detection\../basic_functions/functions.h"
5	9	18		subret __Touch_Init_return
6	9	0	#line 9 "C:\Users\Pascal\Documents\GitHub\SaSeRoS-Team359\Object_detection\../basic_functions/functions.h"
6	9	0	#line 9 "C:\Users\Pascal\Documents\GitHub\SaSeRoS-Team359\Object_detection\../basic_functions/functions.h"
6	3768	0	#line 3768 "NXCDefs.h"
6	3769	0		mov __SetSensorLowspeed_7qG2_port_7qG2_000_inline_SetSensorUltrasonic_inline_Range_Sens_Init, __Range_Sens_Init_7qG2_Port_7qG2_000
6	3768	2	#line 3768 "NXCDefs.h"
6	3768	2	#line 3768 "NXCDefs.h"
6	3769	2		mov __SetSensorLowspeed_7qG2_bIsPowered_7qG2_000_inline_SetSensorUltrasonic_inline_Range_Sens_Init, __constVal1
6	3758	4	#line 3758 "NXCDefs.h"
6	3759	4		mov __SetSensorType_7qG2_port_7qG2_000_inline_SetSensorLowspeed_inline_SetSensorUltrasonic_inline_Range_Sens_Init, __SetSensorLowspeed_7qG2_port_7qG2_000_inline_SetSensorUltrasonic_inline_Range_Sens_Init
6	3758	6	#line 3758 "NXCDefs.h"
6	3758	6	#line 3758 "NXCDefs.h"
6	3759	6		mov __DU0SetSensorLowspeed_inline_SetSensorUltrasonic, __SetSensorLowspeed_7qG2_bIsPowered_7qG2_000_inline_SetSensorUltrasonic_inline_Range_Sens_Init
6	3758	8	#line 3758 "NXCDefs.h"
6	3759	8		tst 5, __zfSetSensorLowspeed_inline_SetSensorUltrasonic, __DU0SetSensorLowspeed_inline_SetSensorUltrasonic
6	3758	11	#line 3758 "NXCDefs.h"
6	3759	11		brtst 4, __001__001__NXC_Label_36, __zfSetSensorLowspeed_inline_SetSensorUltrasonic
6	3758	14	#line 3758 "NXCDefs.h"
6	3759	14		set __D0SetSensorLowspeed_inline_SetSensorUltrasonic, 11
6	3758	17	#line 3758 "NXCDefs.h"
6	3759	17		jmp __001__001__NXC_Label_37
6	3758	19	#line 3758 "NXCDefs.h"
6	3759	19		set __D0SetSensorLowspeed_inline_SetSensorUltrasonic, 10
6	3758	22	#line 3758 "NXCDefs.h"
6	3759	22		mov __SetSensorType_7qG2_type_7qG2_000_inline_SetSensorLowspeed_inline_SetSensorUltrasonic_inline_Range_Sens_Init, __D0SetSensorLowspeed_inline_SetSensorUltrasonic
6	3663	24	#line 3663 "NXCDefs.h"
6	3664	24		setin __SetSensorType_7qG2_type_7qG2_000_inline_SetSensorLowspeed_inline_SetSensorUltrasonic_inline_Range_Sens_Init, __SetSensorType_7qG2_port_7qG2_000_inline_SetSensorLowspeed_inline_SetSensorUltrasonic_inline_Range_Sens_Init, 0
6	3663	28	#line 3663 "NXCDefs.h"
6	3759	28	#line 3759 "NXCDefs.h"
6	3759	28	#line 3759 "NXCDefs.h"
6	3760	28		mov __SetSensorMode_7qG2_port_7qG2_000_inline_SetSensorLowspeed_inline_SetSensorUltrasonic_inline_Range_Sens_Init, __SetSensorLowspeed_7qG2_port_7qG2_000_inline_SetSensorUltrasonic_inline_Range_Sens_Init
6	3759	30	#line 3759 "NXCDefs.h"
6	3759	30	#line 3759 "NXCDefs.h"
6	3760	30		set __SetSensorMode_7qG2_mode_7qG2_000_inline_SetSensorLowspeed_inline_SetSensorUltrasonic_inline_Range_Sens_Init, 0
6	3759	33	#line 3759 "NXCDefs.h"
6	3676	33	#line 3676 "NXCDefs.h"
6	3677	33		setin __SetSensorMode_7qG2_mode_7qG2_000_inline_SetSensorLowspeed_inline_SetSensorUltrasonic_inline_Range_Sens_Init, __SetSensorMode_7qG2_port_7qG2_000_inline_SetSensorLowspeed_inline_SetSensorUltrasonic_inline_Range_Sens_Init, 1
6	3676	37	#line 3676 "NXCDefs.h"
6	3760	37	#line 3760 "NXCDefs.h"
6	3760	37	#line 3760 "NXCDefs.h"
6	3761	37		mov __ResetSensor_7qG2_port_7qG2_000_inline_SetSensorLowspeed_inline_SetSensorUltrasonic_inline_Range_Sens_Init, __SetSensorLowspeed_7qG2_port_7qG2_000_inline_SetSensorUltrasonic_inline_Range_Sens_Init
6	3760	39	#line 3760 "NXCDefs.h"
6	3694	39	#line 3694 "NXCDefs.h"
6	3695	39	#pragma macro 4
6	3695	39		acquire __ResetSensorMutex
6	3695	40		mov __ResetSensorPort, __ResetSensor_7qG2_port_7qG2_000_inline_SetSensorLowspeed_inline_SetSensorUltrasonic_inline_Range_Sens_Init
6	3695	42		subcall __ResetSensorSubroutine, ____ResetSensorSubroutine_return
6	3695	45		release __ResetSensorMutex
6	8445	46	#line 8445 "NXCDefs.h"
6	3694	46	#line 3694 "NXCDefs.h"
6	3761	46	#line 3761 "NXCDefs.h"
6	3768	46	#line 3768 "NXCDefs.h"
6	10	46	#line 10 "C:\Users\Pascal\Documents\GitHub\SaSeRoS-Team359\Object_detection\../basic_functions/functions.h"
6	10	46	#line 10 "C:\Users\Pascal\Documents\GitHub\SaSeRoS-Team359\Object_detection\../basic_functions/functions.h"
6	11	46		mov __SetSensorMode_7qG2_port_7qG2_000_inline_Range_Sens_Init, __Range_Sens_Init_7qG2_Port_7qG2_000
6	10	48	#line 10 "C:\Users\Pascal\Documents\GitHub\SaSeRoS-Team359\Object_detection\../basic_functions/functions.h"
6	10	48	#line 10 "C:\Users\Pascal\Documents\GitHub\SaSeRoS-Team359\Object_detection\../basic_functions/functions.h"
6	11	48		set __SetSensorMode_7qG2_mode_7qG2_000_inline_Range_Sens_Init, 0
6	10	51	#line 10 "C:\Users\Pascal\Documents\GitHub\SaSeRoS-Team359\Object_detection\../basic_functions/functions.h"
6	3676	51	#line 3676 "NXCDefs.h"
6	3677	51		setin __SetSensorMode_7qG2_mode_7qG2_000_inline_Range_Sens_Init, __SetSensorMode_7qG2_port_7qG2_000_inline_Range_Sens_Init, 1
6	3676	55	#line 3676 "NXCDefs.h"
6	11	55	#line 11 "C:\Users\Pascal\Documents\GitHub\SaSeRoS-Team359\Object_detection\../basic_functions/functions.h"
6	13	55	#line 13 "C:\Users\Pascal\Documents\GitHub\SaSeRoS-Team359\Object_detection\../basic_functions/functions.h"
6	14	55		subret __Range_Sens_Init_return
7	14	0	#line 14 "C:\Users\Pascal\Documents\GitHub\SaSeRoS-Team359\Object_detection\../basic_functions/functions.h"
7	15	0		mov __SetSensorLight_7qG2_port_7qG2_000_inline_Light_Sens_Init, __Light_Sens_Init_7qG2_Port_7qG2_000
7	14	2	#line 14 "C:\Users\Pascal\Documents\GitHub\SaSeRoS-Team359\Object_detection\../basic_functions/functions.h"
7	15	2	#line 15 "C:\Users\Pascal\Documents\GitHub\SaSeRoS-Team359\Object_detection\../basic_functions/functions.h"
7	16	2		mov __SetSensorLight_7qG2_bActive_7qG2_000_inline_Light_Sens_Init, __constVal1
7	3729	4	#line 3729 "NXCDefs.h"
7	3730	4		mov __SetSensorType_7qG2_port_7qG2_000_inline_SetSensorLight_inline_Light_Sens_Init, __SetSensorLight_7qG2_port_7qG2_000_inline_Light_Sens_Init
7	3729	6	#line 3729 "NXCDefs.h"
7	3729	6	#line 3729 "NXCDefs.h"
7	3730	6		mov __DU0SetSensorLight_inline_Light_Sens_Init, __SetSensorLight_7qG2_bActive_7qG2_000_inline_Light_Sens_Init
7	3729	8	#line 3729 "NXCDefs.h"
7	3730	8		tst 5, __zfSetSensorLight_inline_Light_Sens_Init, __DU0SetSensorLight_inline_Light_Sens_Init
7	3729	11	#line 3729 "NXCDefs.h"
7	3730	11		brtst 4, __001__NXC_Label_4, __zfSetSensorLight_inline_Light_Sens_Init
7	3729	14	#line 3729 "NXCDefs.h"
7	3730	14		set __D0SetSensorLight_inline_Light_Sens_Init, 5
7	3729	17	#line 3729 "NXCDefs.h"
7	3730	17		jmp __001__NXC_Label_5
7	3729	19	#line 3729 "NXCDefs.h"
7	3730	19		set __D0SetSensorLight_inline_Light_Sens_Init, 6
7	3729	22	#line 3729 "NXCDefs.h"
7	3730	22		mov __SetSensorType_7qG2_type_7qG2_000_inline_SetSensorLight_inline_Light_Sens_Init, __D0SetSensorLight_inline_Light_Sens_Init
7	3663	24	#line 3663 "NXCDefs.h"
7	3664	24		setin __SetSensorType_7qG2_type_7qG2_000_inline_SetSensorLight_inline_Light_Sens_Init, __SetSensorType_7qG2_port_7qG2_000_inline_SetSensorLight_inline_Light_Sens_Init, 0
7	3663	28	#line 3663 "NXCDefs.h"
7	3730	28	#line 3730 "NXCDefs.h"
7	3730	28	#line 3730 "NXCDefs.h"
7	3731	28		mov __SetSensorMode_7qG2_port_7qG2_000_inline_SetSensorLight_inline_Light_Sens_Init, __SetSensorLight_7qG2_port_7qG2_000_inline_Light_Sens_Init
7	3730	30	#line 3730 "NXCDefs.h"
7	3730	30	#line 3730 "NXCDefs.h"
7	3731	30		set __SetSensorMode_7qG2_mode_7qG2_000_inline_SetSensorLight_inline_Light_Sens_Init, 128
7	3730	33	#line 3730 "NXCDefs.h"
7	3676	33	#line 3676 "NXCDefs.h"
7	3677	33		setin __SetSensorMode_7qG2_mode_7qG2_000_inline_SetSensorLight_inline_Light_Sens_Init, __SetSensorMode_7qG2_port_7qG2_000_inline_SetSensorLight_inline_Light_Sens_Init, 1
7	3676	37	#line 3676 "NXCDefs.h"
7	3731	37	#line 3731 "NXCDefs.h"
7	3731	37	#line 3731 "NXCDefs.h"
7	3732	37		mov __ResetSensor_7qG2_port_7qG2_000_inline_SetSensorLight_inline_Light_Sens_Init, __SetSensorLight_7qG2_port_7qG2_000_inline_Light_Sens_Init
7	3731	39	#line 3731 "NXCDefs.h"
7	3694	39	#line 3694 "NXCDefs.h"
7	3695	39	#pragma macro 4
7	3695	39		acquire __ResetSensorMutex
7	3695	40		mov __ResetSensorPort, __ResetSensor_7qG2_port_7qG2_000_inline_SetSensorLight_inline_Light_Sens_Init
7	3695	42		subcall __ResetSensorSubroutine, ____ResetSensorSubroutine_return
7	3695	45		release __ResetSensorMutex
7	8574	46	#line 8574 "NXCDefs.h"
7	3694	46	#line 3694 "NXCDefs.h"
7	3732	46	#line 3732 "NXCDefs.h"
7	15	46	#line 15 "C:\Users\Pascal\Documents\GitHub\SaSeRoS-Team359\Object_detection\../basic_functions/functions.h"
7	15	46	#line 15 "C:\Users\Pascal\Documents\GitHub\SaSeRoS-Team359\Object_detection\../basic_functions/functions.h"
7	16	46		mov __SetSensorMode_7qG2_port_7qG2_000_inline_Light_Sens_Init, __Light_Sens_Init_7qG2_Port_7qG2_000
7	15	48	#line 15 "C:\Users\Pascal\Documents\GitHub\SaSeRoS-Team359\Object_detection\../basic_functions/functions.h"
7	15	48	#line 15 "C:\Users\Pascal\Documents\GitHub\SaSeRoS-Team359\Object_detection\../basic_functions/functions.h"
7	16	48		set __SetSensorMode_7qG2_mode_7qG2_000_inline_Light_Sens_Init, 0
7	15	51	#line 15 "C:\Users\Pascal\Documents\GitHub\SaSeRoS-Team359\Object_detection\../basic_functions/functions.h"
7	3676	51	#line 3676 "NXCDefs.h"
7	3677	51		setin __SetSensorMode_7qG2_mode_7qG2_000_inline_Light_Sens_Init, __SetSensorMode_7qG2_port_7qG2_000_inline_Light_Sens_Init, 1
7	3676	55	#line 3676 "NXCDefs.h"
7	16	55	#line 16 "C:\Users\Pascal\Documents\GitHub\SaSeRoS-Team359\Object_detection\../basic_functions/functions.h"
7	19	55	#line 19 "C:\Users\Pascal\Documents\GitHub\SaSeRoS-Team359\Object_detection\../basic_functions/functions.h"
7	20	55		subret __Light_Sens_Init_return
8	20	0	#line 20 "C:\Users\Pascal\Documents\GitHub\SaSeRoS-Team359\Object_detection\../basic_functions/functions.h"
8	21	0		mov __signed_stack_001TurnMotor, __TurnMotor_7qG2_deg_7qG2_000
8	20	2	#line 20 "C:\Users\Pascal\Documents\GitHub\SaSeRoS-Team359\Object_detection\../basic_functions/functions.h"
8	20	2	#line 20 "C:\Users\Pascal\Documents\GitHub\SaSeRoS-Team359\Object_detection\../basic_functions/functions.h"
8	21	2		set __D0TurnMotor, 0
8	20	5	#line 20 "C:\Users\Pascal\Documents\GitHub\SaSeRoS-Team359\Object_detection\../basic_functions/functions.h"
8	21	5		cmp 0, __zfTurnMotor, __signed_stack_001TurnMotor, __D0TurnMotor
8	20	9	#line 20 "C:\Users\Pascal\Documents\GitHub\SaSeRoS-Team359\Object_detection\../basic_functions/functions.h"
8	21	9		mov __D0TurnMotor, __zfTurnMotor
8	21	12	#line 21 "C:\Users\Pascal\Documents\GitHub\SaSeRoS-Team359\Object_detection\../basic_functions/functions.h"
8	22	12		brtst 4, __NXC_Label_626, __zfTurnMotor
8	21	15	#line 21 "C:\Users\Pascal\Documents\GitHub\SaSeRoS-Team359\Object_detection\../basic_functions/functions.h"
8	21	15	#line 21 "C:\Users\Pascal\Documents\GitHub\SaSeRoS-Team359\Object_detection\../basic_functions/functions.h"
8	21	15	#line 21 "C:\Users\Pascal\Documents\GitHub\SaSeRoS-Team359\Object_detection\../basic_functions/functions.h"
8	21	15	#line 21 "C:\Users\Pascal\Documents\GitHub\SaSeRoS-Team359\Object_detection\../basic_functions/functions.h"
8	22	15		sub __signed_stack_001TurnMotor, __constVal0, __TurnMotor_7qG2_pwr_7qG2_000
8	21	19	#line 21 "C:\Users\Pascal\Documents\GitHub\SaSeRoS-Team359\Object_detection\../basic_functions/functions.h"
8	21	19	#line 21 "C:\Users\Pascal\Documents\GitHub\SaSeRoS-Team359\Object_detection\../basic_functions/functions.h"
8	22	19		mov __signed_stack_002TurnMotor, __TurnMotor_7qG2_deg_7qG2_000
8	21	21	#line 21 "C:\Users\Pascal\Documents\GitHub\SaSeRoS-Team359\Object_detection\../basic_functions/functions.h"
8	21	21	#line 21 "C:\Users\Pascal\Documents\GitHub\SaSeRoS-Team359\Object_detection\../basic_functions/functions.h"
8	22	21		set __signed_stack_003TurnMotor, -100
8	21	24	#line 21 "C:\Users\Pascal\Documents\GitHub\SaSeRoS-Team359\Object_detection\../basic_functions/functions.h"
8	21	24	#line 21 "C:\Users\Pascal\Documents\GitHub\SaSeRoS-Team359\Object_detection\../basic_functions/functions.h"
8	22	24		set __signed_stack_004TurnMotor, 1
8	21	27	#line 21 "C:\Users\Pascal\Documents\GitHub\SaSeRoS-Team359\Object_detection\../basic_functions/functions.h"
8	21	27	#line 21 "C:\Users\Pascal\Documents\GitHub\SaSeRoS-Team359\Object_detection\../basic_functions/functions.h"
8	22	27		set __D0TurnMotor, 1
8	22	30	#line 22 "C:\Users\Pascal\Documents\GitHub\SaSeRoS-Team359\Object_detection\../basic_functions/functions.h"
8	23	30	#pragma macro 35
8	23	30		mov __rotate_ports3, __OUT_AB
8	23	32		mov __rotate_power3, __signed_stack_001TurnMotor
8	23	35		mov __rotate_angle3, __signed_stack_002TurnMotor
8	23	37		mov __rotate_turnpct3, __signed_stack_003TurnMotor
8	23	40		mov __rotate_sync3, __signed_stack_004TurnMotor
8	23	43		mov __rotate_stop3, __D0TurnMotor
8	23	46		mov __rotate_theRVP3, __constVal32
8	23	48		mov __rotate_theRVI3, __constVal0
8	23	50		mov __rotate_theRVD3, __constVal96
8	23	52		subcall __RotateMotor3, ____RotateMotor3_return
8	8664	55	#line 8664 "C:\Users\Pascal\Documents\GitHub\SaSeRoS-Team359\Object_detection\../basic_functions/functions.h"
8	22	55	#line 22 "C:\Users\Pascal\Documents\GitHub\SaSeRoS-Team359\Object_detection\../basic_functions/functions.h"
8	24	55	#line 24 "C:\Users\Pascal\Documents\GitHub\SaSeRoS-Team359\Object_detection\../basic_functions/functions.h"
8	25	55		jmp __NXC_Label_637
8	24	57	#line 24 "C:\Users\Pascal\Documents\GitHub\SaSeRoS-Team359\Object_detection\../basic_functions/functions.h"
8	24	57	#line 24 "C:\Users\Pascal\Documents\GitHub\SaSeRoS-Team359\Object_detection\../basic_functions/functions.h"
8	24	57	#line 24 "C:\Users\Pascal\Documents\GitHub\SaSeRoS-Team359\Object_detection\../basic_functions/functions.h"
8	24	57	#line 24 "C:\Users\Pascal\Documents\GitHub\SaSeRoS-Team359\Object_detection\../basic_functions/functions.h"
8	25	57		sub __signed_stack_001TurnMotor, __constVal0, __TurnMotor_7qG2_pwr_7qG2_000
8	24	61	#line 24 "C:\Users\Pascal\Documents\GitHub\SaSeRoS-Team359\Object_detection\../basic_functions/functions.h"
8	24	61	#line 24 "C:\Users\Pascal\Documents\GitHub\SaSeRoS-Team359\Object_detection\../basic_functions/functions.h"
8	25	61		mov __signed_stack_002TurnMotor, __TurnMotor_7qG2_deg_7qG2_000
8	24	63	#line 24 "C:\Users\Pascal\Documents\GitHub\SaSeRoS-Team359\Object_detection\../basic_functions/functions.h"
8	24	63	#line 24 "C:\Users\Pascal\Documents\GitHub\SaSeRoS-Team359\Object_detection\../basic_functions/functions.h"
8	25	63		set __signed_stack_003TurnMotor, 100
8	24	66	#line 24 "C:\Users\Pascal\Documents\GitHub\SaSeRoS-Team359\Object_detection\../basic_functions/functions.h"
8	24	66	#line 24 "C:\Users\Pascal\Documents\GitHub\SaSeRoS-Team359\Object_detection\../basic_functions/functions.h"
8	25	66		set __signed_stack_004TurnMotor, 1
8	24	69	#line 24 "C:\Users\Pascal\Documents\GitHub\SaSeRoS-Team359\Object_detection\../basic_functions/functions.h"
8	24	69	#line 24 "C:\Users\Pascal\Documents\GitHub\SaSeRoS-Team359\Object_detection\../basic_functions/functions.h"
8	25	69		set __D0TurnMotor, 1
8	25	72	#line 25 "C:\Users\Pascal\Documents\GitHub\SaSeRoS-Team359\Object_detection\../basic_functions/functions.h"
8	26	72	#pragma macro 35
8	26	72		mov __rotate_ports3, __OUT_AB
8	26	74		mov __rotate_power3, __signed_stack_001TurnMotor
8	26	77		mov __rotate_angle3, __signed_stack_002TurnMotor
8	26	79		mov __rotate_turnpct3, __signed_stack_003TurnMotor
8	26	82		mov __rotate_sync3, __signed_stack_004TurnMotor
8	26	85		mov __rotate_stop3, __D0TurnMotor
8	26	88		mov __rotate_theRVP3, __constVal32
8	26	90		mov __rotate_theRVI3, __constVal0
8	26	92		mov __rotate_theRVD3, __constVal96
8	26	94		subcall __RotateMotor3, ____RotateMotor3_return
8	8704	97	#line 8704 "C:\Users\Pascal\Documents\GitHub\SaSeRoS-Team359\Object_detection\../basic_functions/functions.h"
8	25	97	#line 25 "C:\Users\Pascal\Documents\GitHub\SaSeRoS-Team359\Object_detection\../basic_functions/functions.h"
8	29	97	#line 29 "C:\Users\Pascal\Documents\GitHub\SaSeRoS-Team359\Object_detection\../basic_functions/functions.h"
8	29	97	#line 29 "C:\Users\Pascal\Documents\GitHub\SaSeRoS-Team359\Object_detection\../basic_functions/functions.h"
8	30	97		subret __TurnMotor_return
9	31	0	#line 31 "C:\Users\Pascal\Documents\GitHub\SaSeRoS-Team359\Object_detection\../basic_functions/functions.h"
9	31	0	#line 31 "C:\Users\Pascal\Documents\GitHub\SaSeRoS-Team359\Object_detection\../basic_functions/functions.h"
9	31	0	#line 31 "C:\Users\Pascal\Documents\GitHub\SaSeRoS-Team359\Object_detection\../basic_functions/functions.h"
9	31	0	#line 31 "C:\Users\Pascal\Documents\GitHub\SaSeRoS-Team359\Object_detection\../basic_functions/functions.h"
9	31	0	#line 31 "C:\Users\Pascal\Documents\GitHub\SaSeRoS-Team359\Object_detection\../basic_functions/functions.h"
9	31	0	#line 31 "C:\Users\Pascal\Documents\GitHub\SaSeRoS-Team359\Object_detection\../basic_functions/functions.h"
9	32	0		mul __TurnMotor_7qG2_deg_7qG2_000, __TurnRobot_7qG2_deg_7qG2_000, __constValf3P5
9	31	4	#line 31 "C:\Users\Pascal\Documents\GitHub\SaSeRoS-Team359\Object_detection\../basic_functions/functions.h"
9	31	4	#line 31 "C:\Users\Pascal\Documents\GitHub\SaSeRoS-Team359\Object_detection\../basic_functions/functions.h"
9	32	4		mov __TurnMotor_7qG2_pwr_7qG2_000, __TurnRobot_7qG2_pwr_7qG2_000
9	31	6	#line 31 "C:\Users\Pascal\Documents\GitHub\SaSeRoS-Team359\Object_detection\../basic_functions/functions.h"
9	32	6	#line 32 "C:\Users\Pascal\Documents\GitHub\SaSeRoS-Team359\Object_detection\../basic_functions/functions.h"
9	33	6		subcall TurnMotor, __TurnMotor_return
9	32	8	#line 32 "C:\Users\Pascal\Documents\GitHub\SaSeRoS-Team359\Object_detection\../basic_functions/functions.h"
9	34	8	#line 34 "C:\Users\Pascal\Documents\GitHub\SaSeRoS-Team359\Object_detection\../basic_functions/functions.h"
9	35	8		subret __TurnRobot_return
10	36	0	#line 36 "C:\Users\Pascal\Documents\GitHub\SaSeRoS-Team359\Object_detection\../basic_functions/functions.h"
10	37	0	#pragma macro 7
10	37	0		setout __constVal0, 2, __constVal0, 1, __constVal3, 8, __constVal0, 6, __constVal32, 7, __constVal0, 5, __constVal0, 10, __constVal96, 11, __constVal32, 12, __constVal32, 0, __constVal63
10	8758	23	#line 8758 "C:\Users\Pascal\Documents\GitHub\SaSeRoS-Team359\Object_detection\../basic_functions/functions.h"
10	36	23	#line 36 "C:\Users\Pascal\Documents\GitHub\SaSeRoS-Team359\Object_detection\../basic_functions/functions.h"
10	37	23	#line 37 "C:\Users\Pascal\Documents\GitHub\SaSeRoS-Team359\Object_detection\../basic_functions/functions.h"
10	38	23	#pragma macro 7
10	38	23		setout __constVal1, 2, __constVal0, 1, __constVal3, 8, __constVal0, 6, __constVal32, 7, __constVal0, 5, __constVal0, 10, __constVal96, 11, __constVal32, 12, __constVal32, 0, __constVal63
10	8761	46	#line 8761 "C:\Users\Pascal\Documents\GitHub\SaSeRoS-Team359\Object_detection\../basic_functions/functions.h"
10	37	46	#line 37 "C:\Users\Pascal\Documents\GitHub\SaSeRoS-Team359\Object_detection\../basic_functions/functions.h"
10	39	46	#line 39 "C:\Users\Pascal\Documents\GitHub\SaSeRoS-Team359\Object_detection\../basic_functions/functions.h"
10	40	46		subret __Stop_Driving_return
11	40	0	#line 40 "C:\Users\Pascal\Documents\GitHub\SaSeRoS-Team359\Object_detection\../basic_functions/functions.h"
11	40	0	#line 40 "C:\Users\Pascal\Documents\GitHub\SaSeRoS-Team359\Object_detection\../basic_functions/functions.h"
11	40	0	#line 40 "C:\Users\Pascal\Documents\GitHub\SaSeRoS-Team359\Object_detection\../basic_functions/functions.h"
11	40	0	#line 40 "C:\Users\Pascal\Documents\GitHub\SaSeRoS-Team359\Object_detection\../basic_functions/functions.h"
11	41	0		sub __D0Drive_Forward, __constVal0, __Drive_Forward_7qG2_pwr_7qG2_000
11	41	4	#line 41 "C:\Users\Pascal\Documents\GitHub\SaSeRoS-Team359\Object_detection\../basic_functions/functions.h"
11	42	4	#pragma macro 7
11	42	4		setout __constVal0, 2, __D0Drive_Forward, 1, __constVal3, 8, __constVal0, 6, __constVal32, 7, __constVal0, 5, __constVal0, 10, __constVal96, 11, __constVal32, 12, __constVal32, 0, __constVal63
11	8783	27	#line 8783 "C:\Users\Pascal\Documents\GitHub\SaSeRoS-Team359\Object_detection\../basic_functions/functions.h"
11	41	27	#line 41 "C:\Users\Pascal\Documents\GitHub\SaSeRoS-Team359\Object_detection\../basic_functions/functions.h"
11	41	27	#line 41 "C:\Users\Pascal\Documents\GitHub\SaSeRoS-Team359\Object_detection\../basic_functions/functions.h"
11	41	27	#line 41 "C:\Users\Pascal\Documents\GitHub\SaSeRoS-Team359\Object_detection\../basic_functions/functions.h"
11	41	27	#line 41 "C:\Users\Pascal\Documents\GitHub\SaSeRoS-Team359\Object_detection\../basic_functions/functions.h"
11	41	27	#line 41 "C:\Users\Pascal\Documents\GitHub\SaSeRoS-Team359\Object_detection\../basic_functions/functions.h"
11	42	27		sub __D0Drive_Forward, __constVal0, __Drive_Forward_7qG2_pwr_7qG2_000
11	42	31	#line 42 "C:\Users\Pascal\Documents\GitHub\SaSeRoS-Team359\Object_detection\../basic_functions/functions.h"
11	43	31	#pragma macro 7
11	43	31		setout __constVal1, 2, __D0Drive_Forward, 1, __constVal3, 8, __constVal0, 6, __constVal32, 7, __constVal0, 5, __constVal0, 10, __constVal96, 11, __constVal32, 12, __constVal32, 0, __constVal63
11	8796	54	#line 8796 "C:\Users\Pascal\Documents\GitHub\SaSeRoS-Team359\Object_detection\../basic_functions/functions.h"
11	42	54	#line 42 "C:\Users\Pascal\Documents\GitHub\SaSeRoS-Team359\Object_detection\../basic_functions/functions.h"
11	44	54	#line 44 "C:\Users\Pascal\Documents\GitHub\SaSeRoS-Team359\Object_detection\../basic_functions/functions.h"
11	45	54		subret __Drive_Forward_return
12	45	0	#line 45 "C:\Users\Pascal\Documents\GitHub\SaSeRoS-Team359\Object_detection\../basic_functions/functions.h"
12	45	0	#line 45 "C:\Users\Pascal\Documents\GitHub\SaSeRoS-Team359\Object_detection\../basic_functions/functions.h"
12	45	0	#line 45 "C:\Users\Pascal\Documents\GitHub\SaSeRoS-Team359\Object_detection\../basic_functions/functions.h"
12	45	0	#line 45 "C:\Users\Pascal\Documents\GitHub\SaSeRoS-Team359\Object_detection\../basic_functions/functions.h"
12	46	0		sub __D0Drive_Backward, __constVal0, __Drive_Backward_7qG2_pwr_7qG2_000
12	46	4	#line 46 "C:\Users\Pascal\Documents\GitHub\SaSeRoS-Team359\Object_detection\../basic_functions/functions.h"
12	47	4	#pragma macro 10
12	47	4		neg __OnRev_Tmp, __D0Drive_Backward
12	47	7		setout __constVal0, 2, __OnRev_Tmp, 1, __constVal3, 8, __constVal0, 6, __constVal32, 7, __constVal0, 5, __constVal0, 10, __constVal96, 11, __constVal32, 12, __constVal32, 0, __constVal63
12	8818	30	#line 8818 "C:\Users\Pascal\Documents\GitHub\SaSeRoS-Team359\Object_detection\../basic_functions/functions.h"
12	46	30	#line 46 "C:\Users\Pascal\Documents\GitHub\SaSeRoS-Team359\Object_detection\../basic_functions/functions.h"
12	46	30	#line 46 "C:\Users\Pascal\Documents\GitHub\SaSeRoS-Team359\Object_detection\../basic_functions/functions.h"
12	46	30	#line 46 "C:\Users\Pascal\Documents\GitHub\SaSeRoS-Team359\Object_detection\../basic_functions/functions.h"
12	46	30	#line 46 "C:\Users\Pascal\Documents\GitHub\SaSeRoS-Team359\Object_detection\../basic_functions/functions.h"
12	46	30	#line 46 "C:\Users\Pascal\Documents\GitHub\SaSeRoS-Team359\Object_detection\../basic_functions/functions.h"
12	47	30		sub __D0Drive_Backward, __constVal0, __Drive_Backward_7qG2_pwr_7qG2_000
12	47	34	#line 47 "C:\Users\Pascal\Documents\GitHub\SaSeRoS-Team359\Object_detection\../basic_functions/functions.h"
12	48	34	#pragma macro 10
12	48	34		neg __OnRev_Tmp, __D0Drive_Backward
12	48	37		setout __constVal1, 2, __OnRev_Tmp, 1, __constVal3, 8, __constVal0, 6, __constVal32, 7, __constVal0, 5, __constVal0, 10, __constVal96, 11, __constVal32, 12, __constVal32, 0, __constVal63
12	8831	60	#line 8831 "C:\Users\Pascal\Documents\GitHub\SaSeRoS-Team359\Object_detection\../basic_functions/functions.h"
12	47	60	#line 47 "C:\Users\Pascal\Documents\GitHub\SaSeRoS-Team359\Object_detection\../basic_functions/functions.h"
12	49	60	#line 49 "C:\Users\Pascal\Documents\GitHub\SaSeRoS-Team359\Object_detection\../basic_functions/functions.h"
12	50	60		subret __Drive_Backward_return
13	50	0	#line 50 "C:\Users\Pascal\Documents\GitHub\SaSeRoS-Team359\Object_detection\../basic_functions/functions.h"
13	51	0		set __signed_stack_001ShortBeep, 500
13	50	3	#line 50 "C:\Users\Pascal\Documents\GitHub\SaSeRoS-Team359\Object_detection\../basic_functions/functions.h"
13	50	3	#line 50 "C:\Users\Pascal\Documents\GitHub\SaSeRoS-Team359\Object_detection\../basic_functions/functions.h"
13	51	3		set __signed_stack_002ShortBeep, 100
13	50	6	#line 50 "C:\Users\Pascal\Documents\GitHub\SaSeRoS-Team359\Object_detection\../basic_functions/functions.h"
13	50	6	#line 50 "C:\Users\Pascal\Documents\GitHub\SaSeRoS-Team359\Object_detection\../basic_functions/functions.h"
13	51	6		set __signed_stack_003ShortBeep, 4
13	50	9	#line 50 "C:\Users\Pascal\Documents\GitHub\SaSeRoS-Team359\Object_detection\../basic_functions/functions.h"
13	50	9	#line 50 "C:\Users\Pascal\Documents\GitHub\SaSeRoS-Team359\Object_detection\../basic_functions/functions.h"
13	51	9		set __D0ShortBeep, 0
13	51	12	#line 51 "C:\Users\Pascal\Documents\GitHub\SaSeRoS-Team359\Object_detection\../basic_functions/functions.h"
13	52	12		acquire __SPTArgsMutex
13	51	13	#line 51 "C:\Users\Pascal\Documents\GitHub\SaSeRoS-Team359\Object_detection\../basic_functions/functions.h"
13	52	13		mov __SPTArgs.Frequency, __signed_stack_001ShortBeep
13	51	16	#line 51 "C:\Users\Pascal\Documents\GitHub\SaSeRoS-Team359\Object_detection\../basic_functions/functions.h"
13	52	16		mov __SPTArgs.Duration, __signed_stack_002ShortBeep
13	51	19	#line 51 "C:\Users\Pascal\Documents\GitHub\SaSeRoS-Team359\Object_detection\../basic_functions/functions.h"
13	52	19		mov __SPTArgs.Volume, __signed_stack_003ShortBeep
13	51	22	#line 51 "C:\Users\Pascal\Documents\GitHub\SaSeRoS-Team359\Object_detection\../basic_functions/functions.h"
13	52	22		mov __SPTArgs.Loop, __D0ShortBeep
13	51	25	#line 51 "C:\Users\Pascal\Documents\GitHub\SaSeRoS-Team359\Object_detection\../basic_functions/functions.h"
13	52	25		syscall 10, __SPTArgs
13	51	28	#line 51 "C:\Users\Pascal\Documents\GitHub\SaSeRoS-Team359\Object_detection\../basic_functions/functions.h"
13	52	28		mov __D0ShortBeep, __SPTArgs.Result
13	51	31	#line 51 "C:\Users\Pascal\Documents\GitHub\SaSeRoS-Team359\Object_detection\../basic_functions/functions.h"
13	52	31		release __SPTArgsMutex
13	51	32	#line 51 "C:\Users\Pascal\Documents\GitHub\SaSeRoS-Team359\Object_detection\../basic_functions/functions.h"
13	53	32	#line 53 "C:\Users\Pascal\Documents\GitHub\SaSeRoS-Team359\Object_detection\../basic_functions/functions.h"
13	54	32		subret __ShortBeep_return
14	54	0	#line 54 "C:\Users\Pascal\Documents\GitHub\SaSeRoS-Team359\Object_detection\../basic_functions/functions.h"
14	55	0		set __signed_stack_001LongBeep, 500
14	54	3	#line 54 "C:\Users\Pascal\Documents\GitHub\SaSeRoS-Team359\Object_detection\../basic_functions/functions.h"
14	54	3	#line 54 "C:\Users\Pascal\Documents\GitHub\SaSeRoS-Team359\Object_detection\../basic_functions/functions.h"
14	55	3		set __signed_stack_002LongBeep, 1000
14	54	6	#line 54 "C:\Users\Pascal\Documents\GitHub\SaSeRoS-Team359\Object_detection\../basic_functions/functions.h"
14	54	6	#line 54 "C:\Users\Pascal\Documents\GitHub\SaSeRoS-Team359\Object_detection\../basic_functions/functions.h"
14	55	6		set __signed_stack_003LongBeep, 4
14	54	9	#line 54 "C:\Users\Pascal\Documents\GitHub\SaSeRoS-Team359\Object_detection\../basic_functions/functions.h"
14	54	9	#line 54 "C:\Users\Pascal\Documents\GitHub\SaSeRoS-Team359\Object_detection\../basic_functions/functions.h"
14	55	9		set __D0LongBeep, 0
14	55	12	#line 55 "C:\Users\Pascal\Documents\GitHub\SaSeRoS-Team359\Object_detection\../basic_functions/functions.h"
14	56	12		acquire __SPTArgsMutex
14	55	13	#line 55 "C:\Users\Pascal\Documents\GitHub\SaSeRoS-Team359\Object_detection\../basic_functions/functions.h"
14	56	13		mov __SPTArgs.Frequency, __signed_stack_001LongBeep
14	55	16	#line 55 "C:\Users\Pascal\Documents\GitHub\SaSeRoS-Team359\Object_detection\../basic_functions/functions.h"
14	56	16		mov __SPTArgs.Duration, __signed_stack_002LongBeep
14	55	19	#line 55 "C:\Users\Pascal\Documents\GitHub\SaSeRoS-Team359\Object_detection\../basic_functions/functions.h"
14	56	19		mov __SPTArgs.Volume, __signed_stack_003LongBeep
14	55	22	#line 55 "C:\Users\Pascal\Documents\GitHub\SaSeRoS-Team359\Object_detection\../basic_functions/functions.h"
14	56	22		mov __SPTArgs.Loop, __D0LongBeep
14	55	25	#line 55 "C:\Users\Pascal\Documents\GitHub\SaSeRoS-Team359\Object_detection\../basic_functions/functions.h"
14	56	25		syscall 10, __SPTArgs
14	55	28	#line 55 "C:\Users\Pascal\Documents\GitHub\SaSeRoS-Team359\Object_detection\../basic_functions/functions.h"
14	56	28		mov __D0LongBeep, __SPTArgs.Result
14	55	31	#line 55 "C:\Users\Pascal\Documents\GitHub\SaSeRoS-Team359\Object_detection\../basic_functions/functions.h"
14	56	31		release __SPTArgsMutex
14	55	32	#line 55 "C:\Users\Pascal\Documents\GitHub\SaSeRoS-Team359\Object_detection\../basic_functions/functions.h"
14	56	32	#line 56 "C:\Users\Pascal\Documents\GitHub\SaSeRoS-Team359\Object_detection\../basic_functions/functions.h"
14	57	32		subret __LongBeep_return
15	13	0	#line 13 "C:\Users\Pascal\Documents\GitHub\SaSeRoS-Team359\Object_detection\../initialise.h"
15	14	0		set __Touch_Init_7qG2_Port_7qG2_000, 0
15	13	3	#line 13 "C:\Users\Pascal\Documents\GitHub\SaSeRoS-Team359\Object_detection\../initialise.h"
15	14	3	#line 14 "C:\Users\Pascal\Documents\GitHub\SaSeRoS-Team359\Object_detection\../initialise.h"
15	15	3		subcall Touch_Init, __Touch_Init_return
15	14	5	#line 14 "C:\Users\Pascal\Documents\GitHub\SaSeRoS-Team359\Object_detection\../initialise.h"
15	14	5	#line 14 "C:\Users\Pascal\Documents\GitHub\SaSeRoS-Team359\Object_detection\../initialise.h"
15	15	5		set __Wait_7qG2_ms_7qG2_000_inline_initialise, 1000
15	14	8	#line 14 "C:\Users\Pascal\Documents\GitHub\SaSeRoS-Team359\Object_detection\../initialise.h"
15	7921	8	#line 7921 "NXCDefs.h"
15	7922	8		wait 1000
15	7921	10	#line 7921 "NXCDefs.h"
15	15	10	#line 15 "C:\Users\Pascal\Documents\GitHub\SaSeRoS-Team359\Object_detection\../initialise.h"
15	15	10	#line 15 "C:\Users\Pascal\Documents\GitHub\SaSeRoS-Team359\Object_detection\../initialise.h"
15	16	10		set __signed_stack_001initialise, 0
15	15	13	#line 15 "C:\Users\Pascal\Documents\GitHub\SaSeRoS-Team359\Object_detection\../initialise.h"
15	15	13	#line 15 "C:\Users\Pascal\Documents\GitHub\SaSeRoS-Team359\Object_detection\../initialise.h"
15	16	13		set __signed_stack_002initialise, 1
15	15	16	#line 15 "C:\Users\Pascal\Documents\GitHub\SaSeRoS-Team359\Object_detection\../initialise.h"
15	15	16	#line 15 "C:\Users\Pascal\Documents\GitHub\SaSeRoS-Team359\Object_detection\../initialise.h"
15	16	16		strcat __strbufinitialise, __constStr0009
15	16	20	#line 16 "C:\Users\Pascal\Documents\GitHub\SaSeRoS-Team359\Object_detection\../initialise.h"
15	17	20		acquire __TextOutMutex
15	16	21	#line 16 "C:\Users\Pascal\Documents\GitHub\SaSeRoS-Team359\Object_detection\../initialise.h"
15	17	21		mov __TextOutArgs.Location.X, __signed_stack_001initialise
15	16	24	#line 16 "C:\Users\Pascal\Documents\GitHub\SaSeRoS-Team359\Object_detection\../initialise.h"
15	17	24		mov __TextOutArgs.Location.Y, __signed_stack_002initialise
15	16	27	#line 16 "C:\Users\Pascal\Documents\GitHub\SaSeRoS-Team359\Object_detection\../initialise.h"
15	17	27		set __TextOutArgs.Options, 0
15	16	30	#line 16 "C:\Users\Pascal\Documents\GitHub\SaSeRoS-Team359\Object_detection\../initialise.h"
15	17	30		mov __TextOutArgs.Text, __strbufinitialise
15	16	32	#line 16 "C:\Users\Pascal\Documents\GitHub\SaSeRoS-Team359\Object_detection\../initialise.h"
15	17	32		syscall 13, __TextOutArgs
15	16	35	#line 16 "C:\Users\Pascal\Documents\GitHub\SaSeRoS-Team359\Object_detection\../initialise.h"
15	17	35		mov __D0initialise, __TextOutArgs.Result
15	16	38	#line 16 "C:\Users\Pascal\Documents\GitHub\SaSeRoS-Team359\Object_detection\../initialise.h"
15	17	38		release __TextOutMutex
15	16	39	#line 16 "C:\Users\Pascal\Documents\GitHub\SaSeRoS-Team359\Object_detection\../initialise.h"
15	16	39	#line 16 "C:\Users\Pascal\Documents\GitHub\SaSeRoS-Team359\Object_detection\../initialise.h"
15	17	39		getin __D0initialise, __constVal0, 4
15	16	43	#line 16 "C:\Users\Pascal\Documents\GitHub\SaSeRoS-Team359\Object_detection\../initialise.h"
15	17	43		tst 5, __zfinitialise, __D0initialise
15	16	46	#line 16 "C:\Users\Pascal\Documents\GitHub\SaSeRoS-Team359\Object_detection\../initialise.h"
15	17	46		brtst 4, __NXC_Label_701, __zfinitialise
15	17	49	#line 17 "C:\Users\Pascal\Documents\GitHub\SaSeRoS-Team359\Object_detection\../initialise.h"
15	18	49		jmp __NXC_Label_700
15	17	51	#line 17 "C:\Users\Pascal\Documents\GitHub\SaSeRoS-Team359\Object_detection\../initialise.h"
15	17	51	#line 17 "C:\Users\Pascal\Documents\GitHub\SaSeRoS-Team359\Object_detection\../initialise.h"
15	18	51		set __ClearLine_7qG2_line_7qG2_000_inline_initialise, 1
15	17	54	#line 17 "C:\Users\Pascal\Documents\GitHub\SaSeRoS-Team359\Object_detection\../initialise.h"
15	6076	54	#line 6076 "NXCDefs.h"
15	6077	54	#pragma macro 7
15	6077	54		acquire __TextOutMutex
15	6077	55		mov __TextOutArgs.Location.X, __constVal0
15	6077	57		mov __TextOutArgs.Location.Y, __ClearLine_7qG2_line_7qG2_000_inline_initialise
15	6077	59		mov __TextOutArgs.Options, __constVal0
15	6077	61		mov __TextOutArgs.Text, __BlankLine
15	6077	63		syscall 13, __TextOutArgs
15	6077	66		release __TextOutMutex
15	9100	67	#line 9100 "NXCDefs.h"
15	6076	67	#line 6076 "NXCDefs.h"
15	18	67	#line 18 "C:\Users\Pascal\Documents\GitHub\SaSeRoS-Team359\Object_detection\../initialise.h"
15	18	67	#line 18 "C:\Users\Pascal\Documents\GitHub\SaSeRoS-Team359\Object_detection\../initialise.h"
15	19	67		set __signed_stack_001initialise, 0
15	18	70	#line 18 "C:\Users\Pascal\Documents\GitHub\SaSeRoS-Team359\Object_detection\../initialise.h"
15	18	70	#line 18 "C:\Users\Pascal\Documents\GitHub\SaSeRoS-Team359\Object_detection\../initialise.h"
15	19	70		set __signed_stack_002initialise, 1
15	18	73	#line 18 "C:\Users\Pascal\Documents\GitHub\SaSeRoS-Team359\Object_detection\../initialise.h"
15	18	73	#line 18 "C:\Users\Pascal\Documents\GitHub\SaSeRoS-Team359\Object_detection\../initialise.h"
15	19	73		strcat __strbufinitialise, __constStr0010
15	19	77	#line 19 "C:\Users\Pascal\Documents\GitHub\SaSeRoS-Team359\Object_detection\../initialise.h"
15	20	77		acquire __TextOutMutex
15	19	78	#line 19 "C:\Users\Pascal\Documents\GitHub\SaSeRoS-Team359\Object_detection\../initialise.h"
15	20	78		mov __TextOutArgs.Location.X, __signed_stack_001initialise
15	19	81	#line 19 "C:\Users\Pascal\Documents\GitHub\SaSeRoS-Team359\Object_detection\../initialise.h"
15	20	81		mov __TextOutArgs.Location.Y, __signed_stack_002initialise
15	19	84	#line 19 "C:\Users\Pascal\Documents\GitHub\SaSeRoS-Team359\Object_detection\../initialise.h"
15	20	84		set __TextOutArgs.Options, 0
15	19	87	#line 19 "C:\Users\Pascal\Documents\GitHub\SaSeRoS-Team359\Object_detection\../initialise.h"
15	20	87		mov __TextOutArgs.Text, __strbufinitialise
15	19	89	#line 19 "C:\Users\Pascal\Documents\GitHub\SaSeRoS-Team359\Object_detection\../initialise.h"
15	20	89		syscall 13, __TextOutArgs
15	19	92	#line 19 "C:\Users\Pascal\Documents\GitHub\SaSeRoS-Team359\Object_detection\../initialise.h"
15	20	92		mov __D0initialise, __TextOutArgs.Result
15	19	95	#line 19 "C:\Users\Pascal\Documents\GitHub\SaSeRoS-Team359\Object_detection\../initialise.h"
15	20	95		release __TextOutMutex
15	19	96	#line 19 "C:\Users\Pascal\Documents\GitHub\SaSeRoS-Team359\Object_detection\../initialise.h"
15	19	96	#line 19 "C:\Users\Pascal\Documents\GitHub\SaSeRoS-Team359\Object_detection\../initialise.h"
15	20	96		set __Wait_7qG2_ms_7qG2_000_inline_initialise, 5000
15	19	99	#line 19 "C:\Users\Pascal\Documents\GitHub\SaSeRoS-Team359\Object_detection\../initialise.h"
15	7921	99	#line 7921 "NXCDefs.h"
15	7922	99		wait 5000
15	7921	101	#line 7921 "NXCDefs.h"
15	20	101	#line 20 "C:\Users\Pascal\Documents\GitHub\SaSeRoS-Team359\Object_detection\../initialise.h"
15	20	101	#line 20 "C:\Users\Pascal\Documents\GitHub\SaSeRoS-Team359\Object_detection\../initialise.h"
15	21	101		set __ClearLine_7qG2_line_7qG2_000_inline_initialise, 1
15	20	104	#line 20 "C:\Users\Pascal\Documents\GitHub\SaSeRoS-Team359\Object_detection\../initialise.h"
15	6076	104	#line 6076 "NXCDefs.h"
15	6077	104	#pragma macro 7
15	6077	104		acquire __TextOutMutex
15	6077	105		mov __TextOutArgs.Location.X, __constVal0
15	6077	107		mov __TextOutArgs.Location.Y, __ClearLine_7qG2_line_7qG2_000_inline_initialise
15	6077	109		mov __TextOutArgs.Options, __constVal0
15	6077	111		mov __TextOutArgs.Text, __BlankLine
15	6077	113		syscall 13, __TextOutArgs
15	6077	116		release __TextOutMutex
15	9151	117	#line 9151 "NXCDefs.h"
15	6076	117	#line 6076 "NXCDefs.h"
15	21	117	#line 21 "C:\Users\Pascal\Documents\GitHub\SaSeRoS-Team359\Object_detection\../initialise.h"
15	21	117	#line 21 "C:\Users\Pascal\Documents\GitHub\SaSeRoS-Team359\Object_detection\../initialise.h"
15	22	117		set __Touch_Init_7qG2_Port_7qG2_000, 2
15	21	120	#line 21 "C:\Users\Pascal\Documents\GitHub\SaSeRoS-Team359\Object_detection\../initialise.h"
15	22	120	#line 22 "C:\Users\Pascal\Documents\GitHub\SaSeRoS-Team359\Object_detection\../initialise.h"
15	23	120		subcall Touch_Init, __Touch_Init_return
15	22	122	#line 22 "C:\Users\Pascal\Documents\GitHub\SaSeRoS-Team359\Object_detection\../initialise.h"
15	22	122	#line 22 "C:\Users\Pascal\Documents\GitHub\SaSeRoS-Team359\Object_detection\../initialise.h"
15	23	122		set __Wait_7qG2_ms_7qG2_000_inline_initialise, 1000
15	22	125	#line 22 "C:\Users\Pascal\Documents\GitHub\SaSeRoS-Team359\Object_detection\../initialise.h"
15	7921	125	#line 7921 "NXCDefs.h"
15	7922	125		wait 1000
15	7921	127	#line 7921 "NXCDefs.h"
15	23	127	#line 23 "C:\Users\Pascal\Documents\GitHub\SaSeRoS-Team359\Object_detection\../initialise.h"
15	23	127	#line 23 "C:\Users\Pascal\Documents\GitHub\SaSeRoS-Team359\Object_detection\../initialise.h"
15	24	127		set __signed_stack_001initialise, 0
15	23	130	#line 23 "C:\Users\Pascal\Documents\GitHub\SaSeRoS-Team359\Object_detection\../initialise.h"
15	23	130	#line 23 "C:\Users\Pascal\Documents\GitHub\SaSeRoS-Team359\Object_detection\../initialise.h"
15	24	130		set __signed_stack_002initialise, 1
15	23	133	#line 23 "C:\Users\Pascal\Documents\GitHub\SaSeRoS-Team359\Object_detection\../initialise.h"
15	23	133	#line 23 "C:\Users\Pascal\Documents\GitHub\SaSeRoS-Team359\Object_detection\../initialise.h"
15	24	133		strcat __strbufinitialise, __constStr0011
15	24	137	#line 24 "C:\Users\Pascal\Documents\GitHub\SaSeRoS-Team359\Object_detection\../initialise.h"
15	25	137		acquire __TextOutMutex
15	24	138	#line 24 "C:\Users\Pascal\Documents\GitHub\SaSeRoS-Team359\Object_detection\../initialise.h"
15	25	138		mov __TextOutArgs.Location.X, __signed_stack_001initialise
15	24	141	#line 24 "C:\Users\Pascal\Documents\GitHub\SaSeRoS-Team359\Object_detection\../initialise.h"
15	25	141		mov __TextOutArgs.Location.Y, __signed_stack_002initialise
15	24	144	#line 24 "C:\Users\Pascal\Documents\GitHub\SaSeRoS-Team359\Object_detection\../initialise.h"
15	25	144		set __TextOutArgs.Options, 0
15	24	147	#line 24 "C:\Users\Pascal\Documents\GitHub\SaSeRoS-Team359\Object_detection\../initialise.h"
15	25	147		mov __TextOutArgs.Text, __strbufinitialise
15	24	149	#line 24 "C:\Users\Pascal\Documents\GitHub\SaSeRoS-Team359\Object_detection\../initialise.h"
15	25	149		syscall 13, __TextOutArgs
15	24	152	#line 24 "C:\Users\Pascal\Documents\GitHub\SaSeRoS-Team359\Object_detection\../initialise.h"
15	25	152		mov __D0initialise, __TextOutArgs.Result
15	24	155	#line 24 "C:\Users\Pascal\Documents\GitHub\SaSeRoS-Team359\Object_detection\../initialise.h"
15	25	155		release __TextOutMutex
15	24	156	#line 24 "C:\Users\Pascal\Documents\GitHub\SaSeRoS-Team359\Object_detection\../initialise.h"
15	24	156	#line 24 "C:\Users\Pascal\Documents\GitHub\SaSeRoS-Team359\Object_detection\../initialise.h"
15	25	156		getin __D0initialise, __constVal2, 4
15	24	160	#line 24 "C:\Users\Pascal\Documents\GitHub\SaSeRoS-Team359\Object_detection\../initialise.h"
15	25	160		tst 5, __zfinitialise, __D0initialise
15	24	163	#line 24 "C:\Users\Pascal\Documents\GitHub\SaSeRoS-Team359\Object_detection\../initialise.h"
15	25	163		brtst 4, __NXC_Label_723, __zfinitialise
15	25	166	#line 25 "C:\Users\Pascal\Documents\GitHub\SaSeRoS-Team359\Object_detection\../initialise.h"
15	26	166		jmp __NXC_Label_722
15	25	168	#line 25 "C:\Users\Pascal\Documents\GitHub\SaSeRoS-Team359\Object_detection\../initialise.h"
15	25	168	#line 25 "C:\Users\Pascal\Documents\GitHub\SaSeRoS-Team359\Object_detection\../initialise.h"
15	26	168		set __ClearLine_7qG2_line_7qG2_000_inline_initialise, 1
15	25	171	#line 25 "C:\Users\Pascal\Documents\GitHub\SaSeRoS-Team359\Object_detection\../initialise.h"
15	6076	171	#line 6076 "NXCDefs.h"
15	6077	171	#pragma macro 7
15	6077	171		acquire __TextOutMutex
15	6077	172		mov __TextOutArgs.Location.X, __constVal0
15	6077	174		mov __TextOutArgs.Location.Y, __ClearLine_7qG2_line_7qG2_000_inline_initialise
15	6077	176		mov __TextOutArgs.Options, __constVal0
15	6077	178		mov __TextOutArgs.Text, __BlankLine
15	6077	180		syscall 13, __TextOutArgs
15	6077	183		release __TextOutMutex
15	9224	184	#line 9224 "NXCDefs.h"
15	6076	184	#line 6076 "NXCDefs.h"
15	26	184	#line 26 "C:\Users\Pascal\Documents\GitHub\SaSeRoS-Team359\Object_detection\../initialise.h"
15	26	184	#line 26 "C:\Users\Pascal\Documents\GitHub\SaSeRoS-Team359\Object_detection\../initialise.h"
15	27	184		set __signed_stack_001initialise, 0
15	26	187	#line 26 "C:\Users\Pascal\Documents\GitHub\SaSeRoS-Team359\Object_detection\../initialise.h"
15	26	187	#line 26 "C:\Users\Pascal\Documents\GitHub\SaSeRoS-Team359\Object_detection\../initialise.h"
15	27	187		set __signed_stack_002initialise, 1
15	26	190	#line 26 "C:\Users\Pascal\Documents\GitHub\SaSeRoS-Team359\Object_detection\../initialise.h"
15	26	190	#line 26 "C:\Users\Pascal\Documents\GitHub\SaSeRoS-Team359\Object_detection\../initialise.h"
15	27	190		strcat __strbufinitialise, __constStr0010
15	27	194	#line 27 "C:\Users\Pascal\Documents\GitHub\SaSeRoS-Team359\Object_detection\../initialise.h"
15	28	194		acquire __TextOutMutex
15	27	195	#line 27 "C:\Users\Pascal\Documents\GitHub\SaSeRoS-Team359\Object_detection\../initialise.h"
15	28	195		mov __TextOutArgs.Location.X, __signed_stack_001initialise
15	27	198	#line 27 "C:\Users\Pascal\Documents\GitHub\SaSeRoS-Team359\Object_detection\../initialise.h"
15	28	198		mov __TextOutArgs.Location.Y, __signed_stack_002initialise
15	27	201	#line 27 "C:\Users\Pascal\Documents\GitHub\SaSeRoS-Team359\Object_detection\../initialise.h"
15	28	201		set __TextOutArgs.Options, 0
15	27	204	#line 27 "C:\Users\Pascal\Documents\GitHub\SaSeRoS-Team359\Object_detection\../initialise.h"
15	28	204		mov __TextOutArgs.Text, __strbufinitialise
15	27	206	#line 27 "C:\Users\Pascal\Documents\GitHub\SaSeRoS-Team359\Object_detection\../initialise.h"
15	28	206		syscall 13, __TextOutArgs
15	27	209	#line 27 "C:\Users\Pascal\Documents\GitHub\SaSeRoS-Team359\Object_detection\../initialise.h"
15	28	209		mov __D0initialise, __TextOutArgs.Result
15	27	212	#line 27 "C:\Users\Pascal\Documents\GitHub\SaSeRoS-Team359\Object_detection\../initialise.h"
15	28	212		release __TextOutMutex
15	27	213	#line 27 "C:\Users\Pascal\Documents\GitHub\SaSeRoS-Team359\Object_detection\../initialise.h"
15	27	213	#line 27 "C:\Users\Pascal\Documents\GitHub\SaSeRoS-Team359\Object_detection\../initialise.h"
15	28	213		set __Range_Sens_Init_7qG2_Port_7qG2_000, 3
15	27	216	#line 27 "C:\Users\Pascal\Documents\GitHub\SaSeRoS-Team359\Object_detection\../initialise.h"
15	28	216	#line 28 "C:\Users\Pascal\Documents\GitHub\SaSeRoS-Team359\Object_detection\../initialise.h"
15	29	216		subcall Range_Sens_Init, __Range_Sens_Init_return
15	28	218	#line 28 "C:\Users\Pascal\Documents\GitHub\SaSeRoS-Team359\Object_detection\../initialise.h"
15	28	218	#line 28 "C:\Users\Pascal\Documents\GitHub\SaSeRoS-Team359\Object_detection\../initialise.h"
15	29	218		set __Wait_7qG2_ms_7qG2_000_inline_initialise, 1000
15	28	221	#line 28 "C:\Users\Pascal\Documents\GitHub\SaSeRoS-Team359\Object_detection\../initialise.h"
15	7921	221	#line 7921 "NXCDefs.h"
15	7922	221		wait 1000
15	7921	223	#line 7921 "NXCDefs.h"
15	29	223	#line 29 "C:\Users\Pascal\Documents\GitHub\SaSeRoS-Team359\Object_detection\../initialise.h"
15	29	223	#line 29 "C:\Users\Pascal\Documents\GitHub\SaSeRoS-Team359\Object_detection\../initialise.h"
15	30	223	#pragma macro 26
15	30	223		acquire __RLSBmutex3
15	30	224		mov __RLSReadBuf3, __RLSBbufLSWrite1
15	30	226		set __RLSBytesCount3, 1
15	30	229		wait 15
15	30	231		subcall __ReadLSBytes3, ____ReadLSBytes3_return
15	30	234		index __D0initialise, __RLSReadBuf3, 65535
15	30	238		release __RLSBmutex3
15	9278	239	#line 9278 "C:\Users\Pascal\Documents\GitHub\SaSeRoS-Team359\Object_detection\../initialise.h"
15	29	239	#line 29 "C:\Users\Pascal\Documents\GitHub\SaSeRoS-Team359\Object_detection\../initialise.h"
15	30	239		mov __initialise_7qG2_Range_7qG2_000, __D0initialise
15	29	241	#line 29 "C:\Users\Pascal\Documents\GitHub\SaSeRoS-Team359\Object_detection\../initialise.h"
15	29	241	#line 29 "C:\Users\Pascal\Documents\GitHub\SaSeRoS-Team359\Object_detection\../initialise.h"
15	30	241	#line 30 "C:\Users\Pascal\Documents\GitHub\SaSeRoS-Team359\Object_detection\../initialise.h"
15	31	241		set __ClearLine_7qG2_line_7qG2_000_inline_initialise, 1
15	30	244	#line 30 "C:\Users\Pascal\Documents\GitHub\SaSeRoS-Team359\Object_detection\../initialise.h"
15	6076	244	#line 6076 "NXCDefs.h"
15	6077	244	#pragma macro 7
15	6077	244		acquire __TextOutMutex
15	6077	245		mov __TextOutArgs.Location.X, __constVal0
15	6077	247		mov __TextOutArgs.Location.Y, __ClearLine_7qG2_line_7qG2_000_inline_initialise
15	6077	249		mov __TextOutArgs.Options, __constVal0
15	6077	251		mov __TextOutArgs.Text, __BlankLine
15	6077	253		syscall 13, __TextOutArgs
15	6077	256		release __TextOutMutex
15	9292	257	#line 9292 "NXCDefs.h"
15	6076	257	#line 6076 "NXCDefs.h"
15	31	257	#line 31 "C:\Users\Pascal\Documents\GitHub\SaSeRoS-Team359\Object_detection\../initialise.h"
15	31	257	#line 31 "C:\Users\Pascal\Documents\GitHub\SaSeRoS-Team359\Object_detection\../initialise.h"
15	32	257		set __signed_stack_001initialise, 0
15	31	260	#line 31 "C:\Users\Pascal\Documents\GitHub\SaSeRoS-Team359\Object_detection\../initialise.h"
15	31	260	#line 31 "C:\Users\Pascal\Documents\GitHub\SaSeRoS-Team359\Object_detection\../initialise.h"
15	32	260		set __signed_stack_002initialise, 1
15	31	263	#line 31 "C:\Users\Pascal\Documents\GitHub\SaSeRoS-Team359\Object_detection\../initialise.h"
15	31	263	#line 31 "C:\Users\Pascal\Documents\GitHub\SaSeRoS-Team359\Object_detection\../initialise.h"
15	32	263		strcat __strbufinitialise, __constStr0012
15	32	267	#line 32 "C:\Users\Pascal\Documents\GitHub\SaSeRoS-Team359\Object_detection\../initialise.h"
15	33	267		acquire __TextOutMutex
15	32	268	#line 32 "C:\Users\Pascal\Documents\GitHub\SaSeRoS-Team359\Object_detection\../initialise.h"
15	33	268		mov __TextOutArgs.Location.X, __signed_stack_001initialise
15	32	271	#line 32 "C:\Users\Pascal\Documents\GitHub\SaSeRoS-Team359\Object_detection\../initialise.h"
15	33	271		mov __TextOutArgs.Location.Y, __signed_stack_002initialise
15	32	274	#line 32 "C:\Users\Pascal\Documents\GitHub\SaSeRoS-Team359\Object_detection\../initialise.h"
15	33	274		set __TextOutArgs.Options, 0
15	32	277	#line 32 "C:\Users\Pascal\Documents\GitHub\SaSeRoS-Team359\Object_detection\../initialise.h"
15	33	277		mov __TextOutArgs.Text, __strbufinitialise
15	32	279	#line 32 "C:\Users\Pascal\Documents\GitHub\SaSeRoS-Team359\Object_detection\../initialise.h"
15	33	279		syscall 13, __TextOutArgs
15	32	282	#line 32 "C:\Users\Pascal\Documents\GitHub\SaSeRoS-Team359\Object_detection\../initialise.h"
15	33	282		mov __D0initialise, __TextOutArgs.Result
15	32	285	#line 32 "C:\Users\Pascal\Documents\GitHub\SaSeRoS-Team359\Object_detection\../initialise.h"
15	33	285		release __TextOutMutex
15	32	286	#line 32 "C:\Users\Pascal\Documents\GitHub\SaSeRoS-Team359\Object_detection\../initialise.h"
15	32	286	#line 32 "C:\Users\Pascal\Documents\GitHub\SaSeRoS-Team359\Object_detection\../initialise.h"
15	33	286	#pragma macro 26
15	33	286		acquire __RLSBmutex3
15	33	287		mov __RLSReadBuf3, __RLSBbufLSWrite1
15	33	289		set __RLSBytesCount3, 1
15	33	292		wait 15
15	33	294		subcall __ReadLSBytes3, ____ReadLSBytes3_return
15	33	297		index __D0initialise, __RLSReadBuf3, 65535
15	33	301		release __RLSBmutex3
15	9328	302	#line 9328 "C:\Users\Pascal\Documents\GitHub\SaSeRoS-Team359\Object_detection\../initialise.h"
15	32	302	#line 32 "C:\Users\Pascal\Documents\GitHub\SaSeRoS-Team359\Object_detection\../initialise.h"
15	33	302		mov __signed_stack_001initialise, __D0initialise
15	32	304	#line 32 "C:\Users\Pascal\Documents\GitHub\SaSeRoS-Team359\Object_detection\../initialise.h"
15	32	304	#line 32 "C:\Users\Pascal\Documents\GitHub\SaSeRoS-Team359\Object_detection\../initialise.h"
15	32	304	#line 32 "C:\Users\Pascal\Documents\GitHub\SaSeRoS-Team359\Object_detection\../initialise.h"
15	32	304	#line 32 "C:\Users\Pascal\Documents\GitHub\SaSeRoS-Team359\Object_detection\../initialise.h"
15	33	304		sub __D0initialise, __initialise_7qG2_Range_7qG2_000, __constVal10
15	32	308	#line 32 "C:\Users\Pascal\Documents\GitHub\SaSeRoS-Team359\Object_detection\../initialise.h"
15	33	308		cmp 1, __zfinitialise, __signed_stack_001initialise, __D0initialise
15	32	312	#line 32 "C:\Users\Pascal\Documents\GitHub\SaSeRoS-Team359\Object_detection\../initialise.h"
15	33	312		mov __D0initialise, __zfinitialise
15	32	314	#line 32 "C:\Users\Pascal\Documents\GitHub\SaSeRoS-Team359\Object_detection\../initialise.h"
15	33	314		brtst 4, __NXC_Label_747, __zfinitialise
15	32	317	#line 32 "C:\Users\Pascal\Documents\GitHub\SaSeRoS-Team359\Object_detection\../initialise.h"
15	33	317		mov __signed_stack_001initialise, __D0initialise
15	32	319	#line 32 "C:\Users\Pascal\Documents\GitHub\SaSeRoS-Team359\Object_detection\../initialise.h"
15	33	319	#pragma macro 26
15	33	319		acquire __RLSBmutex3
15	33	320		mov __RLSReadBuf3, __RLSBbufLSWrite1
15	33	322		set __RLSBytesCount3, 1
15	33	325		wait 15
15	33	327		subcall __ReadLSBytes3, ____ReadLSBytes3_return
15	33	330		index __D0initialise, __RLSReadBuf3, 65535
15	33	334		release __RLSBmutex3
15	9352	335	#line 9352 "C:\Users\Pascal\Documents\GitHub\SaSeRoS-Team359\Object_detection\../initialise.h"
15	32	335	#line 32 "C:\Users\Pascal\Documents\GitHub\SaSeRoS-Team359\Object_detection\../initialise.h"
15	33	335		mov __signed_stack_002initialise, __D0initialise
15	32	337	#line 32 "C:\Users\Pascal\Documents\GitHub\SaSeRoS-Team359\Object_detection\../initialise.h"
15	32	337	#line 32 "C:\Users\Pascal\Documents\GitHub\SaSeRoS-Team359\Object_detection\../initialise.h"
15	32	337	#line 32 "C:\Users\Pascal\Documents\GitHub\SaSeRoS-Team359\Object_detection\../initialise.h"
15	32	337	#line 32 "C:\Users\Pascal\Documents\GitHub\SaSeRoS-Team359\Object_detection\../initialise.h"
15	33	337		add __D0initialise, __initialise_7qG2_Range_7qG2_000, __constVal10
15	32	341	#line 32 "C:\Users\Pascal\Documents\GitHub\SaSeRoS-Team359\Object_detection\../initialise.h"
15	33	341		cmp 0, __zfinitialise, __signed_stack_002initialise, __D0initialise
15	32	345	#line 32 "C:\Users\Pascal\Documents\GitHub\SaSeRoS-Team359\Object_detection\../initialise.h"
15	32	345	#line 32 "C:\Users\Pascal\Documents\GitHub\SaSeRoS-Team359\Object_detection\../initialise.h"
15	33	345		and __D0initialise, __signed_stack_001initialise, __zfinitialise
15	32	349	#line 32 "C:\Users\Pascal\Documents\GitHub\SaSeRoS-Team359\Object_detection\../initialise.h"
15	33	349		tst 5, __zfinitialise, __D0initialise
15	32	352	#line 32 "C:\Users\Pascal\Documents\GitHub\SaSeRoS-Team359\Object_detection\../initialise.h"
15	33	352		brtst 4, __NXC_Label_745, __zfinitialise
15	33	355	#line 33 "C:\Users\Pascal\Documents\GitHub\SaSeRoS-Team359\Object_detection\../initialise.h"
15	34	355		jmp __NXC_Label_744
15	33	357	#line 33 "C:\Users\Pascal\Documents\GitHub\SaSeRoS-Team359\Object_detection\../initialise.h"
15	33	357	#line 33 "C:\Users\Pascal\Documents\GitHub\SaSeRoS-Team359\Object_detection\../initialise.h"
15	34	357		set __ClearLine_7qG2_line_7qG2_000_inline_initialise, 1
15	33	360	#line 33 "C:\Users\Pascal\Documents\GitHub\SaSeRoS-Team359\Object_detection\../initialise.h"
15	6076	360	#line 6076 "NXCDefs.h"
15	6077	360	#pragma macro 7
15	6077	360		acquire __TextOutMutex
15	6077	361		mov __TextOutArgs.Location.X, __constVal0
15	6077	363		mov __TextOutArgs.Location.Y, __ClearLine_7qG2_line_7qG2_000_inline_initialise
15	6077	365		mov __TextOutArgs.Options, __constVal0
15	6077	367		mov __TextOutArgs.Text, __BlankLine
15	6077	369		syscall 13, __TextOutArgs
15	6077	372		release __TextOutMutex
15	9390	373	#line 9390 "NXCDefs.h"
15	6076	373	#line 6076 "NXCDefs.h"
15	34	373	#line 34 "C:\Users\Pascal\Documents\GitHub\SaSeRoS-Team359\Object_detection\../initialise.h"
15	34	373	#line 34 "C:\Users\Pascal\Documents\GitHub\SaSeRoS-Team359\Object_detection\../initialise.h"
15	35	373		set __signed_stack_001initialise, 0
15	34	376	#line 34 "C:\Users\Pascal\Documents\GitHub\SaSeRoS-Team359\Object_detection\../initialise.h"
15	34	376	#line 34 "C:\Users\Pascal\Documents\GitHub\SaSeRoS-Team359\Object_detection\../initialise.h"
15	35	376		set __signed_stack_002initialise, 1
15	34	379	#line 34 "C:\Users\Pascal\Documents\GitHub\SaSeRoS-Team359\Object_detection\../initialise.h"
15	34	379	#line 34 "C:\Users\Pascal\Documents\GitHub\SaSeRoS-Team359\Object_detection\../initialise.h"
15	35	379		strcat __strbufinitialise, __constStr0010
15	35	383	#line 35 "C:\Users\Pascal\Documents\GitHub\SaSeRoS-Team359\Object_detection\../initialise.h"
15	36	383		acquire __TextOutMutex
15	35	384	#line 35 "C:\Users\Pascal\Documents\GitHub\SaSeRoS-Team359\Object_detection\../initialise.h"
15	36	384		mov __TextOutArgs.Location.X, __signed_stack_001initialise
15	35	387	#line 35 "C:\Users\Pascal\Documents\GitHub\SaSeRoS-Team359\Object_detection\../initialise.h"
15	36	387		mov __TextOutArgs.Location.Y, __signed_stack_002initialise
15	35	390	#line 35 "C:\Users\Pascal\Documents\GitHub\SaSeRoS-Team359\Object_detection\../initialise.h"
15	36	390		set __TextOutArgs.Options, 0
15	35	393	#line 35 "C:\Users\Pascal\Documents\GitHub\SaSeRoS-Team359\Object_detection\../initialise.h"
15	36	393		mov __TextOutArgs.Text, __strbufinitialise
15	35	395	#line 35 "C:\Users\Pascal\Documents\GitHub\SaSeRoS-Team359\Object_detection\../initialise.h"
15	36	395		syscall 13, __TextOutArgs
15	35	398	#line 35 "C:\Users\Pascal\Documents\GitHub\SaSeRoS-Team359\Object_detection\../initialise.h"
15	36	398		mov __D0initialise, __TextOutArgs.Result
15	35	401	#line 35 "C:\Users\Pascal\Documents\GitHub\SaSeRoS-Team359\Object_detection\../initialise.h"
15	36	401		release __TextOutMutex
15	35	402	#line 35 "C:\Users\Pascal\Documents\GitHub\SaSeRoS-Team359\Object_detection\../initialise.h"
15	35	402	#line 35 "C:\Users\Pascal\Documents\GitHub\SaSeRoS-Team359\Object_detection\../initialise.h"
15	36	402		set __Wait_7qG2_ms_7qG2_000_inline_initialise, 5000
15	35	405	#line 35 "C:\Users\Pascal\Documents\GitHub\SaSeRoS-Team359\Object_detection\../initialise.h"
15	7921	405	#line 7921 "NXCDefs.h"
15	7922	405		wait 5000
15	7921	407	#line 7921 "NXCDefs.h"
15	36	407	#line 36 "C:\Users\Pascal\Documents\GitHub\SaSeRoS-Team359\Object_detection\../initialise.h"
15	36	407	#line 36 "C:\Users\Pascal\Documents\GitHub\SaSeRoS-Team359\Object_detection\../initialise.h"
15	37	407		set __Light_Sens_Init_7qG2_Port_7qG2_000, 1
15	36	410	#line 36 "C:\Users\Pascal\Documents\GitHub\SaSeRoS-Team359\Object_detection\../initialise.h"
15	37	410	#line 37 "C:\Users\Pascal\Documents\GitHub\SaSeRoS-Team359\Object_detection\../initialise.h"
15	38	410		subcall Light_Sens_Init, __Light_Sens_Init_return
15	37	412	#line 37 "C:\Users\Pascal\Documents\GitHub\SaSeRoS-Team359\Object_detection\../initialise.h"
15	37	412	#line 37 "C:\Users\Pascal\Documents\GitHub\SaSeRoS-Team359\Object_detection\../initialise.h"
15	38	412		set __Wait_7qG2_ms_7qG2_000_inline_initialise, 1000
15	37	415	#line 37 "C:\Users\Pascal\Documents\GitHub\SaSeRoS-Team359\Object_detection\../initialise.h"
15	7921	415	#line 7921 "NXCDefs.h"
15	7922	415		wait 1000
15	7921	417	#line 7921 "NXCDefs.h"
15	38	417	#line 38 "C:\Users\Pascal\Documents\GitHub\SaSeRoS-Team359\Object_detection\../initialise.h"
15	38	417	#line 38 "C:\Users\Pascal\Documents\GitHub\SaSeRoS-Team359\Object_detection\../initialise.h"
15	39	417		getin __initialise_7qG2_Light_7qG2_000, __constVal1, 4
15	38	421	#line 38 "C:\Users\Pascal\Documents\GitHub\SaSeRoS-Team359\Object_detection\../initialise.h"
15	38	421	#line 38 "C:\Users\Pascal\Documents\GitHub\SaSeRoS-Team359\Object_detection\../initialise.h"
15	38	421	#line 38 "C:\Users\Pascal\Documents\GitHub\SaSeRoS-Team359\Object_detection\../initialise.h"
15	39	421	#line 39 "C:\Users\Pascal\Documents\GitHub\SaSeRoS-Team359\Object_detection\../initialise.h"
15	40	421		set __signed_stack_001initialise, 0
15	39	424	#line 39 "C:\Users\Pascal\Documents\GitHub\SaSeRoS-Team359\Object_detection\../initialise.h"
15	39	424	#line 39 "C:\Users\Pascal\Documents\GitHub\SaSeRoS-Team359\Object_detection\../initialise.h"
15	40	424		set __signed_stack_002initialise, 1
15	39	427	#line 39 "C:\Users\Pascal\Documents\GitHub\SaSeRoS-Team359\Object_detection\../initialise.h"
15	39	427	#line 39 "C:\Users\Pascal\Documents\GitHub\SaSeRoS-Team359\Object_detection\../initialise.h"
15	40	427		strcat __strbufinitialise, __constStr0013
15	41	431	#line 41 "C:\Users\Pascal\Documents\GitHub\SaSeRoS-Team359\Object_detection\../initialise.h"
15	42	431		acquire __TextOutMutex
15	41	432	#line 41 "C:\Users\Pascal\Documents\GitHub\SaSeRoS-Team359\Object_detection\../initialise.h"
15	42	432		mov __TextOutArgs.Location.X, __signed_stack_001initialise
15	41	435	#line 41 "C:\Users\Pascal\Documents\GitHub\SaSeRoS-Team359\Object_detection\../initialise.h"
15	42	435		mov __TextOutArgs.Location.Y, __signed_stack_002initialise
15	41	438	#line 41 "C:\Users\Pascal\Documents\GitHub\SaSeRoS-Team359\Object_detection\../initialise.h"
15	42	438		set __TextOutArgs.Options, 0
15	41	441	#line 41 "C:\Users\Pascal\Documents\GitHub\SaSeRoS-Team359\Object_detection\../initialise.h"
15	42	441		mov __TextOutArgs.Text, __strbufinitialise
15	41	443	#line 41 "C:\Users\Pascal\Documents\GitHub\SaSeRoS-Team359\Object_detection\../initialise.h"
15	42	443		syscall 13, __TextOutArgs
15	41	446	#line 41 "C:\Users\Pascal\Documents\GitHub\SaSeRoS-Team359\Object_detection\../initialise.h"
15	42	446		mov __D0initialise, __TextOutArgs.Result
15	41	449	#line 41 "C:\Users\Pascal\Documents\GitHub\SaSeRoS-Team359\Object_detection\../initialise.h"
15	42	449		release __TextOutMutex
15	41	450	#line 41 "C:\Users\Pascal\Documents\GitHub\SaSeRoS-Team359\Object_detection\../initialise.h"
15	41	450	#line 41 "C:\Users\Pascal\Documents\GitHub\SaSeRoS-Team359\Object_detection\../initialise.h"
15	42	450		getin __signed_stack_001initialise, __constVal1, 4
15	41	454	#line 41 "C:\Users\Pascal\Documents\GitHub\SaSeRoS-Team359\Object_detection\../initialise.h"
15	41	454	#line 41 "C:\Users\Pascal\Documents\GitHub\SaSeRoS-Team359\Object_detection\../initialise.h"
15	41	454	#line 41 "C:\Users\Pascal\Documents\GitHub\SaSeRoS-Team359\Object_detection\../initialise.h"
15	41	454	#line 41 "C:\Users\Pascal\Documents\GitHub\SaSeRoS-Team359\Object_detection\../initialise.h"
15	41	454	#line 41 "C:\Users\Pascal\Documents\GitHub\SaSeRoS-Team359\Object_detection\../initialise.h"
15	42	454		sub __D0initialise, __initialise_7qG2_Light_7qG2_000, __constVal100
15	41	458	#line 41 "C:\Users\Pascal\Documents\GitHub\SaSeRoS-Team359\Object_detection\../initialise.h"
15	42	458		cmp 1, __zfinitialise, __signed_stack_001initialise, __D0initialise
15	41	462	#line 41 "C:\Users\Pascal\Documents\GitHub\SaSeRoS-Team359\Object_detection\../initialise.h"
15	42	462		mov __D0initialise, __zfinitialise
15	41	464	#line 41 "C:\Users\Pascal\Documents\GitHub\SaSeRoS-Team359\Object_detection\../initialise.h"
15	42	464		brtst 4, __NXC_Label_777, __zfinitialise
15	41	467	#line 41 "C:\Users\Pascal\Documents\GitHub\SaSeRoS-Team359\Object_detection\../initialise.h"
15	42	467		mov __signed_stack_001initialise, __D0initialise
15	41	469	#line 41 "C:\Users\Pascal\Documents\GitHub\SaSeRoS-Team359\Object_detection\../initialise.h"
15	42	469		getin __signed_stack_002initialise, __constVal1, 4
15	41	473	#line 41 "C:\Users\Pascal\Documents\GitHub\SaSeRoS-Team359\Object_detection\../initialise.h"
15	41	473	#line 41 "C:\Users\Pascal\Documents\GitHub\SaSeRoS-Team359\Object_detection\../initialise.h"
15	41	473	#line 41 "C:\Users\Pascal\Documents\GitHub\SaSeRoS-Team359\Object_detection\../initialise.h"
15	41	473	#line 41 "C:\Users\Pascal\Documents\GitHub\SaSeRoS-Team359\Object_detection\../initialise.h"
15	41	473	#line 41 "C:\Users\Pascal\Documents\GitHub\SaSeRoS-Team359\Object_detection\../initialise.h"
15	42	473		add __D0initialise, __initialise_7qG2_Light_7qG2_000, __constVal100
15	41	477	#line 41 "C:\Users\Pascal\Documents\GitHub\SaSeRoS-Team359\Object_detection\../initialise.h"
15	42	477		cmp 0, __zfinitialise, __signed_stack_002initialise, __D0initialise
15	41	481	#line 41 "C:\Users\Pascal\Documents\GitHub\SaSeRoS-Team359\Object_detection\../initialise.h"
15	41	481	#line 41 "C:\Users\Pascal\Documents\GitHub\SaSeRoS-Team359\Object_detection\../initialise.h"
15	42	481		and __D0initialise, __signed_stack_001initialise, __zfinitialise
15	41	485	#line 41 "C:\Users\Pascal\Documents\GitHub\SaSeRoS-Team359\Object_detection\../initialise.h"
15	42	485		tst 5, __zfinitialise, __D0initialise
15	41	488	#line 41 "C:\Users\Pascal\Documents\GitHub\SaSeRoS-Team359\Object_detection\../initialise.h"
15	42	488		brtst 4, __NXC_Label_775, __zfinitialise
15	42	491	#line 42 "C:\Users\Pascal\Documents\GitHub\SaSeRoS-Team359\Object_detection\../initialise.h"
15	43	491		jmp __NXC_Label_774
15	42	493	#line 42 "C:\Users\Pascal\Documents\GitHub\SaSeRoS-Team359\Object_detection\../initialise.h"
15	42	493	#line 42 "C:\Users\Pascal\Documents\GitHub\SaSeRoS-Team359\Object_detection\../initialise.h"
15	43	493		set __ClearLine_7qG2_line_7qG2_000_inline_initialise, 1
15	42	496	#line 42 "C:\Users\Pascal\Documents\GitHub\SaSeRoS-Team359\Object_detection\../initialise.h"
15	6076	496	#line 6076 "NXCDefs.h"
15	6077	496	#pragma macro 7
15	6077	496		acquire __TextOutMutex
15	6077	497		mov __TextOutArgs.Location.X, __constVal0
15	6077	499		mov __TextOutArgs.Location.Y, __ClearLine_7qG2_line_7qG2_000_inline_initialise
15	6077	501		mov __TextOutArgs.Options, __constVal0
15	6077	503		mov __TextOutArgs.Text, __BlankLine
15	6077	505		syscall 13, __TextOutArgs
15	6077	508		release __TextOutMutex
15	9556	509	#line 9556 "NXCDefs.h"
15	6076	509	#line 6076 "NXCDefs.h"
15	43	509	#line 43 "C:\Users\Pascal\Documents\GitHub\SaSeRoS-Team359\Object_detection\../initialise.h"
15	43	509	#line 43 "C:\Users\Pascal\Documents\GitHub\SaSeRoS-Team359\Object_detection\../initialise.h"
15	44	509		set __signed_stack_001initialise, 0
15	43	512	#line 43 "C:\Users\Pascal\Documents\GitHub\SaSeRoS-Team359\Object_detection\../initialise.h"
15	43	512	#line 43 "C:\Users\Pascal\Documents\GitHub\SaSeRoS-Team359\Object_detection\../initialise.h"
15	44	512		set __signed_stack_002initialise, 1
15	43	515	#line 43 "C:\Users\Pascal\Documents\GitHub\SaSeRoS-Team359\Object_detection\../initialise.h"
15	43	515	#line 43 "C:\Users\Pascal\Documents\GitHub\SaSeRoS-Team359\Object_detection\../initialise.h"
15	44	515		strcat __strbufinitialise, __constStr0010
15	44	519	#line 44 "C:\Users\Pascal\Documents\GitHub\SaSeRoS-Team359\Object_detection\../initialise.h"
15	45	519		acquire __TextOutMutex
15	44	520	#line 44 "C:\Users\Pascal\Documents\GitHub\SaSeRoS-Team359\Object_detection\../initialise.h"
15	45	520		mov __TextOutArgs.Location.X, __signed_stack_001initialise
15	44	523	#line 44 "C:\Users\Pascal\Documents\GitHub\SaSeRoS-Team359\Object_detection\../initialise.h"
15	45	523		mov __TextOutArgs.Location.Y, __signed_stack_002initialise
15	44	526	#line 44 "C:\Users\Pascal\Documents\GitHub\SaSeRoS-Team359\Object_detection\../initialise.h"
15	45	526		set __TextOutArgs.Options, 0
15	44	529	#line 44 "C:\Users\Pascal\Documents\GitHub\SaSeRoS-Team359\Object_detection\../initialise.h"
15	45	529		mov __TextOutArgs.Text, __strbufinitialise
15	44	531	#line 44 "C:\Users\Pascal\Documents\GitHub\SaSeRoS-Team359\Object_detection\../initialise.h"
15	45	531		syscall 13, __TextOutArgs
15	44	534	#line 44 "C:\Users\Pascal\Documents\GitHub\SaSeRoS-Team359\Object_detection\../initialise.h"
15	45	534		mov __D0initialise, __TextOutArgs.Result
15	44	537	#line 44 "C:\Users\Pascal\Documents\GitHub\SaSeRoS-Team359\Object_detection\../initialise.h"
15	45	537		release __TextOutMutex
15	44	538	#line 44 "C:\Users\Pascal\Documents\GitHub\SaSeRoS-Team359\Object_detection\../initialise.h"
15	44	538	#line 44 "C:\Users\Pascal\Documents\GitHub\SaSeRoS-Team359\Object_detection\../initialise.h"
15	45	538		set __Wait_7qG2_ms_7qG2_000_inline_initialise, 5000
15	44	541	#line 44 "C:\Users\Pascal\Documents\GitHub\SaSeRoS-Team359\Object_detection\../initialise.h"
15	7921	541	#line 7921 "NXCDefs.h"
15	7922	541		wait 5000
15	7921	543	#line 7921 "NXCDefs.h"
15	45	543	#line 45 "C:\Users\Pascal\Documents\GitHub\SaSeRoS-Team359\Object_detection\../initialise.h"
15	45	543	#line 45 "C:\Users\Pascal\Documents\GitHub\SaSeRoS-Team359\Object_detection\../initialise.h"
15	46	543		set __ClearLine_7qG2_line_7qG2_000_inline_initialise, 1
15	45	546	#line 45 "C:\Users\Pascal\Documents\GitHub\SaSeRoS-Team359\Object_detection\../initialise.h"
15	6076	546	#line 6076 "NXCDefs.h"
15	6077	546	#pragma macro 7
15	6077	546		acquire __TextOutMutex
15	6077	547		mov __TextOutArgs.Location.X, __constVal0
15	6077	549		mov __TextOutArgs.Location.Y, __ClearLine_7qG2_line_7qG2_000_inline_initialise
15	6077	551		mov __TextOutArgs.Options, __constVal0
15	6077	553		mov __TextOutArgs.Text, __BlankLine
15	6077	555		syscall 13, __TextOutArgs
15	6077	558		release __TextOutMutex
15	9607	559	#line 9607 "NXCDefs.h"
15	6076	559	#line 6076 "NXCDefs.h"
15	46	559	#line 46 "C:\Users\Pascal\Documents\GitHub\SaSeRoS-Team359\Object_detection\../initialise.h"
15	46	559	#line 46 "C:\Users\Pascal\Documents\GitHub\SaSeRoS-Team359\Object_detection\../initialise.h"
15	47	559		set __signed_stack_001initialise, 0
15	46	562	#line 46 "C:\Users\Pascal\Documents\GitHub\SaSeRoS-Team359\Object_detection\../initialise.h"
15	46	562	#line 46 "C:\Users\Pascal\Documents\GitHub\SaSeRoS-Team359\Object_detection\../initialise.h"
15	47	562		set __signed_stack_002initialise, 1
15	46	565	#line 46 "C:\Users\Pascal\Documents\GitHub\SaSeRoS-Team359\Object_detection\../initialise.h"
15	46	565	#line 46 "C:\Users\Pascal\Documents\GitHub\SaSeRoS-Team359\Object_detection\../initialise.h"
15	47	565		strcat __strbufinitialise, __constStr0014
15	47	569	#line 47 "C:\Users\Pascal\Documents\GitHub\SaSeRoS-Team359\Object_detection\../initialise.h"
15	48	569		acquire __TextOutMutex
15	47	570	#line 47 "C:\Users\Pascal\Documents\GitHub\SaSeRoS-Team359\Object_detection\../initialise.h"
15	48	570		mov __TextOutArgs.Location.X, __signed_stack_001initialise
15	47	573	#line 47 "C:\Users\Pascal\Documents\GitHub\SaSeRoS-Team359\Object_detection\../initialise.h"
15	48	573		mov __TextOutArgs.Location.Y, __signed_stack_002initialise
15	47	576	#line 47 "C:\Users\Pascal\Documents\GitHub\SaSeRoS-Team359\Object_detection\../initialise.h"
15	48	576		set __TextOutArgs.Options, 0
15	47	579	#line 47 "C:\Users\Pascal\Documents\GitHub\SaSeRoS-Team359\Object_detection\../initialise.h"
15	48	579		mov __TextOutArgs.Text, __strbufinitialise
15	47	581	#line 47 "C:\Users\Pascal\Documents\GitHub\SaSeRoS-Team359\Object_detection\../initialise.h"
15	48	581		syscall 13, __TextOutArgs
15	47	584	#line 47 "C:\Users\Pascal\Documents\GitHub\SaSeRoS-Team359\Object_detection\../initialise.h"
15	48	584		mov __D0initialise, __TextOutArgs.Result
15	47	587	#line 47 "C:\Users\Pascal\Documents\GitHub\SaSeRoS-Team359\Object_detection\../initialise.h"
15	48	587		release __TextOutMutex
15	47	588	#line 47 "C:\Users\Pascal\Documents\GitHub\SaSeRoS-Team359\Object_detection\../initialise.h"
15	48	588	#line 48 "C:\Users\Pascal\Documents\GitHub\SaSeRoS-Team359\Object_detection\../initialise.h"
15	49	588		subret __initialise_return
16	16	0	#line 16 "C:\Users\Pascal\Documents\GitHub\SaSeRoS-Team359\Object_detection\../scanner.h"
16	17	0		set __signed_stack_001TurnTurret, 30
16	16	3	#line 16 "C:\Users\Pascal\Documents\GitHub\SaSeRoS-Team359\Object_detection\../scanner.h"
16	16	3	#line 16 "C:\Users\Pascal\Documents\GitHub\SaSeRoS-Team359\Object_detection\../scanner.h"
16	17	3		mov __D0TurnTurret, __TurnTurret_7qG2_deg_7qG2_000
16	17	5	#line 17 "C:\Users\Pascal\Documents\GitHub\SaSeRoS-Team359\Object_detection\../scanner.h"
16	18	5	#pragma macro 33
16	18	5		acquire __rotateMutex2
16	18	6		arrbuild __rotate_ports2, __constVal2
16	18	10		mov __rotate_power2, __signed_stack_001TurnTurret
16	18	12		mov __rotate_angle2, __D0TurnTurret
16	18	14		mov __rotate_turnpct2, __constVal0
16	18	16		mov __rotate_sync2, __constVal0
16	18	18		mov __rotate_stop2, __constVal1
16	18	20		mov __rotate_theRVP2, __constVal32
16	18	22		mov __rotate_theRVI2, __constVal0
16	18	24		mov __rotate_theRVD2, __constVal96
16	18	26		subcall __RotateMotor2, ____RotateMotor2_return
16	18	29		release __rotateMutex2
16	9669	30	#line 9669 "C:\Users\Pascal\Documents\GitHub\SaSeRoS-Team359\Object_detection\../scanner.h"
16	17	30	#line 17 "C:\Users\Pascal\Documents\GitHub\SaSeRoS-Team359\Object_detection\../scanner.h"
16	18	30	#line 18 "C:\Users\Pascal\Documents\GitHub\SaSeRoS-Team359\Object_detection\../scanner.h"
16	18	30	#line 18 "C:\Users\Pascal\Documents\GitHub\SaSeRoS-Team359\Object_detection\../scanner.h"
16	19	30		add scanner_currentRotation, scanner_currentRotation, __TurnTurret_7qG2_deg_7qG2_000
16	18	34	#line 18 "C:\Users\Pascal\Documents\GitHub\SaSeRoS-Team359\Object_detection\../scanner.h"
16	20	34	#line 20 "C:\Users\Pascal\Documents\GitHub\SaSeRoS-Team359\Object_detection\../scanner.h"
16	21	34		subret __TurnTurret_return
17	22	0	#line 22 "C:\Users\Pascal\Documents\GitHub\SaSeRoS-Team359\Object_detection\../scanner.h"
17	23	0		set __signed_stack_001CenterTurret, 30
17	22	3	#line 22 "C:\Users\Pascal\Documents\GitHub\SaSeRoS-Team359\Object_detection\../scanner.h"
17	22	3	#line 22 "C:\Users\Pascal\Documents\GitHub\SaSeRoS-Team359\Object_detection\../scanner.h"
17	22	3	#line 22 "C:\Users\Pascal\Documents\GitHub\SaSeRoS-Team359\Object_detection\../scanner.h"
17	22	3	#line 22 "C:\Users\Pascal\Documents\GitHub\SaSeRoS-Team359\Object_detection\../scanner.h"
17	22	3	#line 22 "C:\Users\Pascal\Documents\GitHub\SaSeRoS-Team359\Object_detection\../scanner.h"
17	23	3		sub __D0CenterTurret, __constVal0, scanner_currentRotation
17	23	7	#line 23 "C:\Users\Pascal\Documents\GitHub\SaSeRoS-Team359\Object_detection\../scanner.h"
17	24	7	#pragma macro 33
17	24	7		acquire __rotateMutex2
17	24	8		arrbuild __rotate_ports2, __constVal2
17	24	12		mov __rotate_power2, __signed_stack_001CenterTurret
17	24	14		mov __rotate_angle2, __D0CenterTurret
17	24	16		mov __rotate_turnpct2, __constVal0
17	24	18		mov __rotate_sync2, __constVal0
17	24	20		mov __rotate_stop2, __constVal1
17	24	22		mov __rotate_theRVP2, __constVal32
17	24	24		mov __rotate_theRVI2, __constVal0
17	24	26		mov __rotate_theRVD2, __constVal96
17	24	28		subcall __RotateMotor2, ____RotateMotor2_return
17	24	31		release __rotateMutex2
17	9700	32	#line 9700 "C:\Users\Pascal\Documents\GitHub\SaSeRoS-Team359\Object_detection\../scanner.h"
17	23	32	#line 23 "C:\Users\Pascal\Documents\GitHub\SaSeRoS-Team359\Object_detection\../scanner.h"
17	24	32	#line 24 "C:\Users\Pascal\Documents\GitHub\SaSeRoS-Team359\Object_detection\../scanner.h"
17	25	32		set scanner_currentRotation, 0
17	24	35	#line 24 "C:\Users\Pascal\Documents\GitHub\SaSeRoS-Team359\Object_detection\../scanner.h"
17	24	35	#line 24 "C:\Users\Pascal\Documents\GitHub\SaSeRoS-Team359\Object_detection\../scanner.h"
17	27	35	#line 27 "C:\Users\Pascal\Documents\GitHub\SaSeRoS-Team359\Object_detection\../scanner.h"
17	28	35		subret __CenterTurret_return
18	45	0	#line 45 "C:\Users\Pascal\Documents\GitHub\SaSeRoS-Team359\Object_detection\../scanner.h"
18	46	0		set __UltrasonicScan_7qG2_sensor_value_7qG2_000, 0
18	45	3	#line 45 "C:\Users\Pascal\Documents\GitHub\SaSeRoS-Team359\Object_detection\../scanner.h"
18	45	3	#line 45 "C:\Users\Pascal\Documents\GitHub\SaSeRoS-Team359\Object_detection\../scanner.h"
18	45	3	#line 45 "C:\Users\Pascal\Documents\GitHub\SaSeRoS-Team359\Object_detection\../scanner.h"
18	3768	3	#line 3768 "NXCDefs.h"
18	3769	3		mov __SetSensorLowspeed_7qG2_port_7qG2_000_inline_SetSensorUltrasonic_inline_UltrasonicScan, __constVal3
18	3768	5	#line 3768 "NXCDefs.h"
18	3768	5	#line 3768 "NXCDefs.h"
18	3769	5		mov __SetSensorLowspeed_7qG2_bIsPowered_7qG2_000_inline_SetSensorUltrasonic_inline_UltrasonicScan, __constVal1
18	3758	7	#line 3758 "NXCDefs.h"
18	3759	7		mov __SetSensorType_7qG2_port_7qG2_000_inline_SetSensorLowspeed_inline_SetSensorUltrasonic_inline_UltrasonicScan, __SetSensorLowspeed_7qG2_port_7qG2_000_inline_SetSensorUltrasonic_inline_UltrasonicScan
18	3758	9	#line 3758 "NXCDefs.h"
18	3758	9	#line 3758 "NXCDefs.h"
18	3759	9		mov __DU0SetSensorLowspeed_inline_SetSensorUltrasonic, __SetSensorLowspeed_7qG2_bIsPowered_7qG2_000_inline_SetSensorUltrasonic_inline_UltrasonicScan
18	3758	11	#line 3758 "NXCDefs.h"
18	3759	11		tst 5, __zfSetSensorLowspeed_inline_SetSensorUltrasonic, __DU0SetSensorLowspeed_inline_SetSensorUltrasonic
18	3758	14	#line 3758 "NXCDefs.h"
18	3759	14		brtst 4, __001__002__NXC_Label_36, __zfSetSensorLowspeed_inline_SetSensorUltrasonic
18	3758	17	#line 3758 "NXCDefs.h"
18	3759	17		set __D0SetSensorLowspeed_inline_SetSensorUltrasonic, 11
18	3758	20	#line 3758 "NXCDefs.h"
18	3759	20		jmp __001__002__NXC_Label_37
18	3758	22	#line 3758 "NXCDefs.h"
18	3759	22		set __D0SetSensorLowspeed_inline_SetSensorUltrasonic, 10
18	3758	25	#line 3758 "NXCDefs.h"
18	3759	25		mov __SetSensorType_7qG2_type_7qG2_000_inline_SetSensorLowspeed_inline_SetSensorUltrasonic_inline_UltrasonicScan, __D0SetSensorLowspeed_inline_SetSensorUltrasonic
18	3663	27	#line 3663 "NXCDefs.h"
18	3664	27		setin __SetSensorType_7qG2_type_7qG2_000_inline_SetSensorLowspeed_inline_SetSensorUltrasonic_inline_UltrasonicScan, __SetSensorType_7qG2_port_7qG2_000_inline_SetSensorLowspeed_inline_SetSensorUltrasonic_inline_UltrasonicScan, 0
18	3663	31	#line 3663 "NXCDefs.h"
18	3759	31	#line 3759 "NXCDefs.h"
18	3759	31	#line 3759 "NXCDefs.h"
18	3760	31		mov __SetSensorMode_7qG2_port_7qG2_000_inline_SetSensorLowspeed_inline_SetSensorUltrasonic_inline_UltrasonicScan, __SetSensorLowspeed_7qG2_port_7qG2_000_inline_SetSensorUltrasonic_inline_UltrasonicScan
18	3759	33	#line 3759 "NXCDefs.h"
18	3759	33	#line 3759 "NXCDefs.h"
18	3760	33		set __SetSensorMode_7qG2_mode_7qG2_000_inline_SetSensorLowspeed_inline_SetSensorUltrasonic_inline_UltrasonicScan, 0
18	3759	36	#line 3759 "NXCDefs.h"
18	3676	36	#line 3676 "NXCDefs.h"
18	3677	36		setin __SetSensorMode_7qG2_mode_7qG2_000_inline_SetSensorLowspeed_inline_SetSensorUltrasonic_inline_UltrasonicScan, __SetSensorMode_7qG2_port_7qG2_000_inline_SetSensorLowspeed_inline_SetSensorUltrasonic_inline_UltrasonicScan, 1
18	3676	40	#line 3676 "NXCDefs.h"
18	3760	40	#line 3760 "NXCDefs.h"
18	3760	40	#line 3760 "NXCDefs.h"
18	3761	40		mov __ResetSensor_7qG2_port_7qG2_000_inline_SetSensorLowspeed_inline_SetSensorUltrasonic_inline_UltrasonicScan, __SetSensorLowspeed_7qG2_port_7qG2_000_inline_SetSensorUltrasonic_inline_UltrasonicScan
18	3760	42	#line 3760 "NXCDefs.h"
18	3694	42	#line 3694 "NXCDefs.h"
18	3695	42	#pragma macro 4
18	3695	42		acquire __ResetSensorMutex
18	3695	43		mov __ResetSensorPort, __ResetSensor_7qG2_port_7qG2_000_inline_SetSensorLowspeed_inline_SetSensorUltrasonic_inline_UltrasonicScan
18	3695	45		subcall __ResetSensorSubroutine, ____ResetSensorSubroutine_return
18	3695	48		release __ResetSensorMutex
18	9924	49	#line 9924 "NXCDefs.h"
18	3694	49	#line 3694 "NXCDefs.h"
18	3761	49	#line 3761 "NXCDefs.h"
18	3768	49	#line 3768 "NXCDefs.h"
18	48	49	#line 48 "C:\Users\Pascal\Documents\GitHub\SaSeRoS-Team359\Object_detection\../scanner.h"
18	48	49	#line 48 "C:\Users\Pascal\Documents\GitHub\SaSeRoS-Team359\Object_detection\../scanner.h"
18	49	49		set __TurnTurret_7qG2_deg_7qG2_000, -180
18	48	52	#line 48 "C:\Users\Pascal\Documents\GitHub\SaSeRoS-Team359\Object_detection\../scanner.h"
18	50	52	#line 50 "C:\Users\Pascal\Documents\GitHub\SaSeRoS-Team359\Object_detection\../scanner.h"
18	51	52		subcall TurnTurret, __TurnTurret_return
18	50	54	#line 50 "C:\Users\Pascal\Documents\GitHub\SaSeRoS-Team359\Object_detection\../scanner.h"
18	50	54	#line 50 "C:\Users\Pascal\Documents\GitHub\SaSeRoS-Team359\Object_detection\../scanner.h"
18	51	54		mov __signed_stack_001UltrasonicScan, scanner_currentRotation
18	50	56	#line 50 "C:\Users\Pascal\Documents\GitHub\SaSeRoS-Team359\Object_detection\../scanner.h"
18	50	56	#line 50 "C:\Users\Pascal\Documents\GitHub\SaSeRoS-Team359\Object_detection\../scanner.h"
18	51	56		set __D0UltrasonicScan, 180
18	50	59	#line 50 "C:\Users\Pascal\Documents\GitHub\SaSeRoS-Team359\Object_detection\../scanner.h"
18	51	59		cmp 0, __zfUltrasonicScan, __signed_stack_001UltrasonicScan, __D0UltrasonicScan
18	50	63	#line 50 "C:\Users\Pascal\Documents\GitHub\SaSeRoS-Team359\Object_detection\../scanner.h"
18	51	63		mov __D0UltrasonicScan, __zfUltrasonicScan
18	52	66	#line 52 "C:\Users\Pascal\Documents\GitHub\SaSeRoS-Team359\Object_detection\../scanner.h"
18	53	66		brtst 4, __NXC_Label_835, __zfUltrasonicScan
18	52	69	#line 52 "C:\Users\Pascal\Documents\GitHub\SaSeRoS-Team359\Object_detection\../scanner.h"
18	53	69		set __TurnTurret_7qG2_deg_7qG2_000, 20
18	52	72	#line 52 "C:\Users\Pascal\Documents\GitHub\SaSeRoS-Team359\Object_detection\../scanner.h"
18	55	72	#line 55 "C:\Users\Pascal\Documents\GitHub\SaSeRoS-Team359\Object_detection\../scanner.h"
18	56	72		subcall TurnTurret, __TurnTurret_return
18	55	74	#line 55 "C:\Users\Pascal\Documents\GitHub\SaSeRoS-Team359\Object_detection\../scanner.h"
18	55	74	#line 55 "C:\Users\Pascal\Documents\GitHub\SaSeRoS-Team359\Object_detection\../scanner.h"
18	55	74	#line 55 "C:\Users\Pascal\Documents\GitHub\SaSeRoS-Team359\Object_detection\../scanner.h"
18	7921	74	#line 7921 "NXCDefs.h"
18	7922	74		wait 300
18	7921	76	#line 7921 "NXCDefs.h"
18	58	76	#line 58 "C:\Users\Pascal\Documents\GitHub\SaSeRoS-Team359\Object_detection\../scanner.h"
18	58	76	#line 58 "C:\Users\Pascal\Documents\GitHub\SaSeRoS-Team359\Object_detection\../scanner.h"
18	59	76	#pragma macro 26
18	59	76		acquire __RLSBmutex3
18	59	77		mov __RLSReadBuf3, __RLSBbufLSWrite1
18	59	79		set __RLSBytesCount3, 1
18	59	82		wait 15
18	59	84		subcall __ReadLSBytes3, ____ReadLSBytes3_return
18	59	87		index __D0UltrasonicScan, __RLSReadBuf3, 65535
18	59	91		release __RLSBmutex3
18	9977	92	#line 9977 "C:\Users\Pascal\Documents\GitHub\SaSeRoS-Team359\Object_detection\../scanner.h"
18	58	92	#line 58 "C:\Users\Pascal\Documents\GitHub\SaSeRoS-Team359\Object_detection\../scanner.h"
18	59	92		mov __UltrasonicScan_7qG2_sensor_value_7qG2_000, __D0UltrasonicScan
18	58	94	#line 58 "C:\Users\Pascal\Documents\GitHub\SaSeRoS-Team359\Object_detection\../scanner.h"
18	58	94	#line 58 "C:\Users\Pascal\Documents\GitHub\SaSeRoS-Team359\Object_detection\../scanner.h"
18	61	94	#line 61 "C:\Users\Pascal\Documents\GitHub\SaSeRoS-Team359\Object_detection\../scanner.h"
18	62	94		mov __signed_stack_001UltrasonicScan, __D0UltrasonicScan
18	61	96	#line 61 "C:\Users\Pascal\Documents\GitHub\SaSeRoS-Team359\Object_detection\../scanner.h"
18	61	96	#line 61 "C:\Users\Pascal\Documents\GitHub\SaSeRoS-Team359\Object_detection\../scanner.h"
18	62	96		set __D0UltrasonicScan, 30
18	61	99	#line 61 "C:\Users\Pascal\Documents\GitHub\SaSeRoS-Team359\Object_detection\../scanner.h"
18	62	99		cmp 1, __zfUltrasonicScan, __signed_stack_001UltrasonicScan, __D0UltrasonicScan
18	61	103	#line 61 "C:\Users\Pascal\Documents\GitHub\SaSeRoS-Team359\Object_detection\../scanner.h"
18	62	103		mov __D0UltrasonicScan, __zfUltrasonicScan
18	63	106	#line 63 "C:\Users\Pascal\Documents\GitHub\SaSeRoS-Team359\Object_detection\../scanner.h"
18	64	106		brtst 4, __NXC_Label_846, __zfUltrasonicScan
18	64	109	#line 64 "C:\Users\Pascal\Documents\GitHub\SaSeRoS-Team359\Object_detection\../scanner.h"
18	65	109		subcall CenterTurret, __CenterTurret_return
18	64	111	#line 64 "C:\Users\Pascal\Documents\GitHub\SaSeRoS-Team359\Object_detection\../scanner.h"
18	65	111	#line 65 "C:\Users\Pascal\Documents\GitHub\SaSeRoS-Team359\Object_detection\../scanner.h"
18	66	111		mov __D0UltrasonicScan, scanner_currentRotation
18	65	113	#line 65 "C:\Users\Pascal\Documents\GitHub\SaSeRoS-Team359\Object_detection\../scanner.h"
18	66	113		subret __UltrasonicScan_return
18	65	115	#line 65 "C:\Users\Pascal\Documents\GitHub\SaSeRoS-Team359\Object_detection\../scanner.h"
18	70	115	#line 70 "C:\Users\Pascal\Documents\GitHub\SaSeRoS-Team359\Object_detection\../scanner.h"
18	70	115	#line 70 "C:\Users\Pascal\Documents\GitHub\SaSeRoS-Team359\Object_detection\../scanner.h"
18	71	115		jmp __NXC_Label_834
18	70	117	#line 70 "C:\Users\Pascal\Documents\GitHub\SaSeRoS-Team359\Object_detection\../scanner.h"
18	71	117	#line 71 "C:\Users\Pascal\Documents\GitHub\SaSeRoS-Team359\Object_detection\../scanner.h"
18	72	117		subcall CenterTurret, __CenterTurret_return
18	71	119	#line 71 "C:\Users\Pascal\Documents\GitHub\SaSeRoS-Team359\Object_detection\../scanner.h"
18	72	119	#line 72 "C:\Users\Pascal\Documents\GitHub\SaSeRoS-Team359\Object_detection\../scanner.h"
18	73	119		set __D0UltrasonicScan, 0
18	72	122	#line 72 "C:\Users\Pascal\Documents\GitHub\SaSeRoS-Team359\Object_detection\../scanner.h"
18	73	122		subret __UltrasonicScan_return
18	72	124	#line 72 "C:\Users\Pascal\Documents\GitHub\SaSeRoS-Team359\Object_detection\../scanner.h"
18	73	124	#line 73 "C:\Users\Pascal\Documents\GitHub\SaSeRoS-Team359\Object_detection\../scanner.h"
18	74	124		subret __UltrasonicScan_return
19	40	0	#line 40 "C:\Users\Pascal\AppData\Local\Temp\temp.nxc"
19	41	0		mov __unsigned_stack_001Look_Back, reverse
19	40	2	#line 40 "C:\Users\Pascal\AppData\Local\Temp\temp.nxc"
19	40	2	#line 40 "C:\Users\Pascal\AppData\Local\Temp\temp.nxc"
19	41	2		set __D0Look_Back, 0
19	40	5	#line 40 "C:\Users\Pascal\AppData\Local\Temp\temp.nxc"
19	41	5		cmp 4, __zfLook_Back, __unsigned_stack_001Look_Back, __D0Look_Back
19	40	9	#line 40 "C:\Users\Pascal\AppData\Local\Temp\temp.nxc"
19	41	9		mov __D0Look_Back, __zfLook_Back
19	41	11	#line 41 "C:\Users\Pascal\AppData\Local\Temp\temp.nxc"
19	42	11		brtst 4, __NXC_Label_895, __zfLook_Back
19	41	14	#line 41 "C:\Users\Pascal\AppData\Local\Temp\temp.nxc"
19	42	14		getin __D0Look_Back, __constVal2, 4
19	41	18	#line 41 "C:\Users\Pascal\AppData\Local\Temp\temp.nxc"
19	42	18		not __D0Look_Back, __D0Look_Back
19	42	21	#line 42 "C:\Users\Pascal\AppData\Local\Temp\temp.nxc"
19	43	21		tst 5, __zfLook_Back, __D0Look_Back
19	42	24	#line 42 "C:\Users\Pascal\AppData\Local\Temp\temp.nxc"
19	43	24		brtst 4, __NXC_Label_900, __zfLook_Back
19	43	27	#line 43 "C:\Users\Pascal\AppData\Local\Temp\temp.nxc"
19	44	27		subcall Stop_Driving, __Stop_Driving_return
19	43	29	#line 43 "C:\Users\Pascal\AppData\Local\Temp\temp.nxc"
19	43	29	#line 43 "C:\Users\Pascal\AppData\Local\Temp\temp.nxc"
19	44	29		set __Drive_Backward_7qG2_pwr_7qG2_000, 50
19	43	32	#line 43 "C:\Users\Pascal\AppData\Local\Temp\temp.nxc"
19	44	32	#line 44 "C:\Users\Pascal\AppData\Local\Temp\temp.nxc"
19	45	32		subcall Drive_Backward, __Drive_Backward_return
19	44	34	#line 44 "C:\Users\Pascal\AppData\Local\Temp\temp.nxc"
19	44	34	#line 44 "C:\Users\Pascal\AppData\Local\Temp\temp.nxc"
19	45	34		set __TurnRobot_7qG2_deg_7qG2_000, 360
19	44	37	#line 44 "C:\Users\Pascal\AppData\Local\Temp\temp.nxc"
19	44	37	#line 44 "C:\Users\Pascal\AppData\Local\Temp\temp.nxc"
19	45	37		set __TurnRobot_7qG2_pwr_7qG2_000, 50
19	44	40	#line 44 "C:\Users\Pascal\AppData\Local\Temp\temp.nxc"
19	45	40	#line 45 "C:\Users\Pascal\AppData\Local\Temp\temp.nxc"
19	46	40		subcall TurnRobot, __TurnRobot_return
19	45	42	#line 45 "C:\Users\Pascal\AppData\Local\Temp\temp.nxc"
19	45	42	#line 45 "C:\Users\Pascal\AppData\Local\Temp\temp.nxc"
19	45	42	#line 45 "C:\Users\Pascal\AppData\Local\Temp\temp.nxc"
19	7921	42	#line 7921 "NXCDefs.h"
19	7922	42		wait 1000
19	7921	44	#line 7921 "NXCDefs.h"
19	46	44	#line 46 "C:\Users\Pascal\AppData\Local\Temp\temp.nxc"
19	47	44	#line 47 "C:\Users\Pascal\AppData\Local\Temp\temp.nxc"
19	48	44		subcall Stop_Driving, __Stop_Driving_return
19	47	46	#line 47 "C:\Users\Pascal\AppData\Local\Temp\temp.nxc"
19	47	46	#line 47 "C:\Users\Pascal\AppData\Local\Temp\temp.nxc"
19	48	46		set __Drive_Forward_7qG2_pwr_7qG2_000, 50
19	47	49	#line 47 "C:\Users\Pascal\AppData\Local\Temp\temp.nxc"
19	48	49	#line 48 "C:\Users\Pascal\AppData\Local\Temp\temp.nxc"
19	49	49		subcall Drive_Forward, __Drive_Forward_return
19	48	51	#line 48 "C:\Users\Pascal\AppData\Local\Temp\temp.nxc"
19	50	51	#line 50 "C:\Users\Pascal\AppData\Local\Temp\temp.nxc"
19	50	51	#line 50 "C:\Users\Pascal\AppData\Local\Temp\temp.nxc"
19	51	51		jmp __NXC_Label_894
19	50	53	#line 50 "C:\Users\Pascal\AppData\Local\Temp\temp.nxc"
19	50	53	#line 50 "C:\Users\Pascal\AppData\Local\Temp\temp.nxc"
19	51	53		mov __unsigned_stack_001Look_Back, reverse
19	50	55	#line 50 "C:\Users\Pascal\AppData\Local\Temp\temp.nxc"
19	50	55	#line 50 "C:\Users\Pascal\AppData\Local\Temp\temp.nxc"
19	51	55		set __D0Look_Back, 1
19	50	58	#line 50 "C:\Users\Pascal\AppData\Local\Temp\temp.nxc"
19	51	58		cmp 4, __zfLook_Back, __unsigned_stack_001Look_Back, __D0Look_Back
19	50	62	#line 50 "C:\Users\Pascal\AppData\Local\Temp\temp.nxc"
19	51	62		mov __D0Look_Back, __zfLook_Back
19	51	64	#line 51 "C:\Users\Pascal\AppData\Local\Temp\temp.nxc"
19	52	64		brtst 4, __NXC_Label_912, __zfLook_Back
19	51	67	#line 51 "C:\Users\Pascal\AppData\Local\Temp\temp.nxc"
19	52	67		getin __D0Look_Back, __constVal2, 4
19	51	71	#line 51 "C:\Users\Pascal\AppData\Local\Temp\temp.nxc"
19	52	71		not __D0Look_Back, __D0Look_Back
19	52	74	#line 52 "C:\Users\Pascal\AppData\Local\Temp\temp.nxc"
19	53	74		tst 5, __zfLook_Back, __D0Look_Back
19	52	77	#line 52 "C:\Users\Pascal\AppData\Local\Temp\temp.nxc"
19	53	77		brtst 4, __NXC_Label_917, __zfLook_Back
19	53	80	#line 53 "C:\Users\Pascal\AppData\Local\Temp\temp.nxc"
19	54	80		set stuck, 1
19	53	83	#line 53 "C:\Users\Pascal\AppData\Local\Temp\temp.nxc"
19	53	83	#line 53 "C:\Users\Pascal\AppData\Local\Temp\temp.nxc"
19	53	83	#line 53 "C:\Users\Pascal\AppData\Local\Temp\temp.nxc"
19	54	83		set __signed_stack_001Look_Back, 1
19	53	86	#line 53 "C:\Users\Pascal\AppData\Local\Temp\temp.nxc"
19	53	86	#line 53 "C:\Users\Pascal\AppData\Local\Temp\temp.nxc"
19	54	86		set __signed_stack_002Look_Back, 1
19	53	89	#line 53 "C:\Users\Pascal\AppData\Local\Temp\temp.nxc"
19	53	89	#line 53 "C:\Users\Pascal\AppData\Local\Temp\temp.nxc"
19	54	89		strcat __strbufLook_Back, __constStr0015
19	54	93	#line 54 "C:\Users\Pascal\AppData\Local\Temp\temp.nxc"
19	55	93		acquire __TextOutMutex
19	54	94	#line 54 "C:\Users\Pascal\AppData\Local\Temp\temp.nxc"
19	55	94		mov __TextOutArgs.Location.X, __signed_stack_001Look_Back
19	54	97	#line 54 "C:\Users\Pascal\AppData\Local\Temp\temp.nxc"
19	55	97		mov __TextOutArgs.Location.Y, __signed_stack_002Look_Back
19	54	100	#line 54 "C:\Users\Pascal\AppData\Local\Temp\temp.nxc"
19	55	100		set __TextOutArgs.Options, 0
19	54	103	#line 54 "C:\Users\Pascal\AppData\Local\Temp\temp.nxc"
19	55	103		mov __TextOutArgs.Text, __strbufLook_Back
19	54	105	#line 54 "C:\Users\Pascal\AppData\Local\Temp\temp.nxc"
19	55	105		syscall 13, __TextOutArgs
19	54	108	#line 54 "C:\Users\Pascal\AppData\Local\Temp\temp.nxc"
19	55	108		mov __D0Look_Back, __TextOutArgs.Result
19	54	111	#line 54 "C:\Users\Pascal\AppData\Local\Temp\temp.nxc"
19	55	111		release __TextOutMutex
19	54	112	#line 54 "C:\Users\Pascal\AppData\Local\Temp\temp.nxc"
19	56	112	#line 56 "C:\Users\Pascal\AppData\Local\Temp\temp.nxc"
19	58	112	#line 58 "C:\Users\Pascal\AppData\Local\Temp\temp.nxc"
19	59	112		jmp __NXC_Label_911
19	58	114	#line 58 "C:\Users\Pascal\AppData\Local\Temp\temp.nxc"
19	59	114		exit -1, -1
20	59	0	#line 59 "C:\Users\Pascal\AppData\Local\Temp\temp.nxc"
20	59	0	#line 59 "C:\Users\Pascal\AppData\Local\Temp\temp.nxc"
20	60	0		not __DU0Object_Detection, stuck
20	60	3	#line 60 "C:\Users\Pascal\AppData\Local\Temp\temp.nxc"
20	61	3		tst 5, __zfObject_Detection, __DU0Object_Detection
20	60	6	#line 60 "C:\Users\Pascal\AppData\Local\Temp\temp.nxc"
20	61	6		brtst 4, __NXC_Label_925, __zfObject_Detection
20	60	9	#line 60 "C:\Users\Pascal\AppData\Local\Temp\temp.nxc"
20	61	9	#pragma macro 26
20	61	9		acquire __RLSBmutex3
20	61	10		mov __RLSReadBuf3, __RLSBbufLSWrite1
20	61	12		set __RLSBytesCount3, 1
20	61	15		wait 15
20	61	17		subcall __ReadLSBytes3, ____ReadLSBytes3_return
20	61	20		index __D0Object_Detection, __RLSReadBuf3, 65535
20	61	24		release __RLSBmutex3
20	10398	25	#line 10398 "C:\Users\Pascal\AppData\Local\Temp\temp.nxc"
20	60	25	#line 60 "C:\Users\Pascal\AppData\Local\Temp\temp.nxc"
20	61	25		mov __signed_stack_001Object_Detection, __D0Object_Detection
20	60	27	#line 60 "C:\Users\Pascal\AppData\Local\Temp\temp.nxc"
20	61	27		set __D0Object_Detection, 30
20	60	30	#line 60 "C:\Users\Pascal\AppData\Local\Temp\temp.nxc"
20	61	30		cmp 0, __zfObject_Detection, __signed_stack_001Object_Detection, __D0Object_Detection
20	60	34	#line 60 "C:\Users\Pascal\AppData\Local\Temp\temp.nxc"
20	61	34		mov __D0Object_Detection, __zfObject_Detection
20	61	37	#line 61 "C:\Users\Pascal\AppData\Local\Temp\temp.nxc"
20	62	37		brtst 4, __NXC_Label_930, __zfObject_Detection
20	62	40	#line 62 "C:\Users\Pascal\AppData\Local\Temp\temp.nxc"
20	63	40		subcall Stop_Driving, __Stop_Driving_return
20	62	42	#line 62 "C:\Users\Pascal\AppData\Local\Temp\temp.nxc"
20	63	42	#line 63 "C:\Users\Pascal\AppData\Local\Temp\temp.nxc"
20	64	42		subcall UltrasonicScan, __UltrasonicScan_return
20	63	44	#line 63 "C:\Users\Pascal\AppData\Local\Temp\temp.nxc"
20	64	44		mov angle, __D0UltrasonicScan
20	63	46	#line 63 "C:\Users\Pascal\AppData\Local\Temp\temp.nxc"
20	63	46	#line 63 "C:\Users\Pascal\AppData\Local\Temp\temp.nxc"
20	63	46	#line 63 "C:\Users\Pascal\AppData\Local\Temp\temp.nxc"
20	64	46		mov __TurnRobot_7qG2_deg_7qG2_000, __D0UltrasonicScan
20	63	48	#line 63 "C:\Users\Pascal\AppData\Local\Temp\temp.nxc"
20	63	48	#line 63 "C:\Users\Pascal\AppData\Local\Temp\temp.nxc"
20	64	48		set __TurnRobot_7qG2_pwr_7qG2_000, 50
20	63	51	#line 63 "C:\Users\Pascal\AppData\Local\Temp\temp.nxc"
20	64	51	#line 64 "C:\Users\Pascal\AppData\Local\Temp\temp.nxc"
20	65	51		subcall TurnRobot, __TurnRobot_return
20	64	53	#line 64 "C:\Users\Pascal\AppData\Local\Temp\temp.nxc"
20	64	53	#line 64 "C:\Users\Pascal\AppData\Local\Temp\temp.nxc"
20	65	53		set __Drive_Forward_7qG2_pwr_7qG2_000, 50
20	64	56	#line 64 "C:\Users\Pascal\AppData\Local\Temp\temp.nxc"
20	65	56	#line 65 "C:\Users\Pascal\AppData\Local\Temp\temp.nxc"
20	66	56		subcall Drive_Forward, __Drive_Forward_return
20	65	58	#line 65 "C:\Users\Pascal\AppData\Local\Temp\temp.nxc"
20	66	58	#line 66 "C:\Users\Pascal\AppData\Local\Temp\temp.nxc"
20	67	58		subcall ShortBeep, __ShortBeep_return
20	66	60	#line 66 "C:\Users\Pascal\AppData\Local\Temp\temp.nxc"
20	67	60	#line 67 "C:\Users\Pascal\AppData\Local\Temp\temp.nxc"
20	67	60	#line 67 "C:\Users\Pascal\AppData\Local\Temp\temp.nxc"
20	68	60		getin __D0Object_Detection, __constVal0, 4
20	67	64	#line 67 "C:\Users\Pascal\AppData\Local\Temp\temp.nxc"
20	68	64		not __D0Object_Detection, __D0Object_Detection
20	68	67	#line 68 "C:\Users\Pascal\AppData\Local\Temp\temp.nxc"
20	69	67		tst 5, __zfObject_Detection, __D0Object_Detection
20	68	70	#line 68 "C:\Users\Pascal\AppData\Local\Temp\temp.nxc"
20	69	70		brtst 4, __NXC_Label_941, __zfObject_Detection
20	69	73	#line 69 "C:\Users\Pascal\AppData\Local\Temp\temp.nxc"
20	70	73		subcall Stop_Driving, __Stop_Driving_return
20	69	75	#line 69 "C:\Users\Pascal\AppData\Local\Temp\temp.nxc"
20	70	75	#line 70 "C:\Users\Pascal\AppData\Local\Temp\temp.nxc"
20	71	75		set reverse, 1
20	70	78	#line 70 "C:\Users\Pascal\AppData\Local\Temp\temp.nxc"
20	70	78	#line 70 "C:\Users\Pascal\AppData\Local\Temp\temp.nxc"
20	70	78	#line 70 "C:\Users\Pascal\AppData\Local\Temp\temp.nxc"
20	71	78		set __Drive_Backward_7qG2_pwr_7qG2_000, 50
20	70	81	#line 70 "C:\Users\Pascal\AppData\Local\Temp\temp.nxc"
20	71	81	#line 71 "C:\Users\Pascal\AppData\Local\Temp\temp.nxc"
20	72	81		subcall Drive_Backward, __Drive_Backward_return
20	71	83	#line 71 "C:\Users\Pascal\AppData\Local\Temp\temp.nxc"
20	71	83	#line 71 "C:\Users\Pascal\AppData\Local\Temp\temp.nxc"
20	71	83	#line 71 "C:\Users\Pascal\AppData\Local\Temp\temp.nxc"
20	7921	83	#line 7921 "NXCDefs.h"
20	7922	83		wait 1000
20	7921	85	#line 7921 "NXCDefs.h"
20	72	85	#line 72 "C:\Users\Pascal\AppData\Local\Temp\temp.nxc"
20	73	85	#line 73 "C:\Users\Pascal\AppData\Local\Temp\temp.nxc"
20	74	85		subcall Stop_Driving, __Stop_Driving_return
20	73	87	#line 73 "C:\Users\Pascal\AppData\Local\Temp\temp.nxc"
20	74	87	#line 74 "C:\Users\Pascal\AppData\Local\Temp\temp.nxc"
20	75	87		set reverse, 0
20	74	90	#line 74 "C:\Users\Pascal\AppData\Local\Temp\temp.nxc"
20	74	90	#line 74 "C:\Users\Pascal\AppData\Local\Temp\temp.nxc"
20	75	90	#line 75 "C:\Users\Pascal\AppData\Local\Temp\temp.nxc"
20	76	90		subcall UltrasonicScan, __UltrasonicScan_return
20	75	92	#line 75 "C:\Users\Pascal\AppData\Local\Temp\temp.nxc"
20	76	92		mov angle, __D0UltrasonicScan
20	75	94	#line 75 "C:\Users\Pascal\AppData\Local\Temp\temp.nxc"
20	75	94	#line 75 "C:\Users\Pascal\AppData\Local\Temp\temp.nxc"
20	75	94	#line 75 "C:\Users\Pascal\AppData\Local\Temp\temp.nxc"
20	76	94		mov __TurnRobot_7qG2_deg_7qG2_000, __D0UltrasonicScan
20	75	96	#line 75 "C:\Users\Pascal\AppData\Local\Temp\temp.nxc"
20	75	96	#line 75 "C:\Users\Pascal\AppData\Local\Temp\temp.nxc"
20	76	96		set __TurnRobot_7qG2_pwr_7qG2_000, 50
20	75	99	#line 75 "C:\Users\Pascal\AppData\Local\Temp\temp.nxc"
20	76	99	#line 76 "C:\Users\Pascal\AppData\Local\Temp\temp.nxc"
20	77	99		subcall TurnRobot, __TurnRobot_return
20	76	101	#line 76 "C:\Users\Pascal\AppData\Local\Temp\temp.nxc"
20	76	101	#line 76 "C:\Users\Pascal\AppData\Local\Temp\temp.nxc"
20	77	101		set __Drive_Forward_7qG2_pwr_7qG2_000, 50
20	76	104	#line 76 "C:\Users\Pascal\AppData\Local\Temp\temp.nxc"
20	77	104	#line 77 "C:\Users\Pascal\AppData\Local\Temp\temp.nxc"
20	78	104		subcall Drive_Forward, __Drive_Forward_return
20	77	106	#line 77 "C:\Users\Pascal\AppData\Local\Temp\temp.nxc"
20	78	106	#line 78 "C:\Users\Pascal\AppData\Local\Temp\temp.nxc"
20	79	106		subcall LongBeep, __LongBeep_return
20	78	108	#line 78 "C:\Users\Pascal\AppData\Local\Temp\temp.nxc"
20	81	108	#line 81 "C:\Users\Pascal\AppData\Local\Temp\temp.nxc"
20	83	108	#line 83 "C:\Users\Pascal\AppData\Local\Temp\temp.nxc"
20	84	108		jmp __NXC_Label_924
20	83	110	#line 83 "C:\Users\Pascal\AppData\Local\Temp\temp.nxc"
20	84	110		exit -1, -1
21	92	0	#line 92 "C:\Users\Pascal\AppData\Local\Temp\temp.nxc"
21	93	0		subret ____initialize_global_data_return
#CLUMPS
Clump	Name	Offset	File
0	main	0	C:\Users\Pascal\AppData\Local\Temp\temp.nxc
1	__RotateMotor2	16	NXTDefs.h
2	__RotateMotor3	170	NXTDefs.h
3	__ResetSensorSubroutine	324	NXTDefs.h
4	__ReadLSBytes3	337	NXTDefs.h
5	Touch_Init	421	C:\Users\Pascal\Documents\GitHub\SaSeRoS-Team359\Object_detection\../basic_functions/functions.h
6	Range_Sens_Init	441	C:\Users\Pascal\Documents\GitHub\SaSeRoS-Team359\Object_detection\../basic_functions/functions.h
7	Light_Sens_Init	498	C:\Users\Pascal\Documents\GitHub\SaSeRoS-Team359\Object_detection\../basic_functions/functions.h
8	TurnMotor	555	C:\Users\Pascal\Documents\GitHub\SaSeRoS-Team359\Object_detection\../basic_functions/functions.h
9	TurnRobot	654	C:\Users\Pascal\Documents\GitHub\SaSeRoS-Team359\Object_detection\../basic_functions/functions.h
10	Stop_Driving	664	C:\Users\Pascal\Documents\GitHub\SaSeRoS-Team359\Object_detection\../basic_functions/functions.h
11	Drive_Forward	712	C:\Users\Pascal\Documents\GitHub\SaSeRoS-Team359\Object_detection\../basic_functions/functions.h
12	Drive_Backward	768	C:\Users\Pascal\Documents\GitHub\SaSeRoS-Team359\Object_detection\../basic_functions/functions.h
13	ShortBeep	830	C:\Users\Pascal\Documents\GitHub\SaSeRoS-Team359\Object_detection\../basic_functions/functions.h
14	LongBeep	864	C:\Users\Pascal\Documents\GitHub\SaSeRoS-Team359\Object_detection\../basic_functions/functions.h
15	initialise	898	C:\Users\Pascal\Documents\GitHub\SaSeRoS-Team359\Object_detection\../initialise.h
16	TurnTurret	1488	C:\Users\Pascal\Documents\GitHub\SaSeRoS-Team359\Object_detection\../scanner.h
17	CenterTurret	1524	C:\Users\Pascal\Documents\GitHub\SaSeRoS-Team359\Object_detection\../scanner.h
18	UltrasonicScan	1561	C:\Users\Pascal\Documents\GitHub\SaSeRoS-Team359\Object_detection\../scanner.h
19	Look_Back	1687	C:\Users\Pascal\AppData\Local\Temp\temp.nxc
20	Object_Detection	1804	C:\Users\Pascal\AppData\Local\Temp\temp.nxc
21	__initialize_global_data	1917	C:\Users\Pascal\AppData\Local\Temp\temp.nxc
