#SYMBOLS
Index	Identifier	Type	Flag	Data	Size	RefCount
0	__D0LongBeep	6	1	0	4	3
1	__D0Look_Back	6	1	4	4	9
2	__DU0Look_Back	5	1	8	4	4
3	__D0EdgeDetection	6	1	12	4	2
4	__DU0EdgeDetection	5	1	16	4	4
5	__D0initialise	6	1	20	4	35
6	__D0ShortBeep	6	1	24	4	3
7	__D0TurnMotor	6	1	28	4	7
8	__D0TurnTurret	6	1	32	4	2
9	__D0Object_Detection	6	1	36	4	9
10	__DU0Object_Detection	5	1	40	4	6
11	__D0Random_Angle	6	1	44	4	7
12	__TextOutMutex	9	0	48	4	36
13	__RLSBmutex3	9	0	52	4	10
14	__SPTArgsMutex	9	0	56	4	4
15	__CLSCSMutex3	9	0	60	4	2
16	__CLSWMutex3	9	0	64	4	2
17	__CLSRMutex3	9	0	68	4	2
18	__DU0DetectEdge	5	1	72	4	3
19	__D0Drive_Backward	6	1	76	4	4
20	__D0Drive_Forward	6	1	80	4	4
21	__D0CheckDirection	6	1	84	4	5
22	__DU0CheckDirection	5	1	88	4	8
23	__D0DetectEdge	6	1	92	4	6
24	__D0SetSensorLight_inline_Light_Sens_Init	6	1	96	4	3
25	__signed_stack_002ShortBeep	6	1	100	4	2
26	__signed_stack_003ShortBeep	6	1	104	4	2
27	__signed_stack_001TurnMotor	6	1	108	4	6
28	__signed_stack_002Look_Back	6	1	112	4	2
29	__signed_stack_001Object_Detection	6	1	116	4	2
30	__signed_stack_001ShortBeep	6	1	120	4	2
31	__signed_stack_001TurnTurret	6	1	124	4	2
32	__constValf3P5	10	0	128	4	1
33	__Wait_7qG2_ms_7qG2_000_inline_initialise	5	1	132	4	7
34	__signed_stack_002TurnMotor	6	1	136	4	4
35	__signed_stack_003TurnMotor	6	1	140	4	4
36	__signed_stack_004TurnMotor	6	1	144	4	4
37	__signed_stack_001CheckDirection	6	1	148	4	2
38	__signed_stack_001DetectEdge	6	1	152	4	4
39	__signed_stack_002DetectEdge	6	1	156	4	2
40	__DU0SetSensorLight_inline_Light_Sens_Init	5	1	160	4	2
41	__D0SetSensorLowspeed_inline_SetSensorUltrasonic	6	1	164	4	3
42	__DU0SetSensorLowspeed_inline_SetSensorUltrasonic	5	1	168	4	2
43	__signed_stack_002LongBeep	6	1	172	4	2
44	__signed_stack_003LongBeep	6	1	176	4	2
45	__signed_stack_001Look_Back	6	1	180	4	2
46	__signed_stack_001initialise	6	1	184	4	26
47	__signed_stack_002initialise	6	1	188	4	22
48	__signed_stack_001LongBeep	6	1	192	4	2
49	__ResetSensorMutex	9	0	196	4	4
50	__rotate_theAngle2	5	1	200	4	2
51	__rotate_angle3	6	1	204	4	5
52	__rotate_theAngle3	5	1	208	4	2
53	__rotateMutex2	9	0	212	4	2
54	__rotate_angle2	6	1	216	4	4
55	__TurnRobot_7qG2_deg_7qG2_000	4	1	220	2	4
56	__constVal360	4	0	222	2	1
57	__rotate_RotCount3	4	1	224	2	4
58	__TurnRobot_7qG2_pwr_7qG2_000	4	1	226	2	4
59	__Drive_Forward_7qG2_pwr_7qG2_000	4	1	228	2	7
60	__constVal200	4	0	230	2	2
61	__constVal180	4	0	232	2	1
62	__rotate_RotCount2	4	1	234	2	4
63	__Range_Sens_Init_7qG2_Port_7qG2_000	4	1	236	2	3
64	__Touch_Init_7qG2_Port_7qG2_000	4	1	238	2	4
65	__rotate_OldRotCount2	4	1	240	2	2
66	__rotate_OldRotCount3	4	1	242	2	2
67	__TurnMotor_7qG2_pwr_7qG2_000	4	1	244	2	3
68	__Light_Sens_Init_7qG2_Port_7qG2_000	4	1	246	2	3
69	__TurnMotor_7qG2_deg_7qG2_000	4	1	248	2	4
70	__initialise_7qG2_Light_7qG2_000	4	1	250	2	3
71	__initialise_7qG2_Range_7qG2_000	4	1	252	2	3
72	__TurnTurret_7qG2_deg_7qG2_000	4	1	254	2	4
73	__CheckDirection_7qG2_dir_7qG2_000	4	1	256	2	6
74	angle	4	1	258	2	6
75	__Random_Angle_7qG2_x_7qG2_000	4	1	260	2	4
76	__Drive_Backward_7qG2_pwr_7qG2_000	4	1	262	2	5
77	__SetSensorLowspeed_7qG2_bIsPowered_7qG2_000_inline_SetSensorUltrasonic_inline_Range_Sens_Init	1	1	264	1	2
78	__SetSensorType_7qG2_port_7qG2_000_inline_SetSensorLowspeed_inline_SetSensorUltrasonic_inline_Range_Sens_Init	1	1	265	1	2
79	__CheckDirection_return	1	1	266	1	7
80	__Range_Sens_Init_return	1	1	267	1	3
81	__SetSensorLowspeed_7qG2_port_7qG2_000_inline_SetSensorUltrasonic_inline_Range_Sens_Init	1	1	268	1	4
82	__ResetSensor_7qG2_port_7qG2_000_inline_SetSensorLowspeed_inline_SetSensorUltrasonic_inline_Range_Sens_Init	1	1	269	1	2
83	__rotate_sync2	1	1	270	1	2
84	__SetSensorMode_7qG2_port_7qG2_000_inline_Range_Sens_Init	1	1	271	1	2
85	__SetSensorType_7qG2_type_7qG2_000_inline_SetSensorLowspeed_inline_SetSensorUltrasonic_inline_Range_Sens_Init	1	1	272	1	2
86	__SetSensorMode_7qG2_port_7qG2_000_inline_SetSensorLowspeed_inline_SetSensorUltrasonic_inline_Range_Sens_Init	1	1	273	1	2
87	__SetSensorMode_7qG2_mode_7qG2_000_inline_SetSensorLowspeed_inline_SetSensorUltrasonic_inline_Range_Sens_Init	1	1	274	1	2
88	__SetSensorType_7qG2_type_7qG2_000_inline_Touch_Init	1	1	275	1	2
89	direction	1	1	276	1	9
90	__rotate_power2	1	1	277	1	4
91	__Random_Angle_return	1	1	278	1	6
92	__Touch_Init_return	1	1	279	1	4
93	__SetSensorType_7qG2_port_7qG2_000_inline_Touch_Init	1	1	280	1	2
94	__SetSensorMode_7qG2_mode_7qG2_000_inline_Touch_Init	1	1	281	1	2
95	__rotate_firstPort2	1	1	282	1	5
96	stuck	1	1	283	1	3
97	reverse	1	1	284	1	5
98	__SetSensorMode_7qG2_port_7qG2_000_inline_Touch_Init	1	1	285	1	2
99	____initialize_global_data_return	1	1	286	1	3
100	__DetectEdge_return	1	1	287	1	5
101	__TurnRobot_return	1	1	288	1	5
102	__LongBeep_return	1	1	289	1	3
103	__TurnMotor_return	1	1	290	1	3
104	__constVal96	2	0	291	1	9
105	__initialise_return	1	1	292	1	3
106	__Stop_Driving_return	1	1	293	1	9
107	__constVal63	2	0	294	1	6
108	__Drive_Forward_return	1	1	295	1	7
109	__OnRev_Tmp	2	1	296	1	4
110	__ShortBeep_return	1	1	297	1	3
111	__Drive_Backward_return	1	1	298	1	5
112	__ClearLine_7qG2_line_7qG2_000_inline_initialise	1	1	299	1	14
113	__SetSensorLight_7qG2_bActive_7qG2_000_inline_Light_Sens_Init	1	1	300	1	2
114	__SetSensorType_7qG2_port_7qG2_000_inline_SetSensorLight_inline_Light_Sens_Init	1	1	301	1	2
115	__SetSensorType_7qG2_type_7qG2_000_inline_SetSensorLight_inline_Light_Sens_Init	1	1	302	1	2
116	__SetSensorMode_7qG2_mode_7qG2_000_inline_Range_Sens_Init	1	1	303	1	2
117	__Light_Sens_Init_return	1	1	304	1	3
118	__SetSensorLight_7qG2_port_7qG2_000_inline_Light_Sens_Init	1	1	305	1	4
119	__SetSensorMode_7qG2_port_7qG2_000_inline_Light_Sens_Init	1	1	306	1	2
120	__SetSensorMode_7qG2_mode_7qG2_000_inline_Light_Sens_Init	1	1	307	1	2
121	__TurnTurret_return	1	1	308	1	5
122	__SetSensorMode_7qG2_port_7qG2_000_inline_SetSensorLight_inline_Light_Sens_Init	1	1	309	1	2
123	__SetSensorMode_7qG2_mode_7qG2_000_inline_SetSensorLight_inline_Light_Sens_Init	1	1	310	1	2
124	__ResetSensor_7qG2_port_7qG2_000_inline_SetSensorLight_inline_Light_Sens_Init	1	1	311	1	2
125	__rotate_stop2	1	1	312	1	2
126	__zfCheckDirection	1	1	313	1	3
127	__rotate_thePower3	2	1	314	1	4
128	__zfDetectEdge	1	1	315	1	3
129	__constVal100	2	0	316	1	2
130	__constVal32	2	0	317	1	27
131	__rotate_theTurnPct3	2	1	318	1	4
132	__rotate_rs3	1	1	319	1	2
133	__rotate_theRVP3	1	1	320	1	3
134	__zfinitialise	1	1	321	1	18
135	__rotate_theRS3	1	1	322	1	3
136	__rotate_theRVD3	1	1	323	1	3
137	__rotate_theRVI3	1	1	324	1	3
138	__zfEdgeDetection	1	1	325	1	6
139	__constVal10	2	0	326	1	2
140	__constVal3	2	0	327	1	6
141	____RotateMotor3_return	1	1	328	1	4
142	____RotateMotor2_return	1	1	329	1	3
143	__ResetSensorPort	1	1	330	1	4
144	__ResetSensorTmp	1	1	331	1	2
145	____ResetSensorSubroutine_return	1	1	332	1	4
146	__constVal0	2	1	333	1	59
147	__RLSBResult3	2	1	334	1	7
148	__RLSBytesCount3	1	1	335	1	11
149	__RLSBIterations3	1	1	336	1	4
150	__constVal2	2	0	337	1	4
151	____ReadLSBytes3_return	1	1	338	1	7
152	__constVal1	2	0	339	1	18
153	__rotate_thePower2	2	1	340	1	4
154	__rotate_rs2	1	1	341	1	2
155	__rotate_theRVD2	1	1	342	1	2
156	__zfSetSensorLowspeed_inline_SetSensorUltrasonic	1	1	343	1	2
157	__rotate_power3	1	1	344	1	5
158	__zfSetSensorLight_inline_Light_Sens_Init	1	1	345	1	2
159	__rotate_theTurnPct2	2	1	346	1	4
160	__rotate_theOM2	1	1	347	1	7
161	__rotate_theUF2	1	1	348	1	6
162	__rotate_turnpct2	2	1	349	1	3
163	__rotate_theRM2	1	1	350	1	4
164	__rotate_theRVI2	1	1	351	1	2
165	__rotate_theRVP2	1	1	352	1	2
166	__rotate_theRS2	1	1	353	1	3
167	__rotate_turnpct3	2	1	354	1	4
168	__zfObject_Detection	1	1	355	1	11
169	__rotate_stop3	1	1	356	1	3
170	__rotate_theUF3	1	1	357	1	6
171	__zfLook_Back	1	1	358	1	8
172	__rotate_theOM3	1	1	359	1	7
173	__rotate_sync3	1	1	360	1	3
174	__zfTurnMotor	1	1	361	1	3
175	__rotate_theRM3	1	1	362	1	4
176	__rotate_firstPort3	1	1	363	1	5
177	__CLSWArgs3	8	0	4	12	5
178	__CLSWArgs3.Result	2	1	364	1	5
179	__CLSWArgs3.Port	1	1	365	1	5
180	__CLSWArgs3.Buffer	7	0	366	4	5
181	__CLSWArgs3.Buffer.Buffer_type	1	0	0	1	0
182	__CLSWArgs3.ReturnLen	1	1	368	1	5
183	__CLSRArgs3	8	0	4	12	5
184	__CLSRArgs3.Result	2	1	372	1	5
185	__CLSRArgs3.Port	1	1	373	1	5
186	__CLSRArgs3.Buffer	7	0	374	4	5
187	__CLSRArgs3.Buffer.Buffer_type	1	0	0	1	0
188	__CLSRArgs3.BufferLen	1	1	376	1	5
189	__TextOutArgs	8	0	4	16	101
190	__TextOutArgs.Result	2	1	380	1	101
191	__TextOutArgs.Location	8	0	2	4	101
192	__TextOutArgs.Location.X	4	1	384	2	101
193	__TextOutArgs.Location.Y	4	1	386	2	101
194	__TextOutArgs.Text	7	0	388	4	101
195	__TextOutArgs.Text.Text_type	1	0	0	1	0
196	__TextOutArgs.Options	5	1	392	4	101
197	__SPTArgs	8	0	5	8	12
198	__SPTArgs.Result	2	1	396	1	12
199	__SPTArgs.Frequency	3	1	398	2	12
200	__SPTArgs.Duration	3	1	400	2	12
201	__SPTArgs.Loop	1	1	402	1	12
202	__SPTArgs.Volume	1	1	403	1	12
203	__RandomArgs	8	0	1	4	2
204	__RandomArgs.Result	4	1	404	2	2
205	__PointOutArgs	8	0	3	12	4
206	__PointOutArgs.Result	2	1	408	1	4
207	__PointOutArgs.Location	8	0	2	4	4
208	__PointOutArgs.Location.X	4	1	412	2	4
209	__PointOutArgs.Location.Y	4	1	414	2	4
210	__PointOutArgs.Options	5	1	416	4	4
211	__CLSCSArgs3	8	0	3	4	4
212	__CLSCSArgs3.Result	2	1	420	1	4
213	__CLSCSArgs3.Port	1	1	421	1	4
214	__CLSCSArgs3.BytesReady	1	1	422	1	4
215	__constStr0015	7	0	424	4	1
216	__constStr0015.__constStr0015_type	1	1	0	1	0
217	__strbufinitialise	7	0	426	4	18
218	__strbufinitialise.__strbufinitialise_type	1	0	0	1	0
219	__rotate_ports2	7	0	428	4	6
220	__rotate_ports2.__rotate_ports2_type	1	0	0	1	0
221	__strbufLook_Back	7	0	430	4	2
222	__strbufLook_Back.__strbufLook_Back_type	1	0	0	1	0
223	__RLSBbufLSWrite1	7	0	432	4	5
224	__RLSBbufLSWrite1.__RLSBbufLSWrite1_type	1	0	0	1	0
225	__OUT_AB	7	0	434	4	2
226	__OUT_AB.__OUT_AB_type	1	0	0	1	0
227	__constStr0009	7	0	436	4	1
228	__constStr0009.__constStr0009_type	1	1	0	1	0
229	__rotate_ports3	7	0	438	4	7
230	__rotate_ports3.__rotate_ports3_type	1	0	0	1	0
231	__RLSReadBuf3	7	0	440	4	16
232	__RLSReadBuf3.__RLSReadBuf3_type	1	0	0	1	0
233	__RLSLastGoodRead3	7	0	442	4	2
234	__RLSLastGoodRead3.__RLSLastGoodRead3_type	1	0	0	1	0
235	__constStr0012	7	0	444	4	1
236	__constStr0012.__constStr0012_type	1	1	0	1	0
237	__constStr0013	7	0	446	4	1
238	__constStr0013.__constStr0013_type	1	1	0	1	0
239	__constStr0014	7	0	448	4	1
240	__constStr0014.__constStr0014_type	1	1	0	1	0
241	__BlankLine	7	0	450	4	7
242	__BlankLine.__BlankLine_type	1	0	0	1	0
243	__constStr0010	7	0	452	4	4
244	__constStr0010.__constStr0010_type	1	1	0	1	0
245	__constStr0011	7	0	454	4	1
246	__constStr0011.__constStr0011_type	1	1	0	1	0
#SOURCES
Clump	Line	PC	Source
0	57	0	#line 57 "C:\Users\kjeld\AppData\Local\Temp\temp.nxc"
0	58	0		subcall __initialize_global_data, ____initialize_global_data_return
0	57	2	#line 57 "C:\Users\kjeld\AppData\Local\Temp\temp.nxc"
0	58	2	#line 58 "C:\Users\kjeld\AppData\Local\Temp\temp.nxc"
0	59	2		subcall initialise, __initialise_return
0	58	4	#line 58 "C:\Users\kjeld\AppData\Local\Temp\temp.nxc"
0	58	4	#line 58 "C:\Users\kjeld\AppData\Local\Temp\temp.nxc"
0	59	4		set __Drive_Forward_7qG2_pwr_7qG2_000, 50
0	58	7	#line 58 "C:\Users\kjeld\AppData\Local\Temp\temp.nxc"
0	59	7	#line 59 "C:\Users\kjeld\AppData\Local\Temp\temp.nxc"
0	60	7		subcall Drive_Forward, __Drive_Forward_return
0	59	9	#line 59 "C:\Users\kjeld\AppData\Local\Temp\temp.nxc"
0	61	9	#line 61 "C:\Users\kjeld\AppData\Local\Temp\temp.nxc"
0	62	9		start Object_Detection
0	61	11	#line 61 "C:\Users\kjeld\AppData\Local\Temp\temp.nxc"
0	62	11	#line 62 "C:\Users\kjeld\AppData\Local\Temp\temp.nxc"
0	63	11		start Look_Back
0	62	13	#line 62 "C:\Users\kjeld\AppData\Local\Temp\temp.nxc"
0	63	13	#line 63 "C:\Users\kjeld\AppData\Local\Temp\temp.nxc"
0	64	13		start EdgeDetection
0	63	15	#line 63 "C:\Users\kjeld\AppData\Local\Temp\temp.nxc"
0	64	15		exit -1, -1
1	4582	0		brtst 4, __rotate_Done2, __rotate_angle2
1	4583	3		sign __rotate_thePower2, __rotate_angle2
1	4584	6		abs __rotate_theAngle2, __rotate_angle2
1	4585	9		mul __rotate_thePower2, __rotate_thePower2, __rotate_power2
1	4587	13		set __rotate_theUF2, 23
1	4588	16		brtst 4, __rotate_NoSync2, __rotate_sync2
1	4589	19		set __rotate_theOM2, 7
1	4590	22		set __rotate_theRM2, 2
1	4591	25		mov __rotate_theTurnPct2, __rotate_turnpct2
1	4592	27		brtst 4, __rotate_Start2, __rotate_theTurnPct2
1	4593	30		add __rotate_theUF2, __rotate_theUF2, __constVal32
1	4594	34		jmp __rotate_Start2
1	4596	36		set __rotate_theOM2, 3
1	4597	39		set __rotate_theRM2, 0
1	4598	42		set __rotate_theTurnPct2, 0
1	4600	45		set __rotate_theRS2, 32
1	4601	48		setout __rotate_ports2, 1, __rotate_theOM2, 8, __rotate_theRM2, 5, __rotate_theAngle2, 6, __rotate_theRS2, 10, __rotate_theRVP2, 11, __rotate_theRVI2, 12, __rotate_theRVD2, 2, __rotate_thePower2, 7, __rotate_turnpct2, 0, __rotate_theUF2
1	4604	71		index __rotate_firstPort2, __rotate_ports2, 65535
1	4606	75		getout __rotate_power2, __rotate_firstPort2, 2
1	4607	79		brtst 4, __rotate_doneRunning2, __rotate_power2
1	4608	82		getout __rotate_rs2, __rotate_firstPort2, 6
1	4609	86		brcmp 4, __rotate_Running2, __rotate_rs2, __constVal32
1	4611	90		brtst 4, __rotate_Reset2, __rotate_stop2
1	4613	93		set __rotate_theOM2, 7
1	4614	96		set __rotate_theUF2, 7
1	4615	99		setout __rotate_ports2, 1, __rotate_theOM2, 8, __constVal1, 6, __rotate_theRS2, 2, __constVal0, 5, __constVal0, 0, __rotate_theUF2
1	4617	114		getout __rotate_RotCount2, __rotate_firstPort2, 14
1	4619	118		mov __rotate_OldRotCount2, __rotate_RotCount2
1	4620	120		wait 50
1	4622	122		getout __rotate_RotCount2, __rotate_firstPort2, 14
1	4623	126		brcmp 5, __rotate_Stabilize2, __rotate_OldRotCount2, __rotate_RotCount2
1	4624	130		set __rotate_theOM2, 4
1	4625	133		setout __rotate_ports2, 8, __rotate_theRM2, 6, __constVal0, 1, __rotate_theOM2, 0, __constVal1
1	4628	144		brtst 4, __rotate_Done2, __rotate_theTurnPct2
1	4629	147		setout __rotate_ports2, 0, __constVal32
1	4631	152		subret ____RotateMotor2_return
2	4635	0		brtst 4, __rotate_Done3, __rotate_angle3
2	4636	3		sign __rotate_thePower3, __rotate_angle3
2	4637	6		abs __rotate_theAngle3, __rotate_angle3
2	4638	9		mul __rotate_thePower3, __rotate_thePower3, __rotate_power3
2	4640	13		set __rotate_theUF3, 23
2	4641	16		brtst 4, __rotate_NoSync3, __rotate_sync3
2	4642	19		set __rotate_theOM3, 7
2	4643	22		set __rotate_theRM3, 2
2	4644	25		mov __rotate_theTurnPct3, __rotate_turnpct3
2	4645	27		brtst 4, __rotate_Start3, __rotate_theTurnPct3
2	4646	30		add __rotate_theUF3, __rotate_theUF3, __constVal32
2	4647	34		jmp __rotate_Start3
2	4649	36		set __rotate_theOM3, 3
2	4650	39		set __rotate_theRM3, 0
2	4651	42		set __rotate_theTurnPct3, 0
2	4653	45		set __rotate_theRS3, 32
2	4654	48		setout __rotate_ports3, 1, __rotate_theOM3, 8, __rotate_theRM3, 5, __rotate_theAngle3, 6, __rotate_theRS3, 10, __rotate_theRVP3, 11, __rotate_theRVI3, 12, __rotate_theRVD3, 2, __rotate_thePower3, 7, __rotate_turnpct3, 0, __rotate_theUF3
2	4657	71		index __rotate_firstPort3, __rotate_ports3, 65535
2	4659	75		getout __rotate_power3, __rotate_firstPort3, 2
2	4660	79		brtst 4, __rotate_doneRunning3, __rotate_power3
2	4661	82		getout __rotate_rs3, __rotate_firstPort3, 6
2	4662	86		brcmp 4, __rotate_Running3, __rotate_rs3, __constVal32
2	4664	90		brtst 4, __rotate_Reset3, __rotate_stop3
2	4666	93		set __rotate_theOM3, 7
2	4667	96		set __rotate_theUF3, 7
2	4668	99		setout __rotate_ports3, 1, __rotate_theOM3, 8, __constVal1, 6, __rotate_theRS3, 2, __constVal0, 5, __constVal0, 0, __rotate_theUF3
2	4670	114		getout __rotate_RotCount3, __rotate_firstPort3, 14
2	4672	118		mov __rotate_OldRotCount3, __rotate_RotCount3
2	4673	120		wait 50
2	4675	122		getout __rotate_RotCount3, __rotate_firstPort3, 14
2	4676	126		brcmp 5, __rotate_Stabilize3, __rotate_OldRotCount3, __rotate_RotCount3
2	4677	130		set __rotate_theOM3, 4
2	4678	133		setout __rotate_ports3, 8, __rotate_theRM3, 6, __constVal0, 1, __rotate_theOM3, 0, __constVal1
2	4681	144		brtst 4, __rotate_Done3, __rotate_theTurnPct3
2	4682	147		setout __rotate_ports3, 0, __constVal32
2	4684	152		subret ____RotateMotor3_return
3	4885	0		setin __constVal1, __ResetSensorPort, 5
3	4887	4		getin __ResetSensorTmp, __ResetSensorPort, 5
3	4888	8		brtst 5, __SensorStillInvalid, __ResetSensorTmp
3	4889	11		subret ____ResetSensorSubroutine_return
4	5784	0	#pragma macro 25
4	5784	0		acquire __CLSWMutex3
4	5784	1		set __CLSWArgs3.Port, 3
4	5784	4		mov __CLSWArgs3.ReturnLen, __RLSBytesCount3
4	5784	6		mov __CLSWArgs3.Buffer, __RLSReadBuf3
4	5784	8		syscall 21, __CLSWArgs3
4	5784	11		mov __RLSBResult3, __CLSWArgs3.Result
4	5784	13		release __CLSWMutex3
4	5784	14	#line 5784 "NXTDefs.h"
4	5785	14		brtst 4, __RLSBReturn3, __RLSBytesCount3
4	5786	17		arrinit __RLSReadBuf3, __constVal0, __RLSBytesCount3
4	5787	21		brtst 5, __RLSBError3, __RLSBResult3
4	5788	24		set __RLSBIterations3, 4
4	5790	27	#pragma macro 23
4	5790	27		acquire __CLSCSMutex3
4	5790	28		set __CLSCSArgs3.Port, 3
4	5790	31		syscall 23, __CLSCSArgs3
4	5790	34		mov __RLSBytesCount3, __CLSCSArgs3.BytesReady
4	5790	36		mov __RLSBResult3, __CLSCSArgs3.Result
4	5790	38		release __CLSCSMutex3
4	5790	39	#line 5790 "NXTDefs.h"
4	5791	39		sub __RLSBIterations3, __RLSBIterations3, __constVal1
4	5792	43		brtst 2, __RLSBError3, __RLSBIterations3
4	5793	46		brtst 0, __RLSBError3, __RLSBResult3
4	5794	49		brtst 4, __RLSBReadyToRead3, __RLSBResult3
4	5796	52		wait 15
4	5797	54		jmp __RLSBDoCheckStatus3
4	5800	56	#pragma macro 25
4	5800	56		acquire __CLSRMutex3
4	5800	57		set __CLSRArgs3.Port, 3
4	5800	60		mov __CLSRArgs3.BufferLen, __RLSBytesCount3
4	5800	62		syscall 22, __CLSRArgs3
4	5800	65		mov __RLSReadBuf3, __CLSRArgs3.Buffer
4	5800	67		mov __RLSBResult3, __CLSRArgs3.Result
4	5800	69		release __CLSRMutex3
4	5800	70	#line 5800 "NXTDefs.h"
4	5801	70		brtst 5, __RLSBError3, __RLSBResult3
4	5802	73		mov __RLSLastGoodRead3, __RLSReadBuf3
4	5803	75		jmp __RLSBDone3
4	5805	77		mov __RLSReadBuf3, __RLSLastGoodRead3
4	5807	79		arrsize __RLSBytesCount3, __RLSReadBuf3
4	5809	82		subret ____ReadLSBytes3_return
5	4	0	#line 4 "C:\Users\kjeld\Documents\GitHub\SaSeRoS-Team359\Object_detection\../basic_functions/functions.h"
5	5	0		mov __SetSensorType_7qG2_port_7qG2_000_inline_Touch_Init, __Touch_Init_7qG2_Port_7qG2_000
5	4	2	#line 4 "C:\Users\kjeld\Documents\GitHub\SaSeRoS-Team359\Object_detection\../basic_functions/functions.h"
5	4	2	#line 4 "C:\Users\kjeld\Documents\GitHub\SaSeRoS-Team359\Object_detection\../basic_functions/functions.h"
5	5	2		set __SetSensorType_7qG2_type_7qG2_000_inline_Touch_Init, 1
5	4	5	#line 4 "C:\Users\kjeld\Documents\GitHub\SaSeRoS-Team359\Object_detection\../basic_functions/functions.h"
5	3663	5	#line 3663 "NXCDefs.h"
5	3664	5		setin __SetSensorType_7qG2_type_7qG2_000_inline_Touch_Init, __SetSensorType_7qG2_port_7qG2_000_inline_Touch_Init, 0
5	3663	9	#line 3663 "NXCDefs.h"
5	5	9	#line 5 "C:\Users\kjeld\Documents\GitHub\SaSeRoS-Team359\Object_detection\../basic_functions/functions.h"
5	5	9	#line 5 "C:\Users\kjeld\Documents\GitHub\SaSeRoS-Team359\Object_detection\../basic_functions/functions.h"
5	6	9		mov __SetSensorMode_7qG2_port_7qG2_000_inline_Touch_Init, __Touch_Init_7qG2_Port_7qG2_000
5	5	11	#line 5 "C:\Users\kjeld\Documents\GitHub\SaSeRoS-Team359\Object_detection\../basic_functions/functions.h"
5	5	11	#line 5 "C:\Users\kjeld\Documents\GitHub\SaSeRoS-Team359\Object_detection\../basic_functions/functions.h"
5	6	11		set __SetSensorMode_7qG2_mode_7qG2_000_inline_Touch_Init, 32
5	5	14	#line 5 "C:\Users\kjeld\Documents\GitHub\SaSeRoS-Team359\Object_detection\../basic_functions/functions.h"
5	3676	14	#line 3676 "NXCDefs.h"
5	3677	14		setin __SetSensorMode_7qG2_mode_7qG2_000_inline_Touch_Init, __SetSensorMode_7qG2_port_7qG2_000_inline_Touch_Init, 1
5	3676	18	#line 3676 "NXCDefs.h"
5	6	18	#line 6 "C:\Users\kjeld\Documents\GitHub\SaSeRoS-Team359\Object_detection\../basic_functions/functions.h"
5	8	18	#line 8 "C:\Users\kjeld\Documents\GitHub\SaSeRoS-Team359\Object_detection\../basic_functions/functions.h"
5	9	18		subret __Touch_Init_return
6	9	0	#line 9 "C:\Users\kjeld\Documents\GitHub\SaSeRoS-Team359\Object_detection\../basic_functions/functions.h"
6	9	0	#line 9 "C:\Users\kjeld\Documents\GitHub\SaSeRoS-Team359\Object_detection\../basic_functions/functions.h"
6	3768	0	#line 3768 "NXCDefs.h"
6	3769	0		mov __SetSensorLowspeed_7qG2_port_7qG2_000_inline_SetSensorUltrasonic_inline_Range_Sens_Init, __Range_Sens_Init_7qG2_Port_7qG2_000
6	3768	2	#line 3768 "NXCDefs.h"
6	3768	2	#line 3768 "NXCDefs.h"
6	3769	2		mov __SetSensorLowspeed_7qG2_bIsPowered_7qG2_000_inline_SetSensorUltrasonic_inline_Range_Sens_Init, __constVal1
6	3758	4	#line 3758 "NXCDefs.h"
6	3759	4		mov __SetSensorType_7qG2_port_7qG2_000_inline_SetSensorLowspeed_inline_SetSensorUltrasonic_inline_Range_Sens_Init, __SetSensorLowspeed_7qG2_port_7qG2_000_inline_SetSensorUltrasonic_inline_Range_Sens_Init
6	3758	6	#line 3758 "NXCDefs.h"
6	3758	6	#line 3758 "NXCDefs.h"
6	3759	6		mov __DU0SetSensorLowspeed_inline_SetSensorUltrasonic, __SetSensorLowspeed_7qG2_bIsPowered_7qG2_000_inline_SetSensorUltrasonic_inline_Range_Sens_Init
6	3758	8	#line 3758 "NXCDefs.h"
6	3759	8		tst 5, __zfSetSensorLowspeed_inline_SetSensorUltrasonic, __DU0SetSensorLowspeed_inline_SetSensorUltrasonic
6	3758	11	#line 3758 "NXCDefs.h"
6	3759	11		brtst 4, __001__001__NXC_Label_36, __zfSetSensorLowspeed_inline_SetSensorUltrasonic
6	3758	14	#line 3758 "NXCDefs.h"
6	3759	14		set __D0SetSensorLowspeed_inline_SetSensorUltrasonic, 11
6	3758	17	#line 3758 "NXCDefs.h"
6	3759	17		jmp __001__001__NXC_Label_37
6	3758	19	#line 3758 "NXCDefs.h"
6	3759	19		set __D0SetSensorLowspeed_inline_SetSensorUltrasonic, 10
6	3758	22	#line 3758 "NXCDefs.h"
6	3759	22		mov __SetSensorType_7qG2_type_7qG2_000_inline_SetSensorLowspeed_inline_SetSensorUltrasonic_inline_Range_Sens_Init, __D0SetSensorLowspeed_inline_SetSensorUltrasonic
6	3663	24	#line 3663 "NXCDefs.h"
6	3664	24		setin __SetSensorType_7qG2_type_7qG2_000_inline_SetSensorLowspeed_inline_SetSensorUltrasonic_inline_Range_Sens_Init, __SetSensorType_7qG2_port_7qG2_000_inline_SetSensorLowspeed_inline_SetSensorUltrasonic_inline_Range_Sens_Init, 0
6	3663	28	#line 3663 "NXCDefs.h"
6	3759	28	#line 3759 "NXCDefs.h"
6	3759	28	#line 3759 "NXCDefs.h"
6	3760	28		mov __SetSensorMode_7qG2_port_7qG2_000_inline_SetSensorLowspeed_inline_SetSensorUltrasonic_inline_Range_Sens_Init, __SetSensorLowspeed_7qG2_port_7qG2_000_inline_SetSensorUltrasonic_inline_Range_Sens_Init
6	3759	30	#line 3759 "NXCDefs.h"
6	3759	30	#line 3759 "NXCDefs.h"
6	3760	30		set __SetSensorMode_7qG2_mode_7qG2_000_inline_SetSensorLowspeed_inline_SetSensorUltrasonic_inline_Range_Sens_Init, 0
6	3759	33	#line 3759 "NXCDefs.h"
6	3676	33	#line 3676 "NXCDefs.h"
6	3677	33		setin __SetSensorMode_7qG2_mode_7qG2_000_inline_SetSensorLowspeed_inline_SetSensorUltrasonic_inline_Range_Sens_Init, __SetSensorMode_7qG2_port_7qG2_000_inline_SetSensorLowspeed_inline_SetSensorUltrasonic_inline_Range_Sens_Init, 1
6	3676	37	#line 3676 "NXCDefs.h"
6	3760	37	#line 3760 "NXCDefs.h"
6	3760	37	#line 3760 "NXCDefs.h"
6	3761	37		mov __ResetSensor_7qG2_port_7qG2_000_inline_SetSensorLowspeed_inline_SetSensorUltrasonic_inline_Range_Sens_Init, __SetSensorLowspeed_7qG2_port_7qG2_000_inline_SetSensorUltrasonic_inline_Range_Sens_Init
6	3760	39	#line 3760 "NXCDefs.h"
6	3694	39	#line 3694 "NXCDefs.h"
6	3695	39	#pragma macro 4
6	3695	39		acquire __ResetSensorMutex
6	3695	40		mov __ResetSensorPort, __ResetSensor_7qG2_port_7qG2_000_inline_SetSensorLowspeed_inline_SetSensorUltrasonic_inline_Range_Sens_Init
6	3695	42		subcall __ResetSensorSubroutine, ____ResetSensorSubroutine_return
6	3695	45		release __ResetSensorMutex
6	8679	46	#line 8679 "NXCDefs.h"
6	3694	46	#line 3694 "NXCDefs.h"
6	3761	46	#line 3761 "NXCDefs.h"
6	3768	46	#line 3768 "NXCDefs.h"
6	10	46	#line 10 "C:\Users\kjeld\Documents\GitHub\SaSeRoS-Team359\Object_detection\../basic_functions/functions.h"
6	10	46	#line 10 "C:\Users\kjeld\Documents\GitHub\SaSeRoS-Team359\Object_detection\../basic_functions/functions.h"
6	11	46		mov __SetSensorMode_7qG2_port_7qG2_000_inline_Range_Sens_Init, __Range_Sens_Init_7qG2_Port_7qG2_000
6	10	48	#line 10 "C:\Users\kjeld\Documents\GitHub\SaSeRoS-Team359\Object_detection\../basic_functions/functions.h"
6	10	48	#line 10 "C:\Users\kjeld\Documents\GitHub\SaSeRoS-Team359\Object_detection\../basic_functions/functions.h"
6	11	48		set __SetSensorMode_7qG2_mode_7qG2_000_inline_Range_Sens_Init, 0
6	10	51	#line 10 "C:\Users\kjeld\Documents\GitHub\SaSeRoS-Team359\Object_detection\../basic_functions/functions.h"
6	3676	51	#line 3676 "NXCDefs.h"
6	3677	51		setin __SetSensorMode_7qG2_mode_7qG2_000_inline_Range_Sens_Init, __SetSensorMode_7qG2_port_7qG2_000_inline_Range_Sens_Init, 1
6	3676	55	#line 3676 "NXCDefs.h"
6	11	55	#line 11 "C:\Users\kjeld\Documents\GitHub\SaSeRoS-Team359\Object_detection\../basic_functions/functions.h"
6	13	55	#line 13 "C:\Users\kjeld\Documents\GitHub\SaSeRoS-Team359\Object_detection\../basic_functions/functions.h"
6	14	55		subret __Range_Sens_Init_return
7	14	0	#line 14 "C:\Users\kjeld\Documents\GitHub\SaSeRoS-Team359\Object_detection\../basic_functions/functions.h"
7	15	0		mov __SetSensorLight_7qG2_port_7qG2_000_inline_Light_Sens_Init, __Light_Sens_Init_7qG2_Port_7qG2_000
7	14	2	#line 14 "C:\Users\kjeld\Documents\GitHub\SaSeRoS-Team359\Object_detection\../basic_functions/functions.h"
7	15	2	#line 15 "C:\Users\kjeld\Documents\GitHub\SaSeRoS-Team359\Object_detection\../basic_functions/functions.h"
7	16	2		mov __SetSensorLight_7qG2_bActive_7qG2_000_inline_Light_Sens_Init, __constVal1
7	3729	4	#line 3729 "NXCDefs.h"
7	3730	4		mov __SetSensorType_7qG2_port_7qG2_000_inline_SetSensorLight_inline_Light_Sens_Init, __SetSensorLight_7qG2_port_7qG2_000_inline_Light_Sens_Init
7	3729	6	#line 3729 "NXCDefs.h"
7	3729	6	#line 3729 "NXCDefs.h"
7	3730	6		mov __DU0SetSensorLight_inline_Light_Sens_Init, __SetSensorLight_7qG2_bActive_7qG2_000_inline_Light_Sens_Init
7	3729	8	#line 3729 "NXCDefs.h"
7	3730	8		tst 5, __zfSetSensorLight_inline_Light_Sens_Init, __DU0SetSensorLight_inline_Light_Sens_Init
7	3729	11	#line 3729 "NXCDefs.h"
7	3730	11		brtst 4, __001__NXC_Label_4, __zfSetSensorLight_inline_Light_Sens_Init
7	3729	14	#line 3729 "NXCDefs.h"
7	3730	14		set __D0SetSensorLight_inline_Light_Sens_Init, 5
7	3729	17	#line 3729 "NXCDefs.h"
7	3730	17		jmp __001__NXC_Label_5
7	3729	19	#line 3729 "NXCDefs.h"
7	3730	19		set __D0SetSensorLight_inline_Light_Sens_Init, 6
7	3729	22	#line 3729 "NXCDefs.h"
7	3730	22		mov __SetSensorType_7qG2_type_7qG2_000_inline_SetSensorLight_inline_Light_Sens_Init, __D0SetSensorLight_inline_Light_Sens_Init
7	3663	24	#line 3663 "NXCDefs.h"
7	3664	24		setin __SetSensorType_7qG2_type_7qG2_000_inline_SetSensorLight_inline_Light_Sens_Init, __SetSensorType_7qG2_port_7qG2_000_inline_SetSensorLight_inline_Light_Sens_Init, 0
7	3663	28	#line 3663 "NXCDefs.h"
7	3730	28	#line 3730 "NXCDefs.h"
7	3730	28	#line 3730 "NXCDefs.h"
7	3731	28		mov __SetSensorMode_7qG2_port_7qG2_000_inline_SetSensorLight_inline_Light_Sens_Init, __SetSensorLight_7qG2_port_7qG2_000_inline_Light_Sens_Init
7	3730	30	#line 3730 "NXCDefs.h"
7	3730	30	#line 3730 "NXCDefs.h"
7	3731	30		set __SetSensorMode_7qG2_mode_7qG2_000_inline_SetSensorLight_inline_Light_Sens_Init, 128
7	3730	33	#line 3730 "NXCDefs.h"
7	3676	33	#line 3676 "NXCDefs.h"
7	3677	33		setin __SetSensorMode_7qG2_mode_7qG2_000_inline_SetSensorLight_inline_Light_Sens_Init, __SetSensorMode_7qG2_port_7qG2_000_inline_SetSensorLight_inline_Light_Sens_Init, 1
7	3676	37	#line 3676 "NXCDefs.h"
7	3731	37	#line 3731 "NXCDefs.h"
7	3731	37	#line 3731 "NXCDefs.h"
7	3732	37		mov __ResetSensor_7qG2_port_7qG2_000_inline_SetSensorLight_inline_Light_Sens_Init, __SetSensorLight_7qG2_port_7qG2_000_inline_Light_Sens_Init
7	3731	39	#line 3731 "NXCDefs.h"
7	3694	39	#line 3694 "NXCDefs.h"
7	3695	39	#pragma macro 4
7	3695	39		acquire __ResetSensorMutex
7	3695	40		mov __ResetSensorPort, __ResetSensor_7qG2_port_7qG2_000_inline_SetSensorLight_inline_Light_Sens_Init
7	3695	42		subcall __ResetSensorSubroutine, ____ResetSensorSubroutine_return
7	3695	45		release __ResetSensorMutex
7	8808	46	#line 8808 "NXCDefs.h"
7	3694	46	#line 3694 "NXCDefs.h"
7	3732	46	#line 3732 "NXCDefs.h"
7	15	46	#line 15 "C:\Users\kjeld\Documents\GitHub\SaSeRoS-Team359\Object_detection\../basic_functions/functions.h"
7	15	46	#line 15 "C:\Users\kjeld\Documents\GitHub\SaSeRoS-Team359\Object_detection\../basic_functions/functions.h"
7	16	46		mov __SetSensorMode_7qG2_port_7qG2_000_inline_Light_Sens_Init, __Light_Sens_Init_7qG2_Port_7qG2_000
7	15	48	#line 15 "C:\Users\kjeld\Documents\GitHub\SaSeRoS-Team359\Object_detection\../basic_functions/functions.h"
7	15	48	#line 15 "C:\Users\kjeld\Documents\GitHub\SaSeRoS-Team359\Object_detection\../basic_functions/functions.h"
7	16	48		set __SetSensorMode_7qG2_mode_7qG2_000_inline_Light_Sens_Init, 0
7	15	51	#line 15 "C:\Users\kjeld\Documents\GitHub\SaSeRoS-Team359\Object_detection\../basic_functions/functions.h"
7	3676	51	#line 3676 "NXCDefs.h"
7	3677	51		setin __SetSensorMode_7qG2_mode_7qG2_000_inline_Light_Sens_Init, __SetSensorMode_7qG2_port_7qG2_000_inline_Light_Sens_Init, 1
7	3676	55	#line 3676 "NXCDefs.h"
7	16	55	#line 16 "C:\Users\kjeld\Documents\GitHub\SaSeRoS-Team359\Object_detection\../basic_functions/functions.h"
7	19	55	#line 19 "C:\Users\kjeld\Documents\GitHub\SaSeRoS-Team359\Object_detection\../basic_functions/functions.h"
7	20	55		subret __Light_Sens_Init_return
8	20	0	#line 20 "C:\Users\kjeld\Documents\GitHub\SaSeRoS-Team359\Object_detection\../basic_functions/functions.h"
8	21	0		mov __signed_stack_001TurnMotor, __TurnMotor_7qG2_deg_7qG2_000
8	20	2	#line 20 "C:\Users\kjeld\Documents\GitHub\SaSeRoS-Team359\Object_detection\../basic_functions/functions.h"
8	20	2	#line 20 "C:\Users\kjeld\Documents\GitHub\SaSeRoS-Team359\Object_detection\../basic_functions/functions.h"
8	21	2		set __D0TurnMotor, 0
8	20	5	#line 20 "C:\Users\kjeld\Documents\GitHub\SaSeRoS-Team359\Object_detection\../basic_functions/functions.h"
8	21	5		cmp 0, __zfTurnMotor, __signed_stack_001TurnMotor, __D0TurnMotor
8	20	9	#line 20 "C:\Users\kjeld\Documents\GitHub\SaSeRoS-Team359\Object_detection\../basic_functions/functions.h"
8	21	9		mov __D0TurnMotor, __zfTurnMotor
8	21	12	#line 21 "C:\Users\kjeld\Documents\GitHub\SaSeRoS-Team359\Object_detection\../basic_functions/functions.h"
8	22	12		brtst 4, __NXC_Label_626, __zfTurnMotor
8	21	15	#line 21 "C:\Users\kjeld\Documents\GitHub\SaSeRoS-Team359\Object_detection\../basic_functions/functions.h"
8	21	15	#line 21 "C:\Users\kjeld\Documents\GitHub\SaSeRoS-Team359\Object_detection\../basic_functions/functions.h"
8	21	15	#line 21 "C:\Users\kjeld\Documents\GitHub\SaSeRoS-Team359\Object_detection\../basic_functions/functions.h"
8	21	15	#line 21 "C:\Users\kjeld\Documents\GitHub\SaSeRoS-Team359\Object_detection\../basic_functions/functions.h"
8	22	15		sub __signed_stack_001TurnMotor, __constVal0, __TurnMotor_7qG2_pwr_7qG2_000
8	21	19	#line 21 "C:\Users\kjeld\Documents\GitHub\SaSeRoS-Team359\Object_detection\../basic_functions/functions.h"
8	21	19	#line 21 "C:\Users\kjeld\Documents\GitHub\SaSeRoS-Team359\Object_detection\../basic_functions/functions.h"
8	22	19		mov __signed_stack_002TurnMotor, __TurnMotor_7qG2_deg_7qG2_000
8	21	21	#line 21 "C:\Users\kjeld\Documents\GitHub\SaSeRoS-Team359\Object_detection\../basic_functions/functions.h"
8	21	21	#line 21 "C:\Users\kjeld\Documents\GitHub\SaSeRoS-Team359\Object_detection\../basic_functions/functions.h"
8	22	21		set __signed_stack_003TurnMotor, -100
8	21	24	#line 21 "C:\Users\kjeld\Documents\GitHub\SaSeRoS-Team359\Object_detection\../basic_functions/functions.h"
8	21	24	#line 21 "C:\Users\kjeld\Documents\GitHub\SaSeRoS-Team359\Object_detection\../basic_functions/functions.h"
8	22	24		set __signed_stack_004TurnMotor, 1
8	21	27	#line 21 "C:\Users\kjeld\Documents\GitHub\SaSeRoS-Team359\Object_detection\../basic_functions/functions.h"
8	21	27	#line 21 "C:\Users\kjeld\Documents\GitHub\SaSeRoS-Team359\Object_detection\../basic_functions/functions.h"
8	22	27		set __D0TurnMotor, 1
8	22	30	#line 22 "C:\Users\kjeld\Documents\GitHub\SaSeRoS-Team359\Object_detection\../basic_functions/functions.h"
8	23	30	#pragma macro 35
8	23	30		mov __rotate_ports3, __OUT_AB
8	23	32		mov __rotate_power3, __signed_stack_001TurnMotor
8	23	35		mov __rotate_angle3, __signed_stack_002TurnMotor
8	23	37		mov __rotate_turnpct3, __signed_stack_003TurnMotor
8	23	40		mov __rotate_sync3, __signed_stack_004TurnMotor
8	23	43		mov __rotate_stop3, __D0TurnMotor
8	23	46		mov __rotate_theRVP3, __constVal32
8	23	48		mov __rotate_theRVI3, __constVal0
8	23	50		mov __rotate_theRVD3, __constVal96
8	23	52		subcall __RotateMotor3, ____RotateMotor3_return
8	8898	55	#line 8898 "C:\Users\kjeld\Documents\GitHub\SaSeRoS-Team359\Object_detection\../basic_functions/functions.h"
8	22	55	#line 22 "C:\Users\kjeld\Documents\GitHub\SaSeRoS-Team359\Object_detection\../basic_functions/functions.h"
8	24	55	#line 24 "C:\Users\kjeld\Documents\GitHub\SaSeRoS-Team359\Object_detection\../basic_functions/functions.h"
8	25	55		jmp __NXC_Label_637
8	24	57	#line 24 "C:\Users\kjeld\Documents\GitHub\SaSeRoS-Team359\Object_detection\../basic_functions/functions.h"
8	24	57	#line 24 "C:\Users\kjeld\Documents\GitHub\SaSeRoS-Team359\Object_detection\../basic_functions/functions.h"
8	24	57	#line 24 "C:\Users\kjeld\Documents\GitHub\SaSeRoS-Team359\Object_detection\../basic_functions/functions.h"
8	24	57	#line 24 "C:\Users\kjeld\Documents\GitHub\SaSeRoS-Team359\Object_detection\../basic_functions/functions.h"
8	25	57		sub __signed_stack_001TurnMotor, __constVal0, __TurnMotor_7qG2_pwr_7qG2_000
8	24	61	#line 24 "C:\Users\kjeld\Documents\GitHub\SaSeRoS-Team359\Object_detection\../basic_functions/functions.h"
8	24	61	#line 24 "C:\Users\kjeld\Documents\GitHub\SaSeRoS-Team359\Object_detection\../basic_functions/functions.h"
8	25	61		mov __signed_stack_002TurnMotor, __TurnMotor_7qG2_deg_7qG2_000
8	24	63	#line 24 "C:\Users\kjeld\Documents\GitHub\SaSeRoS-Team359\Object_detection\../basic_functions/functions.h"
8	24	63	#line 24 "C:\Users\kjeld\Documents\GitHub\SaSeRoS-Team359\Object_detection\../basic_functions/functions.h"
8	25	63		set __signed_stack_003TurnMotor, 100
8	24	66	#line 24 "C:\Users\kjeld\Documents\GitHub\SaSeRoS-Team359\Object_detection\../basic_functions/functions.h"
8	24	66	#line 24 "C:\Users\kjeld\Documents\GitHub\SaSeRoS-Team359\Object_detection\../basic_functions/functions.h"
8	25	66		set __signed_stack_004TurnMotor, 1
8	24	69	#line 24 "C:\Users\kjeld\Documents\GitHub\SaSeRoS-Team359\Object_detection\../basic_functions/functions.h"
8	24	69	#line 24 "C:\Users\kjeld\Documents\GitHub\SaSeRoS-Team359\Object_detection\../basic_functions/functions.h"
8	25	69		set __D0TurnMotor, 1
8	25	72	#line 25 "C:\Users\kjeld\Documents\GitHub\SaSeRoS-Team359\Object_detection\../basic_functions/functions.h"
8	26	72	#pragma macro 35
8	26	72		mov __rotate_ports3, __OUT_AB
8	26	74		mov __rotate_power3, __signed_stack_001TurnMotor
8	26	77		mov __rotate_angle3, __signed_stack_002TurnMotor
8	26	79		mov __rotate_turnpct3, __signed_stack_003TurnMotor
8	26	82		mov __rotate_sync3, __signed_stack_004TurnMotor
8	26	85		mov __rotate_stop3, __D0TurnMotor
8	26	88		mov __rotate_theRVP3, __constVal32
8	26	90		mov __rotate_theRVI3, __constVal0
8	26	92		mov __rotate_theRVD3, __constVal96
8	26	94		subcall __RotateMotor3, ____RotateMotor3_return
8	8938	97	#line 8938 "C:\Users\kjeld\Documents\GitHub\SaSeRoS-Team359\Object_detection\../basic_functions/functions.h"
8	25	97	#line 25 "C:\Users\kjeld\Documents\GitHub\SaSeRoS-Team359\Object_detection\../basic_functions/functions.h"
8	29	97	#line 29 "C:\Users\kjeld\Documents\GitHub\SaSeRoS-Team359\Object_detection\../basic_functions/functions.h"
8	29	97	#line 29 "C:\Users\kjeld\Documents\GitHub\SaSeRoS-Team359\Object_detection\../basic_functions/functions.h"
8	30	97		subret __TurnMotor_return
9	31	0	#line 31 "C:\Users\kjeld\Documents\GitHub\SaSeRoS-Team359\Object_detection\../basic_functions/functions.h"
9	31	0	#line 31 "C:\Users\kjeld\Documents\GitHub\SaSeRoS-Team359\Object_detection\../basic_functions/functions.h"
9	31	0	#line 31 "C:\Users\kjeld\Documents\GitHub\SaSeRoS-Team359\Object_detection\../basic_functions/functions.h"
9	31	0	#line 31 "C:\Users\kjeld\Documents\GitHub\SaSeRoS-Team359\Object_detection\../basic_functions/functions.h"
9	31	0	#line 31 "C:\Users\kjeld\Documents\GitHub\SaSeRoS-Team359\Object_detection\../basic_functions/functions.h"
9	31	0	#line 31 "C:\Users\kjeld\Documents\GitHub\SaSeRoS-Team359\Object_detection\../basic_functions/functions.h"
9	32	0		mul __TurnMotor_7qG2_deg_7qG2_000, __TurnRobot_7qG2_deg_7qG2_000, __constValf3P5
9	31	4	#line 31 "C:\Users\kjeld\Documents\GitHub\SaSeRoS-Team359\Object_detection\../basic_functions/functions.h"
9	31	4	#line 31 "C:\Users\kjeld\Documents\GitHub\SaSeRoS-Team359\Object_detection\../basic_functions/functions.h"
9	32	4		mov __TurnMotor_7qG2_pwr_7qG2_000, __TurnRobot_7qG2_pwr_7qG2_000
9	31	6	#line 31 "C:\Users\kjeld\Documents\GitHub\SaSeRoS-Team359\Object_detection\../basic_functions/functions.h"
9	32	6	#line 32 "C:\Users\kjeld\Documents\GitHub\SaSeRoS-Team359\Object_detection\../basic_functions/functions.h"
9	33	6		subcall TurnMotor, __TurnMotor_return
9	32	8	#line 32 "C:\Users\kjeld\Documents\GitHub\SaSeRoS-Team359\Object_detection\../basic_functions/functions.h"
9	34	8	#line 34 "C:\Users\kjeld\Documents\GitHub\SaSeRoS-Team359\Object_detection\../basic_functions/functions.h"
9	35	8		subret __TurnRobot_return
10	36	0	#line 36 "C:\Users\kjeld\Documents\GitHub\SaSeRoS-Team359\Object_detection\../basic_functions/functions.h"
10	37	0	#pragma macro 7
10	37	0		setout __constVal0, 2, __constVal0, 1, __constVal3, 8, __constVal0, 6, __constVal32, 7, __constVal0, 5, __constVal0, 10, __constVal96, 11, __constVal32, 12, __constVal32, 0, __constVal63
10	8992	23	#line 8992 "C:\Users\kjeld\Documents\GitHub\SaSeRoS-Team359\Object_detection\../basic_functions/functions.h"
10	36	23	#line 36 "C:\Users\kjeld\Documents\GitHub\SaSeRoS-Team359\Object_detection\../basic_functions/functions.h"
10	37	23	#line 37 "C:\Users\kjeld\Documents\GitHub\SaSeRoS-Team359\Object_detection\../basic_functions/functions.h"
10	38	23	#pragma macro 7
10	38	23		setout __constVal1, 2, __constVal0, 1, __constVal3, 8, __constVal0, 6, __constVal32, 7, __constVal0, 5, __constVal0, 10, __constVal96, 11, __constVal32, 12, __constVal32, 0, __constVal63
10	8995	46	#line 8995 "C:\Users\kjeld\Documents\GitHub\SaSeRoS-Team359\Object_detection\../basic_functions/functions.h"
10	37	46	#line 37 "C:\Users\kjeld\Documents\GitHub\SaSeRoS-Team359\Object_detection\../basic_functions/functions.h"
10	39	46	#line 39 "C:\Users\kjeld\Documents\GitHub\SaSeRoS-Team359\Object_detection\../basic_functions/functions.h"
10	40	46		subret __Stop_Driving_return
11	40	0	#line 40 "C:\Users\kjeld\Documents\GitHub\SaSeRoS-Team359\Object_detection\../basic_functions/functions.h"
11	40	0	#line 40 "C:\Users\kjeld\Documents\GitHub\SaSeRoS-Team359\Object_detection\../basic_functions/functions.h"
11	40	0	#line 40 "C:\Users\kjeld\Documents\GitHub\SaSeRoS-Team359\Object_detection\../basic_functions/functions.h"
11	40	0	#line 40 "C:\Users\kjeld\Documents\GitHub\SaSeRoS-Team359\Object_detection\../basic_functions/functions.h"
11	41	0		sub __D0Drive_Forward, __constVal0, __Drive_Forward_7qG2_pwr_7qG2_000
11	41	4	#line 41 "C:\Users\kjeld\Documents\GitHub\SaSeRoS-Team359\Object_detection\../basic_functions/functions.h"
11	42	4	#pragma macro 7
11	42	4		setout __constVal0, 2, __D0Drive_Forward, 1, __constVal3, 8, __constVal0, 6, __constVal32, 7, __constVal0, 5, __constVal0, 10, __constVal96, 11, __constVal32, 12, __constVal32, 0, __constVal63
11	9017	27	#line 9017 "C:\Users\kjeld\Documents\GitHub\SaSeRoS-Team359\Object_detection\../basic_functions/functions.h"
11	41	27	#line 41 "C:\Users\kjeld\Documents\GitHub\SaSeRoS-Team359\Object_detection\../basic_functions/functions.h"
11	41	27	#line 41 "C:\Users\kjeld\Documents\GitHub\SaSeRoS-Team359\Object_detection\../basic_functions/functions.h"
11	41	27	#line 41 "C:\Users\kjeld\Documents\GitHub\SaSeRoS-Team359\Object_detection\../basic_functions/functions.h"
11	41	27	#line 41 "C:\Users\kjeld\Documents\GitHub\SaSeRoS-Team359\Object_detection\../basic_functions/functions.h"
11	41	27	#line 41 "C:\Users\kjeld\Documents\GitHub\SaSeRoS-Team359\Object_detection\../basic_functions/functions.h"
11	42	27		sub __D0Drive_Forward, __constVal0, __Drive_Forward_7qG2_pwr_7qG2_000
11	42	31	#line 42 "C:\Users\kjeld\Documents\GitHub\SaSeRoS-Team359\Object_detection\../basic_functions/functions.h"
11	43	31	#pragma macro 7
11	43	31		setout __constVal1, 2, __D0Drive_Forward, 1, __constVal3, 8, __constVal0, 6, __constVal32, 7, __constVal0, 5, __constVal0, 10, __constVal96, 11, __constVal32, 12, __constVal32, 0, __constVal63
11	9030	54	#line 9030 "C:\Users\kjeld\Documents\GitHub\SaSeRoS-Team359\Object_detection\../basic_functions/functions.h"
11	42	54	#line 42 "C:\Users\kjeld\Documents\GitHub\SaSeRoS-Team359\Object_detection\../basic_functions/functions.h"
11	44	54	#line 44 "C:\Users\kjeld\Documents\GitHub\SaSeRoS-Team359\Object_detection\../basic_functions/functions.h"
11	45	54		subret __Drive_Forward_return
12	45	0	#line 45 "C:\Users\kjeld\Documents\GitHub\SaSeRoS-Team359\Object_detection\../basic_functions/functions.h"
12	45	0	#line 45 "C:\Users\kjeld\Documents\GitHub\SaSeRoS-Team359\Object_detection\../basic_functions/functions.h"
12	45	0	#line 45 "C:\Users\kjeld\Documents\GitHub\SaSeRoS-Team359\Object_detection\../basic_functions/functions.h"
12	45	0	#line 45 "C:\Users\kjeld\Documents\GitHub\SaSeRoS-Team359\Object_detection\../basic_functions/functions.h"
12	46	0		sub __D0Drive_Backward, __constVal0, __Drive_Backward_7qG2_pwr_7qG2_000
12	46	4	#line 46 "C:\Users\kjeld\Documents\GitHub\SaSeRoS-Team359\Object_detection\../basic_functions/functions.h"
12	47	4	#pragma macro 10
12	47	4		neg __OnRev_Tmp, __D0Drive_Backward
12	47	7		setout __constVal0, 2, __OnRev_Tmp, 1, __constVal3, 8, __constVal0, 6, __constVal32, 7, __constVal0, 5, __constVal0, 10, __constVal96, 11, __constVal32, 12, __constVal32, 0, __constVal63
12	9052	30	#line 9052 "C:\Users\kjeld\Documents\GitHub\SaSeRoS-Team359\Object_detection\../basic_functions/functions.h"
12	46	30	#line 46 "C:\Users\kjeld\Documents\GitHub\SaSeRoS-Team359\Object_detection\../basic_functions/functions.h"
12	46	30	#line 46 "C:\Users\kjeld\Documents\GitHub\SaSeRoS-Team359\Object_detection\../basic_functions/functions.h"
12	46	30	#line 46 "C:\Users\kjeld\Documents\GitHub\SaSeRoS-Team359\Object_detection\../basic_functions/functions.h"
12	46	30	#line 46 "C:\Users\kjeld\Documents\GitHub\SaSeRoS-Team359\Object_detection\../basic_functions/functions.h"
12	46	30	#line 46 "C:\Users\kjeld\Documents\GitHub\SaSeRoS-Team359\Object_detection\../basic_functions/functions.h"
12	47	30		sub __D0Drive_Backward, __constVal0, __Drive_Backward_7qG2_pwr_7qG2_000
12	47	34	#line 47 "C:\Users\kjeld\Documents\GitHub\SaSeRoS-Team359\Object_detection\../basic_functions/functions.h"
12	48	34	#pragma macro 10
12	48	34		neg __OnRev_Tmp, __D0Drive_Backward
12	48	37		setout __constVal1, 2, __OnRev_Tmp, 1, __constVal3, 8, __constVal0, 6, __constVal32, 7, __constVal0, 5, __constVal0, 10, __constVal96, 11, __constVal32, 12, __constVal32, 0, __constVal63
12	9065	60	#line 9065 "C:\Users\kjeld\Documents\GitHub\SaSeRoS-Team359\Object_detection\../basic_functions/functions.h"
12	47	60	#line 47 "C:\Users\kjeld\Documents\GitHub\SaSeRoS-Team359\Object_detection\../basic_functions/functions.h"
12	49	60	#line 49 "C:\Users\kjeld\Documents\GitHub\SaSeRoS-Team359\Object_detection\../basic_functions/functions.h"
12	50	60		subret __Drive_Backward_return
13	50	0	#line 50 "C:\Users\kjeld\Documents\GitHub\SaSeRoS-Team359\Object_detection\../basic_functions/functions.h"
13	51	0		set __signed_stack_001ShortBeep, 500
13	50	3	#line 50 "C:\Users\kjeld\Documents\GitHub\SaSeRoS-Team359\Object_detection\../basic_functions/functions.h"
13	50	3	#line 50 "C:\Users\kjeld\Documents\GitHub\SaSeRoS-Team359\Object_detection\../basic_functions/functions.h"
13	51	3		set __signed_stack_002ShortBeep, 100
13	50	6	#line 50 "C:\Users\kjeld\Documents\GitHub\SaSeRoS-Team359\Object_detection\../basic_functions/functions.h"
13	50	6	#line 50 "C:\Users\kjeld\Documents\GitHub\SaSeRoS-Team359\Object_detection\../basic_functions/functions.h"
13	51	6		set __signed_stack_003ShortBeep, 4
13	50	9	#line 50 "C:\Users\kjeld\Documents\GitHub\SaSeRoS-Team359\Object_detection\../basic_functions/functions.h"
13	50	9	#line 50 "C:\Users\kjeld\Documents\GitHub\SaSeRoS-Team359\Object_detection\../basic_functions/functions.h"
13	51	9		set __D0ShortBeep, 0
13	51	12	#line 51 "C:\Users\kjeld\Documents\GitHub\SaSeRoS-Team359\Object_detection\../basic_functions/functions.h"
13	52	12		acquire __SPTArgsMutex
13	51	13	#line 51 "C:\Users\kjeld\Documents\GitHub\SaSeRoS-Team359\Object_detection\../basic_functions/functions.h"
13	52	13		mov __SPTArgs.Frequency, __signed_stack_001ShortBeep
13	51	16	#line 51 "C:\Users\kjeld\Documents\GitHub\SaSeRoS-Team359\Object_detection\../basic_functions/functions.h"
13	52	16		mov __SPTArgs.Duration, __signed_stack_002ShortBeep
13	51	19	#line 51 "C:\Users\kjeld\Documents\GitHub\SaSeRoS-Team359\Object_detection\../basic_functions/functions.h"
13	52	19		mov __SPTArgs.Volume, __signed_stack_003ShortBeep
13	51	22	#line 51 "C:\Users\kjeld\Documents\GitHub\SaSeRoS-Team359\Object_detection\../basic_functions/functions.h"
13	52	22		mov __SPTArgs.Loop, __D0ShortBeep
13	51	25	#line 51 "C:\Users\kjeld\Documents\GitHub\SaSeRoS-Team359\Object_detection\../basic_functions/functions.h"
13	52	25		syscall 10, __SPTArgs
13	51	28	#line 51 "C:\Users\kjeld\Documents\GitHub\SaSeRoS-Team359\Object_detection\../basic_functions/functions.h"
13	52	28		mov __D0ShortBeep, __SPTArgs.Result
13	51	31	#line 51 "C:\Users\kjeld\Documents\GitHub\SaSeRoS-Team359\Object_detection\../basic_functions/functions.h"
13	52	31		release __SPTArgsMutex
13	51	32	#line 51 "C:\Users\kjeld\Documents\GitHub\SaSeRoS-Team359\Object_detection\../basic_functions/functions.h"
13	53	32	#line 53 "C:\Users\kjeld\Documents\GitHub\SaSeRoS-Team359\Object_detection\../basic_functions/functions.h"
13	54	32		subret __ShortBeep_return
14	54	0	#line 54 "C:\Users\kjeld\Documents\GitHub\SaSeRoS-Team359\Object_detection\../basic_functions/functions.h"
14	55	0		set __signed_stack_001LongBeep, 500
14	54	3	#line 54 "C:\Users\kjeld\Documents\GitHub\SaSeRoS-Team359\Object_detection\../basic_functions/functions.h"
14	54	3	#line 54 "C:\Users\kjeld\Documents\GitHub\SaSeRoS-Team359\Object_detection\../basic_functions/functions.h"
14	55	3		set __signed_stack_002LongBeep, 1000
14	54	6	#line 54 "C:\Users\kjeld\Documents\GitHub\SaSeRoS-Team359\Object_detection\../basic_functions/functions.h"
14	54	6	#line 54 "C:\Users\kjeld\Documents\GitHub\SaSeRoS-Team359\Object_detection\../basic_functions/functions.h"
14	55	6		set __signed_stack_003LongBeep, 4
14	54	9	#line 54 "C:\Users\kjeld\Documents\GitHub\SaSeRoS-Team359\Object_detection\../basic_functions/functions.h"
14	54	9	#line 54 "C:\Users\kjeld\Documents\GitHub\SaSeRoS-Team359\Object_detection\../basic_functions/functions.h"
14	55	9		set __D0LongBeep, 0
14	55	12	#line 55 "C:\Users\kjeld\Documents\GitHub\SaSeRoS-Team359\Object_detection\../basic_functions/functions.h"
14	56	12		acquire __SPTArgsMutex
14	55	13	#line 55 "C:\Users\kjeld\Documents\GitHub\SaSeRoS-Team359\Object_detection\../basic_functions/functions.h"
14	56	13		mov __SPTArgs.Frequency, __signed_stack_001LongBeep
14	55	16	#line 55 "C:\Users\kjeld\Documents\GitHub\SaSeRoS-Team359\Object_detection\../basic_functions/functions.h"
14	56	16		mov __SPTArgs.Duration, __signed_stack_002LongBeep
14	55	19	#line 55 "C:\Users\kjeld\Documents\GitHub\SaSeRoS-Team359\Object_detection\../basic_functions/functions.h"
14	56	19		mov __SPTArgs.Volume, __signed_stack_003LongBeep
14	55	22	#line 55 "C:\Users\kjeld\Documents\GitHub\SaSeRoS-Team359\Object_detection\../basic_functions/functions.h"
14	56	22		mov __SPTArgs.Loop, __D0LongBeep
14	55	25	#line 55 "C:\Users\kjeld\Documents\GitHub\SaSeRoS-Team359\Object_detection\../basic_functions/functions.h"
14	56	25		syscall 10, __SPTArgs
14	55	28	#line 55 "C:\Users\kjeld\Documents\GitHub\SaSeRoS-Team359\Object_detection\../basic_functions/functions.h"
14	56	28		mov __D0LongBeep, __SPTArgs.Result
14	55	31	#line 55 "C:\Users\kjeld\Documents\GitHub\SaSeRoS-Team359\Object_detection\../basic_functions/functions.h"
14	56	31		release __SPTArgsMutex
14	55	32	#line 55 "C:\Users\kjeld\Documents\GitHub\SaSeRoS-Team359\Object_detection\../basic_functions/functions.h"
14	56	32	#line 56 "C:\Users\kjeld\Documents\GitHub\SaSeRoS-Team359\Object_detection\../basic_functions/functions.h"
14	57	32		subret __LongBeep_return
15	6069	0	#line 6069 "NXCDefs.h"
15	6070	0	#pragma macro 6
15	6070	0		mov __PointOutArgs.Location.X, __constVal200
15	6070	3		mov __PointOutArgs.Location.Y, __constVal200
15	6070	6		mov __PointOutArgs.Options, __constVal1
15	6070	8		syscall 14, __PointOutArgs
15	9165	11	#line 9165 "NXCDefs.h"
15	6069	11	#line 6069 "NXCDefs.h"
15	5	11	#line 5 "C:\Users\kjeld\Documents\GitHub\SaSeRoS-Team359\Object_detection\../edge_detection.h"
15	5	11	#line 5 "C:\Users\kjeld\Documents\GitHub\SaSeRoS-Team359\Object_detection\../edge_detection.h"
15	6	11		set __signed_stack_001DetectEdge, 0
15	5	14	#line 5 "C:\Users\kjeld\Documents\GitHub\SaSeRoS-Team359\Object_detection\../edge_detection.h"
15	5	14	#line 5 "C:\Users\kjeld\Documents\GitHub\SaSeRoS-Team359\Object_detection\../edge_detection.h"
15	6	14		set __signed_stack_002DetectEdge, 0
15	5	17	#line 5 "C:\Users\kjeld\Documents\GitHub\SaSeRoS-Team359\Object_detection\../edge_detection.h"
15	5	17	#line 5 "C:\Users\kjeld\Documents\GitHub\SaSeRoS-Team359\Object_detection\../edge_detection.h"
15	6	17		getin __D0DetectEdge, __constVal1, 4
15	6	21	#line 6 "C:\Users\kjeld\Documents\GitHub\SaSeRoS-Team359\Object_detection\../edge_detection.h"
15	7	21		acquire __TextOutMutex
15	6	22	#line 6 "C:\Users\kjeld\Documents\GitHub\SaSeRoS-Team359\Object_detection\../edge_detection.h"
15	7	22		mov __TextOutArgs.Location.X, __signed_stack_001DetectEdge
15	6	25	#line 6 "C:\Users\kjeld\Documents\GitHub\SaSeRoS-Team359\Object_detection\../edge_detection.h"
15	7	25		mov __TextOutArgs.Location.Y, __signed_stack_002DetectEdge
15	6	28	#line 6 "C:\Users\kjeld\Documents\GitHub\SaSeRoS-Team359\Object_detection\../edge_detection.h"
15	7	28		set __TextOutArgs.Options, 0
15	6	31	#line 6 "C:\Users\kjeld\Documents\GitHub\SaSeRoS-Team359\Object_detection\../edge_detection.h"
15	7	31		numtostr __TextOutArgs.Text, __D0DetectEdge
15	6	34	#line 6 "C:\Users\kjeld\Documents\GitHub\SaSeRoS-Team359\Object_detection\../edge_detection.h"
15	7	34		syscall 13, __TextOutArgs
15	6	37	#line 6 "C:\Users\kjeld\Documents\GitHub\SaSeRoS-Team359\Object_detection\../edge_detection.h"
15	7	37		mov __D0DetectEdge, __TextOutArgs.Result
15	6	40	#line 6 "C:\Users\kjeld\Documents\GitHub\SaSeRoS-Team359\Object_detection\../edge_detection.h"
15	7	40		release __TextOutMutex
15	6	41	#line 6 "C:\Users\kjeld\Documents\GitHub\SaSeRoS-Team359\Object_detection\../edge_detection.h"
15	6	41	#line 6 "C:\Users\kjeld\Documents\GitHub\SaSeRoS-Team359\Object_detection\../edge_detection.h"
15	6	41	#line 6 "C:\Users\kjeld\Documents\GitHub\SaSeRoS-Team359\Object_detection\../edge_detection.h"
15	7	41		getin __signed_stack_001DetectEdge, __constVal1, 4
15	6	45	#line 6 "C:\Users\kjeld\Documents\GitHub\SaSeRoS-Team359\Object_detection\../edge_detection.h"
15	6	45	#line 6 "C:\Users\kjeld\Documents\GitHub\SaSeRoS-Team359\Object_detection\../edge_detection.h"
15	7	45		set __D0DetectEdge, 40
15	6	48	#line 6 "C:\Users\kjeld\Documents\GitHub\SaSeRoS-Team359\Object_detection\../edge_detection.h"
15	7	48		cmp 3, __zfDetectEdge, __signed_stack_001DetectEdge, __D0DetectEdge
15	6	52	#line 6 "C:\Users\kjeld\Documents\GitHub\SaSeRoS-Team359\Object_detection\../edge_detection.h"
15	7	52		mov __D0DetectEdge, __zfDetectEdge
15	8	54	#line 8 "C:\Users\kjeld\Documents\GitHub\SaSeRoS-Team359\Object_detection\../edge_detection.h"
15	9	54		brtst 4, __NXC_Label_686, __zfDetectEdge
15	9	57	#line 9 "C:\Users\kjeld\Documents\GitHub\SaSeRoS-Team359\Object_detection\../edge_detection.h"
15	10	57		set __DU0DetectEdge, 0
15	9	60	#line 9 "C:\Users\kjeld\Documents\GitHub\SaSeRoS-Team359\Object_detection\../edge_detection.h"
15	9	60	#line 9 "C:\Users\kjeld\Documents\GitHub\SaSeRoS-Team359\Object_detection\../edge_detection.h"
15	10	60		subret __DetectEdge_return
15	9	62	#line 9 "C:\Users\kjeld\Documents\GitHub\SaSeRoS-Team359\Object_detection\../edge_detection.h"
15	11	62	#line 11 "C:\Users\kjeld\Documents\GitHub\SaSeRoS-Team359\Object_detection\../edge_detection.h"
15	12	62		jmp __NXC_Label_689
15	12	64	#line 12 "C:\Users\kjeld\Documents\GitHub\SaSeRoS-Team359\Object_detection\../edge_detection.h"
15	13	64		set __DU0DetectEdge, 1
15	12	67	#line 12 "C:\Users\kjeld\Documents\GitHub\SaSeRoS-Team359\Object_detection\../edge_detection.h"
15	12	67	#line 12 "C:\Users\kjeld\Documents\GitHub\SaSeRoS-Team359\Object_detection\../edge_detection.h"
15	13	67		subret __DetectEdge_return
15	12	69	#line 12 "C:\Users\kjeld\Documents\GitHub\SaSeRoS-Team359\Object_detection\../edge_detection.h"
15	14	69	#line 14 "C:\Users\kjeld\Documents\GitHub\SaSeRoS-Team359\Object_detection\../edge_detection.h"
15	14	69	#line 14 "C:\Users\kjeld\Documents\GitHub\SaSeRoS-Team359\Object_detection\../edge_detection.h"
15	15	69		subret __DetectEdge_return
16	13	0	#line 13 "C:\Users\kjeld\Documents\GitHub\SaSeRoS-Team359\Object_detection\../initialise.h"
16	14	0		set __Touch_Init_7qG2_Port_7qG2_000, 0
16	13	3	#line 13 "C:\Users\kjeld\Documents\GitHub\SaSeRoS-Team359\Object_detection\../initialise.h"
16	14	3	#line 14 "C:\Users\kjeld\Documents\GitHub\SaSeRoS-Team359\Object_detection\../initialise.h"
16	15	3		subcall Touch_Init, __Touch_Init_return
16	14	5	#line 14 "C:\Users\kjeld\Documents\GitHub\SaSeRoS-Team359\Object_detection\../initialise.h"
16	14	5	#line 14 "C:\Users\kjeld\Documents\GitHub\SaSeRoS-Team359\Object_detection\../initialise.h"
16	15	5		set __Wait_7qG2_ms_7qG2_000_inline_initialise, 1000
16	14	8	#line 14 "C:\Users\kjeld\Documents\GitHub\SaSeRoS-Team359\Object_detection\../initialise.h"
16	7921	8	#line 7921 "NXCDefs.h"
16	7922	8		wait 1000
16	7921	10	#line 7921 "NXCDefs.h"
16	15	10	#line 15 "C:\Users\kjeld\Documents\GitHub\SaSeRoS-Team359\Object_detection\../initialise.h"
16	15	10	#line 15 "C:\Users\kjeld\Documents\GitHub\SaSeRoS-Team359\Object_detection\../initialise.h"
16	16	10		set __signed_stack_001initialise, 0
16	15	13	#line 15 "C:\Users\kjeld\Documents\GitHub\SaSeRoS-Team359\Object_detection\../initialise.h"
16	15	13	#line 15 "C:\Users\kjeld\Documents\GitHub\SaSeRoS-Team359\Object_detection\../initialise.h"
16	16	13		set __signed_stack_002initialise, 1
16	15	16	#line 15 "C:\Users\kjeld\Documents\GitHub\SaSeRoS-Team359\Object_detection\../initialise.h"
16	15	16	#line 15 "C:\Users\kjeld\Documents\GitHub\SaSeRoS-Team359\Object_detection\../initialise.h"
16	16	16		strcat __strbufinitialise, __constStr0009
16	16	20	#line 16 "C:\Users\kjeld\Documents\GitHub\SaSeRoS-Team359\Object_detection\../initialise.h"
16	17	20		acquire __TextOutMutex
16	16	21	#line 16 "C:\Users\kjeld\Documents\GitHub\SaSeRoS-Team359\Object_detection\../initialise.h"
16	17	21		mov __TextOutArgs.Location.X, __signed_stack_001initialise
16	16	24	#line 16 "C:\Users\kjeld\Documents\GitHub\SaSeRoS-Team359\Object_detection\../initialise.h"
16	17	24		mov __TextOutArgs.Location.Y, __signed_stack_002initialise
16	16	27	#line 16 "C:\Users\kjeld\Documents\GitHub\SaSeRoS-Team359\Object_detection\../initialise.h"
16	17	27		set __TextOutArgs.Options, 0
16	16	30	#line 16 "C:\Users\kjeld\Documents\GitHub\SaSeRoS-Team359\Object_detection\../initialise.h"
16	17	30		mov __TextOutArgs.Text, __strbufinitialise
16	16	32	#line 16 "C:\Users\kjeld\Documents\GitHub\SaSeRoS-Team359\Object_detection\../initialise.h"
16	17	32		syscall 13, __TextOutArgs
16	16	35	#line 16 "C:\Users\kjeld\Documents\GitHub\SaSeRoS-Team359\Object_detection\../initialise.h"
16	17	35		mov __D0initialise, __TextOutArgs.Result
16	16	38	#line 16 "C:\Users\kjeld\Documents\GitHub\SaSeRoS-Team359\Object_detection\../initialise.h"
16	17	38		release __TextOutMutex
16	16	39	#line 16 "C:\Users\kjeld\Documents\GitHub\SaSeRoS-Team359\Object_detection\../initialise.h"
16	16	39	#line 16 "C:\Users\kjeld\Documents\GitHub\SaSeRoS-Team359\Object_detection\../initialise.h"
16	17	39		getin __D0initialise, __constVal0, 4
16	16	43	#line 16 "C:\Users\kjeld\Documents\GitHub\SaSeRoS-Team359\Object_detection\../initialise.h"
16	17	43		tst 5, __zfinitialise, __D0initialise
16	16	46	#line 16 "C:\Users\kjeld\Documents\GitHub\SaSeRoS-Team359\Object_detection\../initialise.h"
16	17	46		brtst 4, __NXC_Label_701, __zfinitialise
16	17	49	#line 17 "C:\Users\kjeld\Documents\GitHub\SaSeRoS-Team359\Object_detection\../initialise.h"
16	18	49		jmp __NXC_Label_700
16	17	51	#line 17 "C:\Users\kjeld\Documents\GitHub\SaSeRoS-Team359\Object_detection\../initialise.h"
16	17	51	#line 17 "C:\Users\kjeld\Documents\GitHub\SaSeRoS-Team359\Object_detection\../initialise.h"
16	18	51		set __ClearLine_7qG2_line_7qG2_000_inline_initialise, 1
16	17	54	#line 17 "C:\Users\kjeld\Documents\GitHub\SaSeRoS-Team359\Object_detection\../initialise.h"
16	6076	54	#line 6076 "NXCDefs.h"
16	6077	54	#pragma macro 7
16	6077	54		acquire __TextOutMutex
16	6077	55		mov __TextOutArgs.Location.X, __constVal0
16	6077	57		mov __TextOutArgs.Location.Y, __ClearLine_7qG2_line_7qG2_000_inline_initialise
16	6077	59		mov __TextOutArgs.Options, __constVal0
16	6077	61		mov __TextOutArgs.Text, __BlankLine
16	6077	63		syscall 13, __TextOutArgs
16	6077	66		release __TextOutMutex
16	9334	67	#line 9334 "NXCDefs.h"
16	6076	67	#line 6076 "NXCDefs.h"
16	18	67	#line 18 "C:\Users\kjeld\Documents\GitHub\SaSeRoS-Team359\Object_detection\../initialise.h"
16	18	67	#line 18 "C:\Users\kjeld\Documents\GitHub\SaSeRoS-Team359\Object_detection\../initialise.h"
16	19	67		set __signed_stack_001initialise, 0
16	18	70	#line 18 "C:\Users\kjeld\Documents\GitHub\SaSeRoS-Team359\Object_detection\../initialise.h"
16	18	70	#line 18 "C:\Users\kjeld\Documents\GitHub\SaSeRoS-Team359\Object_detection\../initialise.h"
16	19	70		set __signed_stack_002initialise, 1
16	18	73	#line 18 "C:\Users\kjeld\Documents\GitHub\SaSeRoS-Team359\Object_detection\../initialise.h"
16	18	73	#line 18 "C:\Users\kjeld\Documents\GitHub\SaSeRoS-Team359\Object_detection\../initialise.h"
16	19	73		strcat __strbufinitialise, __constStr0010
16	19	77	#line 19 "C:\Users\kjeld\Documents\GitHub\SaSeRoS-Team359\Object_detection\../initialise.h"
16	20	77		acquire __TextOutMutex
16	19	78	#line 19 "C:\Users\kjeld\Documents\GitHub\SaSeRoS-Team359\Object_detection\../initialise.h"
16	20	78		mov __TextOutArgs.Location.X, __signed_stack_001initialise
16	19	81	#line 19 "C:\Users\kjeld\Documents\GitHub\SaSeRoS-Team359\Object_detection\../initialise.h"
16	20	81		mov __TextOutArgs.Location.Y, __signed_stack_002initialise
16	19	84	#line 19 "C:\Users\kjeld\Documents\GitHub\SaSeRoS-Team359\Object_detection\../initialise.h"
16	20	84		set __TextOutArgs.Options, 0
16	19	87	#line 19 "C:\Users\kjeld\Documents\GitHub\SaSeRoS-Team359\Object_detection\../initialise.h"
16	20	87		mov __TextOutArgs.Text, __strbufinitialise
16	19	89	#line 19 "C:\Users\kjeld\Documents\GitHub\SaSeRoS-Team359\Object_detection\../initialise.h"
16	20	89		syscall 13, __TextOutArgs
16	19	92	#line 19 "C:\Users\kjeld\Documents\GitHub\SaSeRoS-Team359\Object_detection\../initialise.h"
16	20	92		mov __D0initialise, __TextOutArgs.Result
16	19	95	#line 19 "C:\Users\kjeld\Documents\GitHub\SaSeRoS-Team359\Object_detection\../initialise.h"
16	20	95		release __TextOutMutex
16	19	96	#line 19 "C:\Users\kjeld\Documents\GitHub\SaSeRoS-Team359\Object_detection\../initialise.h"
16	19	96	#line 19 "C:\Users\kjeld\Documents\GitHub\SaSeRoS-Team359\Object_detection\../initialise.h"
16	20	96		set __Wait_7qG2_ms_7qG2_000_inline_initialise, 5000
16	19	99	#line 19 "C:\Users\kjeld\Documents\GitHub\SaSeRoS-Team359\Object_detection\../initialise.h"
16	7921	99	#line 7921 "NXCDefs.h"
16	7922	99		wait 5000
16	7921	101	#line 7921 "NXCDefs.h"
16	20	101	#line 20 "C:\Users\kjeld\Documents\GitHub\SaSeRoS-Team359\Object_detection\../initialise.h"
16	20	101	#line 20 "C:\Users\kjeld\Documents\GitHub\SaSeRoS-Team359\Object_detection\../initialise.h"
16	21	101		set __ClearLine_7qG2_line_7qG2_000_inline_initialise, 1
16	20	104	#line 20 "C:\Users\kjeld\Documents\GitHub\SaSeRoS-Team359\Object_detection\../initialise.h"
16	6076	104	#line 6076 "NXCDefs.h"
16	6077	104	#pragma macro 7
16	6077	104		acquire __TextOutMutex
16	6077	105		mov __TextOutArgs.Location.X, __constVal0
16	6077	107		mov __TextOutArgs.Location.Y, __ClearLine_7qG2_line_7qG2_000_inline_initialise
16	6077	109		mov __TextOutArgs.Options, __constVal0
16	6077	111		mov __TextOutArgs.Text, __BlankLine
16	6077	113		syscall 13, __TextOutArgs
16	6077	116		release __TextOutMutex
16	9385	117	#line 9385 "NXCDefs.h"
16	6076	117	#line 6076 "NXCDefs.h"
16	21	117	#line 21 "C:\Users\kjeld\Documents\GitHub\SaSeRoS-Team359\Object_detection\../initialise.h"
16	21	117	#line 21 "C:\Users\kjeld\Documents\GitHub\SaSeRoS-Team359\Object_detection\../initialise.h"
16	22	117		set __Touch_Init_7qG2_Port_7qG2_000, 2
16	21	120	#line 21 "C:\Users\kjeld\Documents\GitHub\SaSeRoS-Team359\Object_detection\../initialise.h"
16	22	120	#line 22 "C:\Users\kjeld\Documents\GitHub\SaSeRoS-Team359\Object_detection\../initialise.h"
16	23	120		subcall Touch_Init, __Touch_Init_return
16	22	122	#line 22 "C:\Users\kjeld\Documents\GitHub\SaSeRoS-Team359\Object_detection\../initialise.h"
16	22	122	#line 22 "C:\Users\kjeld\Documents\GitHub\SaSeRoS-Team359\Object_detection\../initialise.h"
16	23	122		set __Wait_7qG2_ms_7qG2_000_inline_initialise, 1000
16	22	125	#line 22 "C:\Users\kjeld\Documents\GitHub\SaSeRoS-Team359\Object_detection\../initialise.h"
16	7921	125	#line 7921 "NXCDefs.h"
16	7922	125		wait 1000
16	7921	127	#line 7921 "NXCDefs.h"
16	23	127	#line 23 "C:\Users\kjeld\Documents\GitHub\SaSeRoS-Team359\Object_detection\../initialise.h"
16	23	127	#line 23 "C:\Users\kjeld\Documents\GitHub\SaSeRoS-Team359\Object_detection\../initialise.h"
16	24	127		set __signed_stack_001initialise, 0
16	23	130	#line 23 "C:\Users\kjeld\Documents\GitHub\SaSeRoS-Team359\Object_detection\../initialise.h"
16	23	130	#line 23 "C:\Users\kjeld\Documents\GitHub\SaSeRoS-Team359\Object_detection\../initialise.h"
16	24	130		set __signed_stack_002initialise, 1
16	23	133	#line 23 "C:\Users\kjeld\Documents\GitHub\SaSeRoS-Team359\Object_detection\../initialise.h"
16	23	133	#line 23 "C:\Users\kjeld\Documents\GitHub\SaSeRoS-Team359\Object_detection\../initialise.h"
16	24	133		strcat __strbufinitialise, __constStr0011
16	24	137	#line 24 "C:\Users\kjeld\Documents\GitHub\SaSeRoS-Team359\Object_detection\../initialise.h"
16	25	137		acquire __TextOutMutex
16	24	138	#line 24 "C:\Users\kjeld\Documents\GitHub\SaSeRoS-Team359\Object_detection\../initialise.h"
16	25	138		mov __TextOutArgs.Location.X, __signed_stack_001initialise
16	24	141	#line 24 "C:\Users\kjeld\Documents\GitHub\SaSeRoS-Team359\Object_detection\../initialise.h"
16	25	141		mov __TextOutArgs.Location.Y, __signed_stack_002initialise
16	24	144	#line 24 "C:\Users\kjeld\Documents\GitHub\SaSeRoS-Team359\Object_detection\../initialise.h"
16	25	144		set __TextOutArgs.Options, 0
16	24	147	#line 24 "C:\Users\kjeld\Documents\GitHub\SaSeRoS-Team359\Object_detection\../initialise.h"
16	25	147		mov __TextOutArgs.Text, __strbufinitialise
16	24	149	#line 24 "C:\Users\kjeld\Documents\GitHub\SaSeRoS-Team359\Object_detection\../initialise.h"
16	25	149		syscall 13, __TextOutArgs
16	24	152	#line 24 "C:\Users\kjeld\Documents\GitHub\SaSeRoS-Team359\Object_detection\../initialise.h"
16	25	152		mov __D0initialise, __TextOutArgs.Result
16	24	155	#line 24 "C:\Users\kjeld\Documents\GitHub\SaSeRoS-Team359\Object_detection\../initialise.h"
16	25	155		release __TextOutMutex
16	24	156	#line 24 "C:\Users\kjeld\Documents\GitHub\SaSeRoS-Team359\Object_detection\../initialise.h"
16	24	156	#line 24 "C:\Users\kjeld\Documents\GitHub\SaSeRoS-Team359\Object_detection\../initialise.h"
16	25	156		getin __D0initialise, __constVal2, 4
16	24	160	#line 24 "C:\Users\kjeld\Documents\GitHub\SaSeRoS-Team359\Object_detection\../initialise.h"
16	25	160		tst 5, __zfinitialise, __D0initialise
16	24	163	#line 24 "C:\Users\kjeld\Documents\GitHub\SaSeRoS-Team359\Object_detection\../initialise.h"
16	25	163		brtst 4, __NXC_Label_723, __zfinitialise
16	25	166	#line 25 "C:\Users\kjeld\Documents\GitHub\SaSeRoS-Team359\Object_detection\../initialise.h"
16	26	166		jmp __NXC_Label_722
16	25	168	#line 25 "C:\Users\kjeld\Documents\GitHub\SaSeRoS-Team359\Object_detection\../initialise.h"
16	25	168	#line 25 "C:\Users\kjeld\Documents\GitHub\SaSeRoS-Team359\Object_detection\../initialise.h"
16	26	168		set __ClearLine_7qG2_line_7qG2_000_inline_initialise, 1
16	25	171	#line 25 "C:\Users\kjeld\Documents\GitHub\SaSeRoS-Team359\Object_detection\../initialise.h"
16	6076	171	#line 6076 "NXCDefs.h"
16	6077	171	#pragma macro 7
16	6077	171		acquire __TextOutMutex
16	6077	172		mov __TextOutArgs.Location.X, __constVal0
16	6077	174		mov __TextOutArgs.Location.Y, __ClearLine_7qG2_line_7qG2_000_inline_initialise
16	6077	176		mov __TextOutArgs.Options, __constVal0
16	6077	178		mov __TextOutArgs.Text, __BlankLine
16	6077	180		syscall 13, __TextOutArgs
16	6077	183		release __TextOutMutex
16	9458	184	#line 9458 "NXCDefs.h"
16	6076	184	#line 6076 "NXCDefs.h"
16	26	184	#line 26 "C:\Users\kjeld\Documents\GitHub\SaSeRoS-Team359\Object_detection\../initialise.h"
16	26	184	#line 26 "C:\Users\kjeld\Documents\GitHub\SaSeRoS-Team359\Object_detection\../initialise.h"
16	27	184		set __signed_stack_001initialise, 0
16	26	187	#line 26 "C:\Users\kjeld\Documents\GitHub\SaSeRoS-Team359\Object_detection\../initialise.h"
16	26	187	#line 26 "C:\Users\kjeld\Documents\GitHub\SaSeRoS-Team359\Object_detection\../initialise.h"
16	27	187		set __signed_stack_002initialise, 1
16	26	190	#line 26 "C:\Users\kjeld\Documents\GitHub\SaSeRoS-Team359\Object_detection\../initialise.h"
16	26	190	#line 26 "C:\Users\kjeld\Documents\GitHub\SaSeRoS-Team359\Object_detection\../initialise.h"
16	27	190		strcat __strbufinitialise, __constStr0010
16	27	194	#line 27 "C:\Users\kjeld\Documents\GitHub\SaSeRoS-Team359\Object_detection\../initialise.h"
16	28	194		acquire __TextOutMutex
16	27	195	#line 27 "C:\Users\kjeld\Documents\GitHub\SaSeRoS-Team359\Object_detection\../initialise.h"
16	28	195		mov __TextOutArgs.Location.X, __signed_stack_001initialise
16	27	198	#line 27 "C:\Users\kjeld\Documents\GitHub\SaSeRoS-Team359\Object_detection\../initialise.h"
16	28	198		mov __TextOutArgs.Location.Y, __signed_stack_002initialise
16	27	201	#line 27 "C:\Users\kjeld\Documents\GitHub\SaSeRoS-Team359\Object_detection\../initialise.h"
16	28	201		set __TextOutArgs.Options, 0
16	27	204	#line 27 "C:\Users\kjeld\Documents\GitHub\SaSeRoS-Team359\Object_detection\../initialise.h"
16	28	204		mov __TextOutArgs.Text, __strbufinitialise
16	27	206	#line 27 "C:\Users\kjeld\Documents\GitHub\SaSeRoS-Team359\Object_detection\../initialise.h"
16	28	206		syscall 13, __TextOutArgs
16	27	209	#line 27 "C:\Users\kjeld\Documents\GitHub\SaSeRoS-Team359\Object_detection\../initialise.h"
16	28	209		mov __D0initialise, __TextOutArgs.Result
16	27	212	#line 27 "C:\Users\kjeld\Documents\GitHub\SaSeRoS-Team359\Object_detection\../initialise.h"
16	28	212		release __TextOutMutex
16	27	213	#line 27 "C:\Users\kjeld\Documents\GitHub\SaSeRoS-Team359\Object_detection\../initialise.h"
16	27	213	#line 27 "C:\Users\kjeld\Documents\GitHub\SaSeRoS-Team359\Object_detection\../initialise.h"
16	28	213		set __Range_Sens_Init_7qG2_Port_7qG2_000, 3
16	27	216	#line 27 "C:\Users\kjeld\Documents\GitHub\SaSeRoS-Team359\Object_detection\../initialise.h"
16	28	216	#line 28 "C:\Users\kjeld\Documents\GitHub\SaSeRoS-Team359\Object_detection\../initialise.h"
16	29	216		subcall Range_Sens_Init, __Range_Sens_Init_return
16	28	218	#line 28 "C:\Users\kjeld\Documents\GitHub\SaSeRoS-Team359\Object_detection\../initialise.h"
16	28	218	#line 28 "C:\Users\kjeld\Documents\GitHub\SaSeRoS-Team359\Object_detection\../initialise.h"
16	29	218		set __Wait_7qG2_ms_7qG2_000_inline_initialise, 1000
16	28	221	#line 28 "C:\Users\kjeld\Documents\GitHub\SaSeRoS-Team359\Object_detection\../initialise.h"
16	7921	221	#line 7921 "NXCDefs.h"
16	7922	221		wait 1000
16	7921	223	#line 7921 "NXCDefs.h"
16	29	223	#line 29 "C:\Users\kjeld\Documents\GitHub\SaSeRoS-Team359\Object_detection\../initialise.h"
16	29	223	#line 29 "C:\Users\kjeld\Documents\GitHub\SaSeRoS-Team359\Object_detection\../initialise.h"
16	30	223	#pragma macro 26
16	30	223		acquire __RLSBmutex3
16	30	224		mov __RLSReadBuf3, __RLSBbufLSWrite1
16	30	226		set __RLSBytesCount3, 1
16	30	229		wait 15
16	30	231		subcall __ReadLSBytes3, ____ReadLSBytes3_return
16	30	234		index __D0initialise, __RLSReadBuf3, 65535
16	30	238		release __RLSBmutex3
16	9512	239	#line 9512 "C:\Users\kjeld\Documents\GitHub\SaSeRoS-Team359\Object_detection\../initialise.h"
16	29	239	#line 29 "C:\Users\kjeld\Documents\GitHub\SaSeRoS-Team359\Object_detection\../initialise.h"
16	30	239		mov __initialise_7qG2_Range_7qG2_000, __D0initialise
16	29	241	#line 29 "C:\Users\kjeld\Documents\GitHub\SaSeRoS-Team359\Object_detection\../initialise.h"
16	29	241	#line 29 "C:\Users\kjeld\Documents\GitHub\SaSeRoS-Team359\Object_detection\../initialise.h"
16	30	241	#line 30 "C:\Users\kjeld\Documents\GitHub\SaSeRoS-Team359\Object_detection\../initialise.h"
16	31	241		set __ClearLine_7qG2_line_7qG2_000_inline_initialise, 1
16	30	244	#line 30 "C:\Users\kjeld\Documents\GitHub\SaSeRoS-Team359\Object_detection\../initialise.h"
16	6076	244	#line 6076 "NXCDefs.h"
16	6077	244	#pragma macro 7
16	6077	244		acquire __TextOutMutex
16	6077	245		mov __TextOutArgs.Location.X, __constVal0
16	6077	247		mov __TextOutArgs.Location.Y, __ClearLine_7qG2_line_7qG2_000_inline_initialise
16	6077	249		mov __TextOutArgs.Options, __constVal0
16	6077	251		mov __TextOutArgs.Text, __BlankLine
16	6077	253		syscall 13, __TextOutArgs
16	6077	256		release __TextOutMutex
16	9526	257	#line 9526 "NXCDefs.h"
16	6076	257	#line 6076 "NXCDefs.h"
16	31	257	#line 31 "C:\Users\kjeld\Documents\GitHub\SaSeRoS-Team359\Object_detection\../initialise.h"
16	31	257	#line 31 "C:\Users\kjeld\Documents\GitHub\SaSeRoS-Team359\Object_detection\../initialise.h"
16	32	257		set __signed_stack_001initialise, 0
16	31	260	#line 31 "C:\Users\kjeld\Documents\GitHub\SaSeRoS-Team359\Object_detection\../initialise.h"
16	31	260	#line 31 "C:\Users\kjeld\Documents\GitHub\SaSeRoS-Team359\Object_detection\../initialise.h"
16	32	260		set __signed_stack_002initialise, 1
16	31	263	#line 31 "C:\Users\kjeld\Documents\GitHub\SaSeRoS-Team359\Object_detection\../initialise.h"
16	31	263	#line 31 "C:\Users\kjeld\Documents\GitHub\SaSeRoS-Team359\Object_detection\../initialise.h"
16	32	263		strcat __strbufinitialise, __constStr0012
16	32	267	#line 32 "C:\Users\kjeld\Documents\GitHub\SaSeRoS-Team359\Object_detection\../initialise.h"
16	33	267		acquire __TextOutMutex
16	32	268	#line 32 "C:\Users\kjeld\Documents\GitHub\SaSeRoS-Team359\Object_detection\../initialise.h"
16	33	268		mov __TextOutArgs.Location.X, __signed_stack_001initialise
16	32	271	#line 32 "C:\Users\kjeld\Documents\GitHub\SaSeRoS-Team359\Object_detection\../initialise.h"
16	33	271		mov __TextOutArgs.Location.Y, __signed_stack_002initialise
16	32	274	#line 32 "C:\Users\kjeld\Documents\GitHub\SaSeRoS-Team359\Object_detection\../initialise.h"
16	33	274		set __TextOutArgs.Options, 0
16	32	277	#line 32 "C:\Users\kjeld\Documents\GitHub\SaSeRoS-Team359\Object_detection\../initialise.h"
16	33	277		mov __TextOutArgs.Text, __strbufinitialise
16	32	279	#line 32 "C:\Users\kjeld\Documents\GitHub\SaSeRoS-Team359\Object_detection\../initialise.h"
16	33	279		syscall 13, __TextOutArgs
16	32	282	#line 32 "C:\Users\kjeld\Documents\GitHub\SaSeRoS-Team359\Object_detection\../initialise.h"
16	33	282		mov __D0initialise, __TextOutArgs.Result
16	32	285	#line 32 "C:\Users\kjeld\Documents\GitHub\SaSeRoS-Team359\Object_detection\../initialise.h"
16	33	285		release __TextOutMutex
16	32	286	#line 32 "C:\Users\kjeld\Documents\GitHub\SaSeRoS-Team359\Object_detection\../initialise.h"
16	32	286	#line 32 "C:\Users\kjeld\Documents\GitHub\SaSeRoS-Team359\Object_detection\../initialise.h"
16	33	286	#pragma macro 26
16	33	286		acquire __RLSBmutex3
16	33	287		mov __RLSReadBuf3, __RLSBbufLSWrite1
16	33	289		set __RLSBytesCount3, 1
16	33	292		wait 15
16	33	294		subcall __ReadLSBytes3, ____ReadLSBytes3_return
16	33	297		index __D0initialise, __RLSReadBuf3, 65535
16	33	301		release __RLSBmutex3
16	9562	302	#line 9562 "C:\Users\kjeld\Documents\GitHub\SaSeRoS-Team359\Object_detection\../initialise.h"
16	32	302	#line 32 "C:\Users\kjeld\Documents\GitHub\SaSeRoS-Team359\Object_detection\../initialise.h"
16	33	302		mov __signed_stack_001initialise, __D0initialise
16	32	304	#line 32 "C:\Users\kjeld\Documents\GitHub\SaSeRoS-Team359\Object_detection\../initialise.h"
16	32	304	#line 32 "C:\Users\kjeld\Documents\GitHub\SaSeRoS-Team359\Object_detection\../initialise.h"
16	32	304	#line 32 "C:\Users\kjeld\Documents\GitHub\SaSeRoS-Team359\Object_detection\../initialise.h"
16	32	304	#line 32 "C:\Users\kjeld\Documents\GitHub\SaSeRoS-Team359\Object_detection\../initialise.h"
16	33	304		sub __D0initialise, __initialise_7qG2_Range_7qG2_000, __constVal10
16	32	308	#line 32 "C:\Users\kjeld\Documents\GitHub\SaSeRoS-Team359\Object_detection\../initialise.h"
16	33	308		cmp 1, __zfinitialise, __signed_stack_001initialise, __D0initialise
16	32	312	#line 32 "C:\Users\kjeld\Documents\GitHub\SaSeRoS-Team359\Object_detection\../initialise.h"
16	33	312		mov __D0initialise, __zfinitialise
16	32	315	#line 32 "C:\Users\kjeld\Documents\GitHub\SaSeRoS-Team359\Object_detection\../initialise.h"
16	33	315		brtst 4, __NXC_Label_747, __zfinitialise
16	32	318	#line 32 "C:\Users\kjeld\Documents\GitHub\SaSeRoS-Team359\Object_detection\../initialise.h"
16	33	318		mov __signed_stack_001initialise, __D0initialise
16	32	320	#line 32 "C:\Users\kjeld\Documents\GitHub\SaSeRoS-Team359\Object_detection\../initialise.h"
16	33	320	#pragma macro 26
16	33	320		acquire __RLSBmutex3
16	33	321		mov __RLSReadBuf3, __RLSBbufLSWrite1
16	33	323		set __RLSBytesCount3, 1
16	33	326		wait 15
16	33	328		subcall __ReadLSBytes3, ____ReadLSBytes3_return
16	33	331		index __D0initialise, __RLSReadBuf3, 65535
16	33	335		release __RLSBmutex3
16	9586	336	#line 9586 "C:\Users\kjeld\Documents\GitHub\SaSeRoS-Team359\Object_detection\../initialise.h"
16	32	336	#line 32 "C:\Users\kjeld\Documents\GitHub\SaSeRoS-Team359\Object_detection\../initialise.h"
16	33	336		mov __signed_stack_002initialise, __D0initialise
16	32	338	#line 32 "C:\Users\kjeld\Documents\GitHub\SaSeRoS-Team359\Object_detection\../initialise.h"
16	32	338	#line 32 "C:\Users\kjeld\Documents\GitHub\SaSeRoS-Team359\Object_detection\../initialise.h"
16	32	338	#line 32 "C:\Users\kjeld\Documents\GitHub\SaSeRoS-Team359\Object_detection\../initialise.h"
16	32	338	#line 32 "C:\Users\kjeld\Documents\GitHub\SaSeRoS-Team359\Object_detection\../initialise.h"
16	33	338		add __D0initialise, __initialise_7qG2_Range_7qG2_000, __constVal10
16	32	342	#line 32 "C:\Users\kjeld\Documents\GitHub\SaSeRoS-Team359\Object_detection\../initialise.h"
16	33	342		cmp 0, __zfinitialise, __signed_stack_002initialise, __D0initialise
16	32	346	#line 32 "C:\Users\kjeld\Documents\GitHub\SaSeRoS-Team359\Object_detection\../initialise.h"
16	32	346	#line 32 "C:\Users\kjeld\Documents\GitHub\SaSeRoS-Team359\Object_detection\../initialise.h"
16	33	346		and __D0initialise, __signed_stack_001initialise, __zfinitialise
16	32	350	#line 32 "C:\Users\kjeld\Documents\GitHub\SaSeRoS-Team359\Object_detection\../initialise.h"
16	33	350		tst 5, __zfinitialise, __D0initialise
16	32	353	#line 32 "C:\Users\kjeld\Documents\GitHub\SaSeRoS-Team359\Object_detection\../initialise.h"
16	33	353		brtst 4, __NXC_Label_745, __zfinitialise
16	33	356	#line 33 "C:\Users\kjeld\Documents\GitHub\SaSeRoS-Team359\Object_detection\../initialise.h"
16	34	356		jmp __NXC_Label_744
16	33	358	#line 33 "C:\Users\kjeld\Documents\GitHub\SaSeRoS-Team359\Object_detection\../initialise.h"
16	33	358	#line 33 "C:\Users\kjeld\Documents\GitHub\SaSeRoS-Team359\Object_detection\../initialise.h"
16	34	358		set __ClearLine_7qG2_line_7qG2_000_inline_initialise, 1
16	33	361	#line 33 "C:\Users\kjeld\Documents\GitHub\SaSeRoS-Team359\Object_detection\../initialise.h"
16	6076	361	#line 6076 "NXCDefs.h"
16	6077	361	#pragma macro 7
16	6077	361		acquire __TextOutMutex
16	6077	362		mov __TextOutArgs.Location.X, __constVal0
16	6077	364		mov __TextOutArgs.Location.Y, __ClearLine_7qG2_line_7qG2_000_inline_initialise
16	6077	366		mov __TextOutArgs.Options, __constVal0
16	6077	368		mov __TextOutArgs.Text, __BlankLine
16	6077	370		syscall 13, __TextOutArgs
16	6077	373		release __TextOutMutex
16	9624	374	#line 9624 "NXCDefs.h"
16	6076	374	#line 6076 "NXCDefs.h"
16	34	374	#line 34 "C:\Users\kjeld\Documents\GitHub\SaSeRoS-Team359\Object_detection\../initialise.h"
16	34	374	#line 34 "C:\Users\kjeld\Documents\GitHub\SaSeRoS-Team359\Object_detection\../initialise.h"
16	35	374		set __signed_stack_001initialise, 0
16	34	377	#line 34 "C:\Users\kjeld\Documents\GitHub\SaSeRoS-Team359\Object_detection\../initialise.h"
16	34	377	#line 34 "C:\Users\kjeld\Documents\GitHub\SaSeRoS-Team359\Object_detection\../initialise.h"
16	35	377		set __signed_stack_002initialise, 1
16	34	380	#line 34 "C:\Users\kjeld\Documents\GitHub\SaSeRoS-Team359\Object_detection\../initialise.h"
16	34	380	#line 34 "C:\Users\kjeld\Documents\GitHub\SaSeRoS-Team359\Object_detection\../initialise.h"
16	35	380		strcat __strbufinitialise, __constStr0010
16	35	384	#line 35 "C:\Users\kjeld\Documents\GitHub\SaSeRoS-Team359\Object_detection\../initialise.h"
16	36	384		acquire __TextOutMutex
16	35	385	#line 35 "C:\Users\kjeld\Documents\GitHub\SaSeRoS-Team359\Object_detection\../initialise.h"
16	36	385		mov __TextOutArgs.Location.X, __signed_stack_001initialise
16	35	388	#line 35 "C:\Users\kjeld\Documents\GitHub\SaSeRoS-Team359\Object_detection\../initialise.h"
16	36	388		mov __TextOutArgs.Location.Y, __signed_stack_002initialise
16	35	391	#line 35 "C:\Users\kjeld\Documents\GitHub\SaSeRoS-Team359\Object_detection\../initialise.h"
16	36	391		set __TextOutArgs.Options, 0
16	35	394	#line 35 "C:\Users\kjeld\Documents\GitHub\SaSeRoS-Team359\Object_detection\../initialise.h"
16	36	394		mov __TextOutArgs.Text, __strbufinitialise
16	35	396	#line 35 "C:\Users\kjeld\Documents\GitHub\SaSeRoS-Team359\Object_detection\../initialise.h"
16	36	396		syscall 13, __TextOutArgs
16	35	399	#line 35 "C:\Users\kjeld\Documents\GitHub\SaSeRoS-Team359\Object_detection\../initialise.h"
16	36	399		mov __D0initialise, __TextOutArgs.Result
16	35	402	#line 35 "C:\Users\kjeld\Documents\GitHub\SaSeRoS-Team359\Object_detection\../initialise.h"
16	36	402		release __TextOutMutex
16	35	403	#line 35 "C:\Users\kjeld\Documents\GitHub\SaSeRoS-Team359\Object_detection\../initialise.h"
16	35	403	#line 35 "C:\Users\kjeld\Documents\GitHub\SaSeRoS-Team359\Object_detection\../initialise.h"
16	36	403		set __Wait_7qG2_ms_7qG2_000_inline_initialise, 5000
16	35	406	#line 35 "C:\Users\kjeld\Documents\GitHub\SaSeRoS-Team359\Object_detection\../initialise.h"
16	7921	406	#line 7921 "NXCDefs.h"
16	7922	406		wait 5000
16	7921	408	#line 7921 "NXCDefs.h"
16	36	408	#line 36 "C:\Users\kjeld\Documents\GitHub\SaSeRoS-Team359\Object_detection\../initialise.h"
16	36	408	#line 36 "C:\Users\kjeld\Documents\GitHub\SaSeRoS-Team359\Object_detection\../initialise.h"
16	37	408		set __Light_Sens_Init_7qG2_Port_7qG2_000, 1
16	36	411	#line 36 "C:\Users\kjeld\Documents\GitHub\SaSeRoS-Team359\Object_detection\../initialise.h"
16	37	411	#line 37 "C:\Users\kjeld\Documents\GitHub\SaSeRoS-Team359\Object_detection\../initialise.h"
16	38	411		subcall Light_Sens_Init, __Light_Sens_Init_return
16	37	413	#line 37 "C:\Users\kjeld\Documents\GitHub\SaSeRoS-Team359\Object_detection\../initialise.h"
16	37	413	#line 37 "C:\Users\kjeld\Documents\GitHub\SaSeRoS-Team359\Object_detection\../initialise.h"
16	38	413		set __Wait_7qG2_ms_7qG2_000_inline_initialise, 1000
16	37	416	#line 37 "C:\Users\kjeld\Documents\GitHub\SaSeRoS-Team359\Object_detection\../initialise.h"
16	7921	416	#line 7921 "NXCDefs.h"
16	7922	416		wait 1000
16	7921	418	#line 7921 "NXCDefs.h"
16	38	418	#line 38 "C:\Users\kjeld\Documents\GitHub\SaSeRoS-Team359\Object_detection\../initialise.h"
16	38	418	#line 38 "C:\Users\kjeld\Documents\GitHub\SaSeRoS-Team359\Object_detection\../initialise.h"
16	39	418		getin __initialise_7qG2_Light_7qG2_000, __constVal1, 4
16	38	422	#line 38 "C:\Users\kjeld\Documents\GitHub\SaSeRoS-Team359\Object_detection\../initialise.h"
16	38	422	#line 38 "C:\Users\kjeld\Documents\GitHub\SaSeRoS-Team359\Object_detection\../initialise.h"
16	38	422	#line 38 "C:\Users\kjeld\Documents\GitHub\SaSeRoS-Team359\Object_detection\../initialise.h"
16	39	422	#line 39 "C:\Users\kjeld\Documents\GitHub\SaSeRoS-Team359\Object_detection\../initialise.h"
16	40	422		set __signed_stack_001initialise, 0
16	39	425	#line 39 "C:\Users\kjeld\Documents\GitHub\SaSeRoS-Team359\Object_detection\../initialise.h"
16	39	425	#line 39 "C:\Users\kjeld\Documents\GitHub\SaSeRoS-Team359\Object_detection\../initialise.h"
16	40	425		set __signed_stack_002initialise, 1
16	39	428	#line 39 "C:\Users\kjeld\Documents\GitHub\SaSeRoS-Team359\Object_detection\../initialise.h"
16	39	428	#line 39 "C:\Users\kjeld\Documents\GitHub\SaSeRoS-Team359\Object_detection\../initialise.h"
16	40	428		strcat __strbufinitialise, __constStr0013
16	41	432	#line 41 "C:\Users\kjeld\Documents\GitHub\SaSeRoS-Team359\Object_detection\../initialise.h"
16	42	432		acquire __TextOutMutex
16	41	433	#line 41 "C:\Users\kjeld\Documents\GitHub\SaSeRoS-Team359\Object_detection\../initialise.h"
16	42	433		mov __TextOutArgs.Location.X, __signed_stack_001initialise
16	41	436	#line 41 "C:\Users\kjeld\Documents\GitHub\SaSeRoS-Team359\Object_detection\../initialise.h"
16	42	436		mov __TextOutArgs.Location.Y, __signed_stack_002initialise
16	41	439	#line 41 "C:\Users\kjeld\Documents\GitHub\SaSeRoS-Team359\Object_detection\../initialise.h"
16	42	439		set __TextOutArgs.Options, 0
16	41	442	#line 41 "C:\Users\kjeld\Documents\GitHub\SaSeRoS-Team359\Object_detection\../initialise.h"
16	42	442		mov __TextOutArgs.Text, __strbufinitialise
16	41	444	#line 41 "C:\Users\kjeld\Documents\GitHub\SaSeRoS-Team359\Object_detection\../initialise.h"
16	42	444		syscall 13, __TextOutArgs
16	41	447	#line 41 "C:\Users\kjeld\Documents\GitHub\SaSeRoS-Team359\Object_detection\../initialise.h"
16	42	447		mov __D0initialise, __TextOutArgs.Result
16	41	450	#line 41 "C:\Users\kjeld\Documents\GitHub\SaSeRoS-Team359\Object_detection\../initialise.h"
16	42	450		release __TextOutMutex
16	41	451	#line 41 "C:\Users\kjeld\Documents\GitHub\SaSeRoS-Team359\Object_detection\../initialise.h"
16	41	451	#line 41 "C:\Users\kjeld\Documents\GitHub\SaSeRoS-Team359\Object_detection\../initialise.h"
16	42	451		getin __signed_stack_001initialise, __constVal1, 4
16	41	455	#line 41 "C:\Users\kjeld\Documents\GitHub\SaSeRoS-Team359\Object_detection\../initialise.h"
16	41	455	#line 41 "C:\Users\kjeld\Documents\GitHub\SaSeRoS-Team359\Object_detection\../initialise.h"
16	41	455	#line 41 "C:\Users\kjeld\Documents\GitHub\SaSeRoS-Team359\Object_detection\../initialise.h"
16	41	455	#line 41 "C:\Users\kjeld\Documents\GitHub\SaSeRoS-Team359\Object_detection\../initialise.h"
16	41	455	#line 41 "C:\Users\kjeld\Documents\GitHub\SaSeRoS-Team359\Object_detection\../initialise.h"
16	42	455		sub __D0initialise, __initialise_7qG2_Light_7qG2_000, __constVal100
16	41	459	#line 41 "C:\Users\kjeld\Documents\GitHub\SaSeRoS-Team359\Object_detection\../initialise.h"
16	42	459		cmp 1, __zfinitialise, __signed_stack_001initialise, __D0initialise
16	41	463	#line 41 "C:\Users\kjeld\Documents\GitHub\SaSeRoS-Team359\Object_detection\../initialise.h"
16	42	463		mov __D0initialise, __zfinitialise
16	41	466	#line 41 "C:\Users\kjeld\Documents\GitHub\SaSeRoS-Team359\Object_detection\../initialise.h"
16	42	466		brtst 4, __NXC_Label_777, __zfinitialise
16	41	469	#line 41 "C:\Users\kjeld\Documents\GitHub\SaSeRoS-Team359\Object_detection\../initialise.h"
16	42	469		mov __signed_stack_001initialise, __D0initialise
16	41	471	#line 41 "C:\Users\kjeld\Documents\GitHub\SaSeRoS-Team359\Object_detection\../initialise.h"
16	42	471		getin __signed_stack_002initialise, __constVal1, 4
16	41	475	#line 41 "C:\Users\kjeld\Documents\GitHub\SaSeRoS-Team359\Object_detection\../initialise.h"
16	41	475	#line 41 "C:\Users\kjeld\Documents\GitHub\SaSeRoS-Team359\Object_detection\../initialise.h"
16	41	475	#line 41 "C:\Users\kjeld\Documents\GitHub\SaSeRoS-Team359\Object_detection\../initialise.h"
16	41	475	#line 41 "C:\Users\kjeld\Documents\GitHub\SaSeRoS-Team359\Object_detection\../initialise.h"
16	41	475	#line 41 "C:\Users\kjeld\Documents\GitHub\SaSeRoS-Team359\Object_detection\../initialise.h"
16	42	475		add __D0initialise, __initialise_7qG2_Light_7qG2_000, __constVal100
16	41	479	#line 41 "C:\Users\kjeld\Documents\GitHub\SaSeRoS-Team359\Object_detection\../initialise.h"
16	42	479		cmp 0, __zfinitialise, __signed_stack_002initialise, __D0initialise
16	41	483	#line 41 "C:\Users\kjeld\Documents\GitHub\SaSeRoS-Team359\Object_detection\../initialise.h"
16	41	483	#line 41 "C:\Users\kjeld\Documents\GitHub\SaSeRoS-Team359\Object_detection\../initialise.h"
16	42	483		and __D0initialise, __signed_stack_001initialise, __zfinitialise
16	41	487	#line 41 "C:\Users\kjeld\Documents\GitHub\SaSeRoS-Team359\Object_detection\../initialise.h"
16	42	487		tst 5, __zfinitialise, __D0initialise
16	41	490	#line 41 "C:\Users\kjeld\Documents\GitHub\SaSeRoS-Team359\Object_detection\../initialise.h"
16	42	490		brtst 4, __NXC_Label_775, __zfinitialise
16	42	493	#line 42 "C:\Users\kjeld\Documents\GitHub\SaSeRoS-Team359\Object_detection\../initialise.h"
16	43	493		jmp __NXC_Label_774
16	42	495	#line 42 "C:\Users\kjeld\Documents\GitHub\SaSeRoS-Team359\Object_detection\../initialise.h"
16	42	495	#line 42 "C:\Users\kjeld\Documents\GitHub\SaSeRoS-Team359\Object_detection\../initialise.h"
16	43	495		set __ClearLine_7qG2_line_7qG2_000_inline_initialise, 1
16	42	498	#line 42 "C:\Users\kjeld\Documents\GitHub\SaSeRoS-Team359\Object_detection\../initialise.h"
16	6076	498	#line 6076 "NXCDefs.h"
16	6077	498	#pragma macro 7
16	6077	498		acquire __TextOutMutex
16	6077	499		mov __TextOutArgs.Location.X, __constVal0
16	6077	501		mov __TextOutArgs.Location.Y, __ClearLine_7qG2_line_7qG2_000_inline_initialise
16	6077	503		mov __TextOutArgs.Options, __constVal0
16	6077	505		mov __TextOutArgs.Text, __BlankLine
16	6077	507		syscall 13, __TextOutArgs
16	6077	510		release __TextOutMutex
16	9790	511	#line 9790 "NXCDefs.h"
16	6076	511	#line 6076 "NXCDefs.h"
16	43	511	#line 43 "C:\Users\kjeld\Documents\GitHub\SaSeRoS-Team359\Object_detection\../initialise.h"
16	43	511	#line 43 "C:\Users\kjeld\Documents\GitHub\SaSeRoS-Team359\Object_detection\../initialise.h"
16	44	511		set __signed_stack_001initialise, 0
16	43	514	#line 43 "C:\Users\kjeld\Documents\GitHub\SaSeRoS-Team359\Object_detection\../initialise.h"
16	43	514	#line 43 "C:\Users\kjeld\Documents\GitHub\SaSeRoS-Team359\Object_detection\../initialise.h"
16	44	514		set __signed_stack_002initialise, 1
16	43	517	#line 43 "C:\Users\kjeld\Documents\GitHub\SaSeRoS-Team359\Object_detection\../initialise.h"
16	43	517	#line 43 "C:\Users\kjeld\Documents\GitHub\SaSeRoS-Team359\Object_detection\../initialise.h"
16	44	517		strcat __strbufinitialise, __constStr0010
16	44	521	#line 44 "C:\Users\kjeld\Documents\GitHub\SaSeRoS-Team359\Object_detection\../initialise.h"
16	45	521		acquire __TextOutMutex
16	44	522	#line 44 "C:\Users\kjeld\Documents\GitHub\SaSeRoS-Team359\Object_detection\../initialise.h"
16	45	522		mov __TextOutArgs.Location.X, __signed_stack_001initialise
16	44	525	#line 44 "C:\Users\kjeld\Documents\GitHub\SaSeRoS-Team359\Object_detection\../initialise.h"
16	45	525		mov __TextOutArgs.Location.Y, __signed_stack_002initialise
16	44	528	#line 44 "C:\Users\kjeld\Documents\GitHub\SaSeRoS-Team359\Object_detection\../initialise.h"
16	45	528		set __TextOutArgs.Options, 0
16	44	531	#line 44 "C:\Users\kjeld\Documents\GitHub\SaSeRoS-Team359\Object_detection\../initialise.h"
16	45	531		mov __TextOutArgs.Text, __strbufinitialise
16	44	533	#line 44 "C:\Users\kjeld\Documents\GitHub\SaSeRoS-Team359\Object_detection\../initialise.h"
16	45	533		syscall 13, __TextOutArgs
16	44	536	#line 44 "C:\Users\kjeld\Documents\GitHub\SaSeRoS-Team359\Object_detection\../initialise.h"
16	45	536		mov __D0initialise, __TextOutArgs.Result
16	44	539	#line 44 "C:\Users\kjeld\Documents\GitHub\SaSeRoS-Team359\Object_detection\../initialise.h"
16	45	539		release __TextOutMutex
16	44	540	#line 44 "C:\Users\kjeld\Documents\GitHub\SaSeRoS-Team359\Object_detection\../initialise.h"
16	44	540	#line 44 "C:\Users\kjeld\Documents\GitHub\SaSeRoS-Team359\Object_detection\../initialise.h"
16	45	540		set __Wait_7qG2_ms_7qG2_000_inline_initialise, 5000
16	44	543	#line 44 "C:\Users\kjeld\Documents\GitHub\SaSeRoS-Team359\Object_detection\../initialise.h"
16	7921	543	#line 7921 "NXCDefs.h"
16	7922	543		wait 5000
16	7921	545	#line 7921 "NXCDefs.h"
16	45	545	#line 45 "C:\Users\kjeld\Documents\GitHub\SaSeRoS-Team359\Object_detection\../initialise.h"
16	45	545	#line 45 "C:\Users\kjeld\Documents\GitHub\SaSeRoS-Team359\Object_detection\../initialise.h"
16	46	545		set __ClearLine_7qG2_line_7qG2_000_inline_initialise, 1
16	45	548	#line 45 "C:\Users\kjeld\Documents\GitHub\SaSeRoS-Team359\Object_detection\../initialise.h"
16	6076	548	#line 6076 "NXCDefs.h"
16	6077	548	#pragma macro 7
16	6077	548		acquire __TextOutMutex
16	6077	549		mov __TextOutArgs.Location.X, __constVal0
16	6077	551		mov __TextOutArgs.Location.Y, __ClearLine_7qG2_line_7qG2_000_inline_initialise
16	6077	553		mov __TextOutArgs.Options, __constVal0
16	6077	555		mov __TextOutArgs.Text, __BlankLine
16	6077	557		syscall 13, __TextOutArgs
16	6077	560		release __TextOutMutex
16	9841	561	#line 9841 "NXCDefs.h"
16	6076	561	#line 6076 "NXCDefs.h"
16	46	561	#line 46 "C:\Users\kjeld\Documents\GitHub\SaSeRoS-Team359\Object_detection\../initialise.h"
16	46	561	#line 46 "C:\Users\kjeld\Documents\GitHub\SaSeRoS-Team359\Object_detection\../initialise.h"
16	47	561		set __signed_stack_001initialise, 0
16	46	564	#line 46 "C:\Users\kjeld\Documents\GitHub\SaSeRoS-Team359\Object_detection\../initialise.h"
16	46	564	#line 46 "C:\Users\kjeld\Documents\GitHub\SaSeRoS-Team359\Object_detection\../initialise.h"
16	47	564		set __signed_stack_002initialise, 1
16	46	567	#line 46 "C:\Users\kjeld\Documents\GitHub\SaSeRoS-Team359\Object_detection\../initialise.h"
16	46	567	#line 46 "C:\Users\kjeld\Documents\GitHub\SaSeRoS-Team359\Object_detection\../initialise.h"
16	47	567		strcat __strbufinitialise, __constStr0014
16	47	571	#line 47 "C:\Users\kjeld\Documents\GitHub\SaSeRoS-Team359\Object_detection\../initialise.h"
16	48	571		acquire __TextOutMutex
16	47	572	#line 47 "C:\Users\kjeld\Documents\GitHub\SaSeRoS-Team359\Object_detection\../initialise.h"
16	48	572		mov __TextOutArgs.Location.X, __signed_stack_001initialise
16	47	575	#line 47 "C:\Users\kjeld\Documents\GitHub\SaSeRoS-Team359\Object_detection\../initialise.h"
16	48	575		mov __TextOutArgs.Location.Y, __signed_stack_002initialise
16	47	578	#line 47 "C:\Users\kjeld\Documents\GitHub\SaSeRoS-Team359\Object_detection\../initialise.h"
16	48	578		set __TextOutArgs.Options, 0
16	47	581	#line 47 "C:\Users\kjeld\Documents\GitHub\SaSeRoS-Team359\Object_detection\../initialise.h"
16	48	581		mov __TextOutArgs.Text, __strbufinitialise
16	47	583	#line 47 "C:\Users\kjeld\Documents\GitHub\SaSeRoS-Team359\Object_detection\../initialise.h"
16	48	583		syscall 13, __TextOutArgs
16	47	586	#line 47 "C:\Users\kjeld\Documents\GitHub\SaSeRoS-Team359\Object_detection\../initialise.h"
16	48	586		mov __D0initialise, __TextOutArgs.Result
16	47	589	#line 47 "C:\Users\kjeld\Documents\GitHub\SaSeRoS-Team359\Object_detection\../initialise.h"
16	48	589		release __TextOutMutex
16	47	590	#line 47 "C:\Users\kjeld\Documents\GitHub\SaSeRoS-Team359\Object_detection\../initialise.h"
16	48	590	#line 48 "C:\Users\kjeld\Documents\GitHub\SaSeRoS-Team359\Object_detection\../initialise.h"
16	49	590		subret __initialise_return
17	16	0	#line 16 "C:\Users\kjeld\Documents\GitHub\SaSeRoS-Team359\Object_detection\../scanner.h"
17	17	0		set __signed_stack_001TurnTurret, 30
17	16	3	#line 16 "C:\Users\kjeld\Documents\GitHub\SaSeRoS-Team359\Object_detection\../scanner.h"
17	16	3	#line 16 "C:\Users\kjeld\Documents\GitHub\SaSeRoS-Team359\Object_detection\../scanner.h"
17	17	3		mov __D0TurnTurret, __TurnTurret_7qG2_deg_7qG2_000
17	17	5	#line 17 "C:\Users\kjeld\Documents\GitHub\SaSeRoS-Team359\Object_detection\../scanner.h"
17	18	5	#pragma macro 33
17	18	5		acquire __rotateMutex2
17	18	6		arrbuild __rotate_ports2, __constVal2
17	18	10		mov __rotate_power2, __signed_stack_001TurnTurret
17	18	12		mov __rotate_angle2, __D0TurnTurret
17	18	14		mov __rotate_turnpct2, __constVal0
17	18	16		mov __rotate_sync2, __constVal0
17	18	18		mov __rotate_stop2, __constVal1
17	18	20		mov __rotate_theRVP2, __constVal32
17	18	22		mov __rotate_theRVI2, __constVal0
17	18	24		mov __rotate_theRVD2, __constVal96
17	18	26		subcall __RotateMotor2, ____RotateMotor2_return
17	18	29		release __rotateMutex2
17	9903	30	#line 9903 "C:\Users\kjeld\Documents\GitHub\SaSeRoS-Team359\Object_detection\../scanner.h"
17	17	30	#line 17 "C:\Users\kjeld\Documents\GitHub\SaSeRoS-Team359\Object_detection\../scanner.h"
17	18	30	#line 18 "C:\Users\kjeld\Documents\GitHub\SaSeRoS-Team359\Object_detection\../scanner.h"
17	18	30	#line 18 "C:\Users\kjeld\Documents\GitHub\SaSeRoS-Team359\Object_detection\../scanner.h"
17	18	30	#line 18 "C:\Users\kjeld\Documents\GitHub\SaSeRoS-Team359\Object_detection\../scanner.h"
17	20	30	#line 20 "C:\Users\kjeld\Documents\GitHub\SaSeRoS-Team359\Object_detection\../scanner.h"
17	21	30		subret __TurnTurret_return
18	28	0	#line 28 "C:\Users\kjeld\Documents\GitHub\SaSeRoS-Team359\Object_detection\../scanner.h"
18	29	0		mov __TurnTurret_7qG2_deg_7qG2_000, __CheckDirection_7qG2_dir_7qG2_000
18	28	2	#line 28 "C:\Users\kjeld\Documents\GitHub\SaSeRoS-Team359\Object_detection\../scanner.h"
18	29	2	#line 29 "C:\Users\kjeld\Documents\GitHub\SaSeRoS-Team359\Object_detection\../scanner.h"
18	30	2		subcall TurnTurret, __TurnTurret_return
18	29	4	#line 29 "C:\Users\kjeld\Documents\GitHub\SaSeRoS-Team359\Object_detection\../scanner.h"
18	29	4	#line 29 "C:\Users\kjeld\Documents\GitHub\SaSeRoS-Team359\Object_detection\../scanner.h"
18	29	4	#line 29 "C:\Users\kjeld\Documents\GitHub\SaSeRoS-Team359\Object_detection\../scanner.h"
18	7921	4	#line 7921 "NXCDefs.h"
18	7922	4		wait 300
18	7921	6	#line 7921 "NXCDefs.h"
18	30	6	#line 30 "C:\Users\kjeld\Documents\GitHub\SaSeRoS-Team359\Object_detection\../scanner.h"
18	30	6	#line 30 "C:\Users\kjeld\Documents\GitHub\SaSeRoS-Team359\Object_detection\../scanner.h"
18	31	6	#pragma macro 26
18	31	6		acquire __RLSBmutex3
18	31	7		mov __RLSReadBuf3, __RLSBbufLSWrite1
18	31	9		set __RLSBytesCount3, 1
18	31	12		wait 15
18	31	14		subcall __ReadLSBytes3, ____ReadLSBytes3_return
18	31	17		index __D0CheckDirection, __RLSReadBuf3, 65535
18	31	21		release __RLSBmutex3
18	9976	22	#line 9976 "C:\Users\kjeld\Documents\GitHub\SaSeRoS-Team359\Object_detection\../scanner.h"
18	30	22	#line 30 "C:\Users\kjeld\Documents\GitHub\SaSeRoS-Team359\Object_detection\../scanner.h"
18	31	22		mov __signed_stack_001CheckDirection, __D0CheckDirection
18	30	24	#line 30 "C:\Users\kjeld\Documents\GitHub\SaSeRoS-Team359\Object_detection\../scanner.h"
18	31	24		set __D0CheckDirection, 30
18	30	27	#line 30 "C:\Users\kjeld\Documents\GitHub\SaSeRoS-Team359\Object_detection\../scanner.h"
18	31	27		cmp 1, __zfCheckDirection, __signed_stack_001CheckDirection, __D0CheckDirection
18	30	31	#line 30 "C:\Users\kjeld\Documents\GitHub\SaSeRoS-Team359\Object_detection\../scanner.h"
18	31	31		mov __D0CheckDirection, __zfCheckDirection
18	31	33	#line 31 "C:\Users\kjeld\Documents\GitHub\SaSeRoS-Team359\Object_detection\../scanner.h"
18	32	33		brtst 4, __NXC_Label_818, __zfCheckDirection
18	31	36	#line 31 "C:\Users\kjeld\Documents\GitHub\SaSeRoS-Team359\Object_detection\../scanner.h"
18	31	36	#line 31 "C:\Users\kjeld\Documents\GitHub\SaSeRoS-Team359\Object_detection\../scanner.h"
18	31	36	#line 31 "C:\Users\kjeld\Documents\GitHub\SaSeRoS-Team359\Object_detection\../scanner.h"
18	31	36	#line 31 "C:\Users\kjeld\Documents\GitHub\SaSeRoS-Team359\Object_detection\../scanner.h"
18	32	36		sub __TurnTurret_7qG2_deg_7qG2_000, __constVal0, __CheckDirection_7qG2_dir_7qG2_000
18	31	40	#line 31 "C:\Users\kjeld\Documents\GitHub\SaSeRoS-Team359\Object_detection\../scanner.h"
18	32	40	#line 32 "C:\Users\kjeld\Documents\GitHub\SaSeRoS-Team359\Object_detection\../scanner.h"
18	33	40		subcall TurnTurret, __TurnTurret_return
18	32	42	#line 32 "C:\Users\kjeld\Documents\GitHub\SaSeRoS-Team359\Object_detection\../scanner.h"
18	33	42	#line 33 "C:\Users\kjeld\Documents\GitHub\SaSeRoS-Team359\Object_detection\../scanner.h"
18	34	42		set __DU0CheckDirection, 1
18	33	45	#line 33 "C:\Users\kjeld\Documents\GitHub\SaSeRoS-Team359\Object_detection\../scanner.h"
18	33	45	#line 33 "C:\Users\kjeld\Documents\GitHub\SaSeRoS-Team359\Object_detection\../scanner.h"
18	34	45		subret __CheckDirection_return
18	33	47	#line 33 "C:\Users\kjeld\Documents\GitHub\SaSeRoS-Team359\Object_detection\../scanner.h"
18	35	47	#line 35 "C:\Users\kjeld\Documents\GitHub\SaSeRoS-Team359\Object_detection\../scanner.h"
18	36	47		jmp __NXC_Label_823
18	35	49	#line 35 "C:\Users\kjeld\Documents\GitHub\SaSeRoS-Team359\Object_detection\../scanner.h"
18	35	49	#line 35 "C:\Users\kjeld\Documents\GitHub\SaSeRoS-Team359\Object_detection\../scanner.h"
18	35	49	#line 35 "C:\Users\kjeld\Documents\GitHub\SaSeRoS-Team359\Object_detection\../scanner.h"
18	35	49	#line 35 "C:\Users\kjeld\Documents\GitHub\SaSeRoS-Team359\Object_detection\../scanner.h"
18	36	49		sub __TurnTurret_7qG2_deg_7qG2_000, __constVal0, __CheckDirection_7qG2_dir_7qG2_000
18	35	53	#line 35 "C:\Users\kjeld\Documents\GitHub\SaSeRoS-Team359\Object_detection\../scanner.h"
18	36	53	#line 36 "C:\Users\kjeld\Documents\GitHub\SaSeRoS-Team359\Object_detection\../scanner.h"
18	37	53		subcall TurnTurret, __TurnTurret_return
18	36	55	#line 36 "C:\Users\kjeld\Documents\GitHub\SaSeRoS-Team359\Object_detection\../scanner.h"
18	37	55	#line 37 "C:\Users\kjeld\Documents\GitHub\SaSeRoS-Team359\Object_detection\../scanner.h"
18	38	55		set __DU0CheckDirection, 0
18	37	58	#line 37 "C:\Users\kjeld\Documents\GitHub\SaSeRoS-Team359\Object_detection\../scanner.h"
18	37	58	#line 37 "C:\Users\kjeld\Documents\GitHub\SaSeRoS-Team359\Object_detection\../scanner.h"
18	38	58		subret __CheckDirection_return
18	37	60	#line 37 "C:\Users\kjeld\Documents\GitHub\SaSeRoS-Team359\Object_detection\../scanner.h"
18	43	60	#line 43 "C:\Users\kjeld\Documents\GitHub\SaSeRoS-Team359\Object_detection\../scanner.h"
18	43	60	#line 43 "C:\Users\kjeld\Documents\GitHub\SaSeRoS-Team359\Object_detection\../scanner.h"
18	44	60		subret __CheckDirection_return
19	8	0	#line 8 "C:\Users\kjeld\Documents\GitHub\SaSeRoS-Team359\Object_detection\../object_detection.h"
19	9	0	#pragma macro 4
19	9	0		syscall 24, __RandomArgs
19	10302	3	#line 10302 "C:\Users\kjeld\Documents\GitHub\SaSeRoS-Team359\Object_detection\../object_detection.h"
19	8	3	#line 8 "C:\Users\kjeld\Documents\GitHub\SaSeRoS-Team359\Object_detection\../object_detection.h"
19	8	3	#line 8 "C:\Users\kjeld\Documents\GitHub\SaSeRoS-Team359\Object_detection\../object_detection.h"
19	8	3	#line 8 "C:\Users\kjeld\Documents\GitHub\SaSeRoS-Team359\Object_detection\../object_detection.h"
19	9	3		mod __Random_Angle_7qG2_x_7qG2_000, __RandomArgs.Result, __constVal360
19	9	7	#line 9 "C:\Users\kjeld\Documents\GitHub\SaSeRoS-Team359\Object_detection\../object_detection.h"
19	9	7	#line 9 "C:\Users\kjeld\Documents\GitHub\SaSeRoS-Team359\Object_detection\../object_detection.h"
19	10	7	#line 10 "C:\Users\kjeld\Documents\GitHub\SaSeRoS-Team359\Object_detection\../object_detection.h"
19	10	7	#line 10 "C:\Users\kjeld\Documents\GitHub\SaSeRoS-Team359\Object_detection\../object_detection.h"
19	11	7		sub __Random_Angle_7qG2_x_7qG2_000, __Random_Angle_7qG2_x_7qG2_000, __constVal180
19	10	11	#line 10 "C:\Users\kjeld\Documents\GitHub\SaSeRoS-Team359\Object_detection\../object_detection.h"
19	11	11	#line 11 "C:\Users\kjeld\Documents\GitHub\SaSeRoS-Team359\Object_detection\../object_detection.h"
19	12	11		mov __D0Random_Angle, __Random_Angle_7qG2_x_7qG2_000
19	11	13	#line 11 "C:\Users\kjeld\Documents\GitHub\SaSeRoS-Team359\Object_detection\../object_detection.h"
19	12	13		subret __Random_Angle_return
19	11	15	#line 11 "C:\Users\kjeld\Documents\GitHub\SaSeRoS-Team359\Object_detection\../object_detection.h"
19	13	15	#line 13 "C:\Users\kjeld\Documents\GitHub\SaSeRoS-Team359\Object_detection\../object_detection.h"
19	14	15		subret __Random_Angle_return
20	14	0	#line 14 "C:\Users\kjeld\Documents\GitHub\SaSeRoS-Team359\Object_detection\../object_detection.h"
20	14	0	#line 14 "C:\Users\kjeld\Documents\GitHub\SaSeRoS-Team359\Object_detection\../object_detection.h"
20	15	0		not __DU0Look_Back, reverse
20	15	3	#line 15 "C:\Users\kjeld\Documents\GitHub\SaSeRoS-Team359\Object_detection\../object_detection.h"
20	16	3		tst 5, __zfLook_Back, __DU0Look_Back
20	15	6	#line 15 "C:\Users\kjeld\Documents\GitHub\SaSeRoS-Team359\Object_detection\../object_detection.h"
20	16	6		brtst 4, __NXC_Label_862, __zfLook_Back
20	15	9	#line 15 "C:\Users\kjeld\Documents\GitHub\SaSeRoS-Team359\Object_detection\../object_detection.h"
20	16	9		getin __D0Look_Back, __constVal2, 4
20	15	13	#line 15 "C:\Users\kjeld\Documents\GitHub\SaSeRoS-Team359\Object_detection\../object_detection.h"
20	16	13		not __D0Look_Back, __D0Look_Back
20	16	16	#line 16 "C:\Users\kjeld\Documents\GitHub\SaSeRoS-Team359\Object_detection\../object_detection.h"
20	17	16		tst 5, __zfLook_Back, __D0Look_Back
20	16	19	#line 16 "C:\Users\kjeld\Documents\GitHub\SaSeRoS-Team359\Object_detection\../object_detection.h"
20	17	19		brtst 4, __NXC_Label_867, __zfLook_Back
20	17	22	#line 17 "C:\Users\kjeld\Documents\GitHub\SaSeRoS-Team359\Object_detection\../object_detection.h"
20	18	22		subcall Stop_Driving, __Stop_Driving_return
20	17	24	#line 17 "C:\Users\kjeld\Documents\GitHub\SaSeRoS-Team359\Object_detection\../object_detection.h"
20	17	24	#line 17 "C:\Users\kjeld\Documents\GitHub\SaSeRoS-Team359\Object_detection\../object_detection.h"
20	18	24		set __Drive_Backward_7qG2_pwr_7qG2_000, 50
20	17	27	#line 17 "C:\Users\kjeld\Documents\GitHub\SaSeRoS-Team359\Object_detection\../object_detection.h"
20	19	27	#line 19 "C:\Users\kjeld\Documents\GitHub\SaSeRoS-Team359\Object_detection\../object_detection.h"
20	20	27		subcall Drive_Backward, __Drive_Backward_return
20	19	29	#line 19 "C:\Users\kjeld\Documents\GitHub\SaSeRoS-Team359\Object_detection\../object_detection.h"
20	19	29	#line 19 "C:\Users\kjeld\Documents\GitHub\SaSeRoS-Team359\Object_detection\../object_detection.h"
20	19	29	#line 19 "C:\Users\kjeld\Documents\GitHub\SaSeRoS-Team359\Object_detection\../object_detection.h"
20	7921	29	#line 7921 "NXCDefs.h"
20	7922	29		wait 1000
20	7921	31	#line 7921 "NXCDefs.h"
20	20	31	#line 20 "C:\Users\kjeld\Documents\GitHub\SaSeRoS-Team359\Object_detection\../object_detection.h"
20	21	31	#line 21 "C:\Users\kjeld\Documents\GitHub\SaSeRoS-Team359\Object_detection\../object_detection.h"
20	22	31		subcall Stop_Driving, __Stop_Driving_return
20	21	33	#line 21 "C:\Users\kjeld\Documents\GitHub\SaSeRoS-Team359\Object_detection\../object_detection.h"
20	21	33	#line 21 "C:\Users\kjeld\Documents\GitHub\SaSeRoS-Team359\Object_detection\../object_detection.h"
20	22	33		set __Drive_Forward_7qG2_pwr_7qG2_000, 50
20	21	36	#line 21 "C:\Users\kjeld\Documents\GitHub\SaSeRoS-Team359\Object_detection\../object_detection.h"
20	22	36	#line 22 "C:\Users\kjeld\Documents\GitHub\SaSeRoS-Team359\Object_detection\../object_detection.h"
20	23	36		subcall Drive_Forward, __Drive_Forward_return
20	22	38	#line 22 "C:\Users\kjeld\Documents\GitHub\SaSeRoS-Team359\Object_detection\../object_detection.h"
20	24	38	#line 24 "C:\Users\kjeld\Documents\GitHub\SaSeRoS-Team359\Object_detection\../object_detection.h"
20	24	38	#line 24 "C:\Users\kjeld\Documents\GitHub\SaSeRoS-Team359\Object_detection\../object_detection.h"
20	25	38		jmp __NXC_Label_861
20	24	40	#line 24 "C:\Users\kjeld\Documents\GitHub\SaSeRoS-Team359\Object_detection\../object_detection.h"
20	24	40	#line 24 "C:\Users\kjeld\Documents\GitHub\SaSeRoS-Team359\Object_detection\../object_detection.h"
20	25	40		mov __DU0Look_Back, reverse
20	25	42	#line 25 "C:\Users\kjeld\Documents\GitHub\SaSeRoS-Team359\Object_detection\../object_detection.h"
20	26	42		tst 5, __zfLook_Back, __DU0Look_Back
20	25	45	#line 25 "C:\Users\kjeld\Documents\GitHub\SaSeRoS-Team359\Object_detection\../object_detection.h"
20	26	45		brtst 4, __NXC_Label_875, __zfLook_Back
20	25	48	#line 25 "C:\Users\kjeld\Documents\GitHub\SaSeRoS-Team359\Object_detection\../object_detection.h"
20	26	48		getin __D0Look_Back, __constVal2, 4
20	25	52	#line 25 "C:\Users\kjeld\Documents\GitHub\SaSeRoS-Team359\Object_detection\../object_detection.h"
20	26	52		not __D0Look_Back, __D0Look_Back
20	26	55	#line 26 "C:\Users\kjeld\Documents\GitHub\SaSeRoS-Team359\Object_detection\../object_detection.h"
20	27	55		tst 5, __zfLook_Back, __D0Look_Back
20	26	58	#line 26 "C:\Users\kjeld\Documents\GitHub\SaSeRoS-Team359\Object_detection\../object_detection.h"
20	27	58		brtst 4, __NXC_Label_880, __zfLook_Back
20	27	61	#line 27 "C:\Users\kjeld\Documents\GitHub\SaSeRoS-Team359\Object_detection\../object_detection.h"
20	28	61		set stuck, 1
20	27	64	#line 27 "C:\Users\kjeld\Documents\GitHub\SaSeRoS-Team359\Object_detection\../object_detection.h"
20	27	64	#line 27 "C:\Users\kjeld\Documents\GitHub\SaSeRoS-Team359\Object_detection\../object_detection.h"
20	27	64	#line 27 "C:\Users\kjeld\Documents\GitHub\SaSeRoS-Team359\Object_detection\../object_detection.h"
20	28	64		set __signed_stack_001Look_Back, 1
20	27	67	#line 27 "C:\Users\kjeld\Documents\GitHub\SaSeRoS-Team359\Object_detection\../object_detection.h"
20	27	67	#line 27 "C:\Users\kjeld\Documents\GitHub\SaSeRoS-Team359\Object_detection\../object_detection.h"
20	28	67		set __signed_stack_002Look_Back, 1
20	27	70	#line 27 "C:\Users\kjeld\Documents\GitHub\SaSeRoS-Team359\Object_detection\../object_detection.h"
20	27	70	#line 27 "C:\Users\kjeld\Documents\GitHub\SaSeRoS-Team359\Object_detection\../object_detection.h"
20	28	70		strcat __strbufLook_Back, __constStr0015
20	28	74	#line 28 "C:\Users\kjeld\Documents\GitHub\SaSeRoS-Team359\Object_detection\../object_detection.h"
20	29	74		acquire __TextOutMutex
20	28	75	#line 28 "C:\Users\kjeld\Documents\GitHub\SaSeRoS-Team359\Object_detection\../object_detection.h"
20	29	75		mov __TextOutArgs.Location.X, __signed_stack_001Look_Back
20	28	78	#line 28 "C:\Users\kjeld\Documents\GitHub\SaSeRoS-Team359\Object_detection\../object_detection.h"
20	29	78		mov __TextOutArgs.Location.Y, __signed_stack_002Look_Back
20	28	81	#line 28 "C:\Users\kjeld\Documents\GitHub\SaSeRoS-Team359\Object_detection\../object_detection.h"
20	29	81		set __TextOutArgs.Options, 0
20	28	84	#line 28 "C:\Users\kjeld\Documents\GitHub\SaSeRoS-Team359\Object_detection\../object_detection.h"
20	29	84		mov __TextOutArgs.Text, __strbufLook_Back
20	28	86	#line 28 "C:\Users\kjeld\Documents\GitHub\SaSeRoS-Team359\Object_detection\../object_detection.h"
20	29	86		syscall 13, __TextOutArgs
20	28	89	#line 28 "C:\Users\kjeld\Documents\GitHub\SaSeRoS-Team359\Object_detection\../object_detection.h"
20	29	89		mov __D0Look_Back, __TextOutArgs.Result
20	28	92	#line 28 "C:\Users\kjeld\Documents\GitHub\SaSeRoS-Team359\Object_detection\../object_detection.h"
20	29	92		release __TextOutMutex
20	28	93	#line 28 "C:\Users\kjeld\Documents\GitHub\SaSeRoS-Team359\Object_detection\../object_detection.h"
20	30	93	#line 30 "C:\Users\kjeld\Documents\GitHub\SaSeRoS-Team359\Object_detection\../object_detection.h"
20	32	93	#line 32 "C:\Users\kjeld\Documents\GitHub\SaSeRoS-Team359\Object_detection\../object_detection.h"
20	33	93		jmp __NXC_Label_874
20	32	95	#line 32 "C:\Users\kjeld\Documents\GitHub\SaSeRoS-Team359\Object_detection\../object_detection.h"
20	33	95		exit -1, -1
21	33	0	#line 33 "C:\Users\kjeld\Documents\GitHub\SaSeRoS-Team359\Object_detection\../object_detection.h"
21	33	0	#line 33 "C:\Users\kjeld\Documents\GitHub\SaSeRoS-Team359\Object_detection\../object_detection.h"
21	34	0		not __DU0Object_Detection, stuck
21	34	3	#line 34 "C:\Users\kjeld\Documents\GitHub\SaSeRoS-Team359\Object_detection\../object_detection.h"
21	35	3		tst 5, __zfObject_Detection, __DU0Object_Detection
21	34	6	#line 34 "C:\Users\kjeld\Documents\GitHub\SaSeRoS-Team359\Object_detection\../object_detection.h"
21	35	6		brtst 4, __NXC_Label_888, __zfObject_Detection
21	34	9	#line 34 "C:\Users\kjeld\Documents\GitHub\SaSeRoS-Team359\Object_detection\../object_detection.h"
21	35	9	#pragma macro 26
21	35	9		acquire __RLSBmutex3
21	35	10		mov __RLSReadBuf3, __RLSBbufLSWrite1
21	35	12		set __RLSBytesCount3, 1
21	35	15		wait 15
21	35	17		subcall __ReadLSBytes3, ____ReadLSBytes3_return
21	35	20		index __D0Object_Detection, __RLSReadBuf3, 65535
21	35	24		release __RLSBmutex3
21	10478	25	#line 10478 "C:\Users\kjeld\Documents\GitHub\SaSeRoS-Team359\Object_detection\../object_detection.h"
21	34	25	#line 34 "C:\Users\kjeld\Documents\GitHub\SaSeRoS-Team359\Object_detection\../object_detection.h"
21	35	25		mov __signed_stack_001Object_Detection, __D0Object_Detection
21	34	27	#line 34 "C:\Users\kjeld\Documents\GitHub\SaSeRoS-Team359\Object_detection\../object_detection.h"
21	35	27		set __D0Object_Detection, 30
21	34	30	#line 34 "C:\Users\kjeld\Documents\GitHub\SaSeRoS-Team359\Object_detection\../object_detection.h"
21	35	30		cmp 0, __zfObject_Detection, __signed_stack_001Object_Detection, __D0Object_Detection
21	34	34	#line 34 "C:\Users\kjeld\Documents\GitHub\SaSeRoS-Team359\Object_detection\../object_detection.h"
21	35	34		mov __D0Object_Detection, __zfObject_Detection
21	35	37	#line 35 "C:\Users\kjeld\Documents\GitHub\SaSeRoS-Team359\Object_detection\../object_detection.h"
21	36	37		brtst 4, __NXC_Label_893, __zfObject_Detection
21	36	40	#line 36 "C:\Users\kjeld\Documents\GitHub\SaSeRoS-Team359\Object_detection\../object_detection.h"
21	37	40		subcall Stop_Driving, __Stop_Driving_return
21	36	42	#line 36 "C:\Users\kjeld\Documents\GitHub\SaSeRoS-Team359\Object_detection\../object_detection.h"
21	36	42	#line 36 "C:\Users\kjeld\Documents\GitHub\SaSeRoS-Team359\Object_detection\../object_detection.h"
21	37	42		mov __DU0Object_Detection, direction
21	37	44	#line 37 "C:\Users\kjeld\Documents\GitHub\SaSeRoS-Team359\Object_detection\../object_detection.h"
21	38	44		tst 5, __zfObject_Detection, __DU0Object_Detection
21	37	47	#line 37 "C:\Users\kjeld\Documents\GitHub\SaSeRoS-Team359\Object_detection\../object_detection.h"
21	38	47		brtst 4, __NXC_Label_895, __zfObject_Detection
21	38	50	#line 38 "C:\Users\kjeld\Documents\GitHub\SaSeRoS-Team359\Object_detection\../object_detection.h"
21	39	50		subcall Random_Angle, __Random_Angle_return
21	38	52	#line 38 "C:\Users\kjeld\Documents\GitHub\SaSeRoS-Team359\Object_detection\../object_detection.h"
21	39	52		mov angle, __D0Random_Angle
21	38	54	#line 38 "C:\Users\kjeld\Documents\GitHub\SaSeRoS-Team359\Object_detection\../object_detection.h"
21	38	54	#line 38 "C:\Users\kjeld\Documents\GitHub\SaSeRoS-Team359\Object_detection\../object_detection.h"
21	38	54	#line 38 "C:\Users\kjeld\Documents\GitHub\SaSeRoS-Team359\Object_detection\../object_detection.h"
21	39	54		mov __CheckDirection_7qG2_dir_7qG2_000, __D0Random_Angle
21	38	56	#line 38 "C:\Users\kjeld\Documents\GitHub\SaSeRoS-Team359\Object_detection\../object_detection.h"
21	39	56	#line 39 "C:\Users\kjeld\Documents\GitHub\SaSeRoS-Team359\Object_detection\../object_detection.h"
21	40	56		subcall CheckDirection, __CheckDirection_return
21	39	58	#line 39 "C:\Users\kjeld\Documents\GitHub\SaSeRoS-Team359\Object_detection\../object_detection.h"
21	39	58	#line 39 "C:\Users\kjeld\Documents\GitHub\SaSeRoS-Team359\Object_detection\../object_detection.h"
21	40	58		not direction, __DU0CheckDirection
21	39	61	#line 39 "C:\Users\kjeld\Documents\GitHub\SaSeRoS-Team359\Object_detection\../object_detection.h"
21	39	61	#line 39 "C:\Users\kjeld\Documents\GitHub\SaSeRoS-Team359\Object_detection\../object_detection.h"
21	42	61	#line 42 "C:\Users\kjeld\Documents\GitHub\SaSeRoS-Team359\Object_detection\../object_detection.h"
21	43	61		jmp __NXC_Label_894
21	42	63	#line 42 "C:\Users\kjeld\Documents\GitHub\SaSeRoS-Team359\Object_detection\../object_detection.h"
21	42	63	#line 42 "C:\Users\kjeld\Documents\GitHub\SaSeRoS-Team359\Object_detection\../object_detection.h"
21	43	63		mov __TurnRobot_7qG2_deg_7qG2_000, angle
21	42	65	#line 42 "C:\Users\kjeld\Documents\GitHub\SaSeRoS-Team359\Object_detection\../object_detection.h"
21	42	65	#line 42 "C:\Users\kjeld\Documents\GitHub\SaSeRoS-Team359\Object_detection\../object_detection.h"
21	43	65		set __TurnRobot_7qG2_pwr_7qG2_000, 50
21	42	68	#line 42 "C:\Users\kjeld\Documents\GitHub\SaSeRoS-Team359\Object_detection\../object_detection.h"
21	43	68	#line 43 "C:\Users\kjeld\Documents\GitHub\SaSeRoS-Team359\Object_detection\../object_detection.h"
21	44	68		subcall TurnRobot, __TurnRobot_return
21	43	70	#line 43 "C:\Users\kjeld\Documents\GitHub\SaSeRoS-Team359\Object_detection\../object_detection.h"
21	43	70	#line 43 "C:\Users\kjeld\Documents\GitHub\SaSeRoS-Team359\Object_detection\../object_detection.h"
21	44	70		set __Drive_Forward_7qG2_pwr_7qG2_000, 50
21	43	73	#line 43 "C:\Users\kjeld\Documents\GitHub\SaSeRoS-Team359\Object_detection\../object_detection.h"
21	44	73	#line 44 "C:\Users\kjeld\Documents\GitHub\SaSeRoS-Team359\Object_detection\../object_detection.h"
21	45	73		subcall Drive_Forward, __Drive_Forward_return
21	44	75	#line 44 "C:\Users\kjeld\Documents\GitHub\SaSeRoS-Team359\Object_detection\../object_detection.h"
21	45	75	#line 45 "C:\Users\kjeld\Documents\GitHub\SaSeRoS-Team359\Object_detection\../object_detection.h"
21	46	75		set direction, 1
21	45	78	#line 45 "C:\Users\kjeld\Documents\GitHub\SaSeRoS-Team359\Object_detection\../object_detection.h"
21	45	78	#line 45 "C:\Users\kjeld\Documents\GitHub\SaSeRoS-Team359\Object_detection\../object_detection.h"
21	46	78	#line 46 "C:\Users\kjeld\Documents\GitHub\SaSeRoS-Team359\Object_detection\../object_detection.h"
21	47	78		subcall ShortBeep, __ShortBeep_return
21	46	80	#line 46 "C:\Users\kjeld\Documents\GitHub\SaSeRoS-Team359\Object_detection\../object_detection.h"
21	47	80	#line 47 "C:\Users\kjeld\Documents\GitHub\SaSeRoS-Team359\Object_detection\../object_detection.h"
21	47	80	#line 47 "C:\Users\kjeld\Documents\GitHub\SaSeRoS-Team359\Object_detection\../object_detection.h"
21	48	80		getin __D0Object_Detection, __constVal0, 4
21	47	84	#line 47 "C:\Users\kjeld\Documents\GitHub\SaSeRoS-Team359\Object_detection\../object_detection.h"
21	48	84		not __D0Object_Detection, __D0Object_Detection
21	48	87	#line 48 "C:\Users\kjeld\Documents\GitHub\SaSeRoS-Team359\Object_detection\../object_detection.h"
21	49	87		tst 5, __zfObject_Detection, __D0Object_Detection
21	48	90	#line 48 "C:\Users\kjeld\Documents\GitHub\SaSeRoS-Team359\Object_detection\../object_detection.h"
21	49	90		brtst 4, __NXC_Label_914, __zfObject_Detection
21	49	93	#line 49 "C:\Users\kjeld\Documents\GitHub\SaSeRoS-Team359\Object_detection\../object_detection.h"
21	50	93		subcall Stop_Driving, __Stop_Driving_return
21	49	95	#line 49 "C:\Users\kjeld\Documents\GitHub\SaSeRoS-Team359\Object_detection\../object_detection.h"
21	50	95	#line 50 "C:\Users\kjeld\Documents\GitHub\SaSeRoS-Team359\Object_detection\../object_detection.h"
21	51	95		set reverse, 1
21	50	98	#line 50 "C:\Users\kjeld\Documents\GitHub\SaSeRoS-Team359\Object_detection\../object_detection.h"
21	50	98	#line 50 "C:\Users\kjeld\Documents\GitHub\SaSeRoS-Team359\Object_detection\../object_detection.h"
21	50	98	#line 50 "C:\Users\kjeld\Documents\GitHub\SaSeRoS-Team359\Object_detection\../object_detection.h"
21	51	98		set __Drive_Backward_7qG2_pwr_7qG2_000, 50
21	50	101	#line 50 "C:\Users\kjeld\Documents\GitHub\SaSeRoS-Team359\Object_detection\../object_detection.h"
21	51	101	#line 51 "C:\Users\kjeld\Documents\GitHub\SaSeRoS-Team359\Object_detection\../object_detection.h"
21	52	101		subcall Drive_Backward, __Drive_Backward_return
21	51	103	#line 51 "C:\Users\kjeld\Documents\GitHub\SaSeRoS-Team359\Object_detection\../object_detection.h"
21	51	103	#line 51 "C:\Users\kjeld\Documents\GitHub\SaSeRoS-Team359\Object_detection\../object_detection.h"
21	51	103	#line 51 "C:\Users\kjeld\Documents\GitHub\SaSeRoS-Team359\Object_detection\../object_detection.h"
21	7921	103	#line 7921 "NXCDefs.h"
21	7922	103		wait 1000
21	7921	105	#line 7921 "NXCDefs.h"
21	52	105	#line 52 "C:\Users\kjeld\Documents\GitHub\SaSeRoS-Team359\Object_detection\../object_detection.h"
21	53	105	#line 53 "C:\Users\kjeld\Documents\GitHub\SaSeRoS-Team359\Object_detection\../object_detection.h"
21	54	105		subcall Stop_Driving, __Stop_Driving_return
21	53	107	#line 53 "C:\Users\kjeld\Documents\GitHub\SaSeRoS-Team359\Object_detection\../object_detection.h"
21	54	107	#line 54 "C:\Users\kjeld\Documents\GitHub\SaSeRoS-Team359\Object_detection\../object_detection.h"
21	55	107		set reverse, 0
21	54	110	#line 54 "C:\Users\kjeld\Documents\GitHub\SaSeRoS-Team359\Object_detection\../object_detection.h"
21	54	110	#line 54 "C:\Users\kjeld\Documents\GitHub\SaSeRoS-Team359\Object_detection\../object_detection.h"
21	54	110	#line 54 "C:\Users\kjeld\Documents\GitHub\SaSeRoS-Team359\Object_detection\../object_detection.h"
21	55	110		mov __DU0Object_Detection, direction
21	55	112	#line 55 "C:\Users\kjeld\Documents\GitHub\SaSeRoS-Team359\Object_detection\../object_detection.h"
21	56	112		tst 5, __zfObject_Detection, __DU0Object_Detection
21	55	115	#line 55 "C:\Users\kjeld\Documents\GitHub\SaSeRoS-Team359\Object_detection\../object_detection.h"
21	56	115		brtst 4, __NXC_Label_924, __zfObject_Detection
21	56	118	#line 56 "C:\Users\kjeld\Documents\GitHub\SaSeRoS-Team359\Object_detection\../object_detection.h"
21	57	118		subcall Random_Angle, __Random_Angle_return
21	56	120	#line 56 "C:\Users\kjeld\Documents\GitHub\SaSeRoS-Team359\Object_detection\../object_detection.h"
21	57	120		mov angle, __D0Random_Angle
21	56	122	#line 56 "C:\Users\kjeld\Documents\GitHub\SaSeRoS-Team359\Object_detection\../object_detection.h"
21	56	122	#line 56 "C:\Users\kjeld\Documents\GitHub\SaSeRoS-Team359\Object_detection\../object_detection.h"
21	56	122	#line 56 "C:\Users\kjeld\Documents\GitHub\SaSeRoS-Team359\Object_detection\../object_detection.h"
21	57	122		mov __CheckDirection_7qG2_dir_7qG2_000, __D0Random_Angle
21	56	124	#line 56 "C:\Users\kjeld\Documents\GitHub\SaSeRoS-Team359\Object_detection\../object_detection.h"
21	57	124	#line 57 "C:\Users\kjeld\Documents\GitHub\SaSeRoS-Team359\Object_detection\../object_detection.h"
21	58	124		subcall CheckDirection, __CheckDirection_return
21	57	126	#line 57 "C:\Users\kjeld\Documents\GitHub\SaSeRoS-Team359\Object_detection\../object_detection.h"
21	57	126	#line 57 "C:\Users\kjeld\Documents\GitHub\SaSeRoS-Team359\Object_detection\../object_detection.h"
21	58	126		not direction, __DU0CheckDirection
21	57	129	#line 57 "C:\Users\kjeld\Documents\GitHub\SaSeRoS-Team359\Object_detection\../object_detection.h"
21	57	129	#line 57 "C:\Users\kjeld\Documents\GitHub\SaSeRoS-Team359\Object_detection\../object_detection.h"
21	60	129	#line 60 "C:\Users\kjeld\Documents\GitHub\SaSeRoS-Team359\Object_detection\../object_detection.h"
21	61	129		jmp __NXC_Label_923
21	60	131	#line 60 "C:\Users\kjeld\Documents\GitHub\SaSeRoS-Team359\Object_detection\../object_detection.h"
21	60	131	#line 60 "C:\Users\kjeld\Documents\GitHub\SaSeRoS-Team359\Object_detection\../object_detection.h"
21	61	131		mov __TurnRobot_7qG2_deg_7qG2_000, angle
21	60	133	#line 60 "C:\Users\kjeld\Documents\GitHub\SaSeRoS-Team359\Object_detection\../object_detection.h"
21	60	133	#line 60 "C:\Users\kjeld\Documents\GitHub\SaSeRoS-Team359\Object_detection\../object_detection.h"
21	61	133		set __TurnRobot_7qG2_pwr_7qG2_000, 50
21	60	136	#line 60 "C:\Users\kjeld\Documents\GitHub\SaSeRoS-Team359\Object_detection\../object_detection.h"
21	61	136	#line 61 "C:\Users\kjeld\Documents\GitHub\SaSeRoS-Team359\Object_detection\../object_detection.h"
21	62	136		subcall TurnRobot, __TurnRobot_return
21	61	138	#line 61 "C:\Users\kjeld\Documents\GitHub\SaSeRoS-Team359\Object_detection\../object_detection.h"
21	61	138	#line 61 "C:\Users\kjeld\Documents\GitHub\SaSeRoS-Team359\Object_detection\../object_detection.h"
21	62	138		set __Drive_Forward_7qG2_pwr_7qG2_000, 50
21	61	141	#line 61 "C:\Users\kjeld\Documents\GitHub\SaSeRoS-Team359\Object_detection\../object_detection.h"
21	62	141	#line 62 "C:\Users\kjeld\Documents\GitHub\SaSeRoS-Team359\Object_detection\../object_detection.h"
21	63	141		subcall Drive_Forward, __Drive_Forward_return
21	62	143	#line 62 "C:\Users\kjeld\Documents\GitHub\SaSeRoS-Team359\Object_detection\../object_detection.h"
21	63	143	#line 63 "C:\Users\kjeld\Documents\GitHub\SaSeRoS-Team359\Object_detection\../object_detection.h"
21	64	143		set direction, 1
21	63	146	#line 63 "C:\Users\kjeld\Documents\GitHub\SaSeRoS-Team359\Object_detection\../object_detection.h"
21	63	146	#line 63 "C:\Users\kjeld\Documents\GitHub\SaSeRoS-Team359\Object_detection\../object_detection.h"
21	64	146	#line 64 "C:\Users\kjeld\Documents\GitHub\SaSeRoS-Team359\Object_detection\../object_detection.h"
21	65	146		subcall LongBeep, __LongBeep_return
21	64	148	#line 64 "C:\Users\kjeld\Documents\GitHub\SaSeRoS-Team359\Object_detection\../object_detection.h"
21	67	148	#line 67 "C:\Users\kjeld\Documents\GitHub\SaSeRoS-Team359\Object_detection\../object_detection.h"
21	68	148	#line 68 "C:\Users\kjeld\Documents\GitHub\SaSeRoS-Team359\Object_detection\../object_detection.h"
21	69	148		jmp __NXC_Label_887
21	68	150	#line 68 "C:\Users\kjeld\Documents\GitHub\SaSeRoS-Team359\Object_detection\../object_detection.h"
21	69	150		exit -1, -1
22	10	0	#line 10 "C:\Users\kjeld\AppData\Local\Temp\temp.nxc"
22	11	0		set __D0EdgeDetection, 1
22	11	3	#line 11 "C:\Users\kjeld\AppData\Local\Temp\temp.nxc"
22	12	3		tst 5, __zfEdgeDetection, __D0EdgeDetection
22	11	6	#line 11 "C:\Users\kjeld\AppData\Local\Temp\temp.nxc"
22	12	6		brtst 4, __NXC_Label_942, __zfEdgeDetection
22	11	9	#line 11 "C:\Users\kjeld\AppData\Local\Temp\temp.nxc"
22	12	9		subcall DetectEdge, __DetectEdge_return
22	11	11	#line 11 "C:\Users\kjeld\AppData\Local\Temp\temp.nxc"
22	12	11		mov __DU0EdgeDetection, __DU0DetectEdge
22	12	13	#line 12 "C:\Users\kjeld\AppData\Local\Temp\temp.nxc"
22	13	13		tst 5, __zfEdgeDetection, __DU0EdgeDetection
22	12	16	#line 12 "C:\Users\kjeld\AppData\Local\Temp\temp.nxc"
22	13	16		brtst 4, __NXC_Label_947, __zfEdgeDetection
22	13	19	#line 13 "C:\Users\kjeld\AppData\Local\Temp\temp.nxc"
22	14	19		subcall Stop_Driving, __Stop_Driving_return
22	13	21	#line 13 "C:\Users\kjeld\AppData\Local\Temp\temp.nxc"
22	13	21	#line 13 "C:\Users\kjeld\AppData\Local\Temp\temp.nxc"
22	14	21		set __Drive_Backward_7qG2_pwr_7qG2_000, 50
22	13	24	#line 13 "C:\Users\kjeld\AppData\Local\Temp\temp.nxc"
22	14	24	#line 14 "C:\Users\kjeld\AppData\Local\Temp\temp.nxc"
22	15	24		subcall Drive_Backward, __Drive_Backward_return
22	14	26	#line 14 "C:\Users\kjeld\AppData\Local\Temp\temp.nxc"
22	14	26	#line 14 "C:\Users\kjeld\AppData\Local\Temp\temp.nxc"
22	14	26	#line 14 "C:\Users\kjeld\AppData\Local\Temp\temp.nxc"
22	7921	26	#line 7921 "NXCDefs.h"
22	7922	26		wait 1000
22	7921	28	#line 7921 "NXCDefs.h"
22	15	28	#line 15 "C:\Users\kjeld\AppData\Local\Temp\temp.nxc"
22	16	28	#line 16 "C:\Users\kjeld\AppData\Local\Temp\temp.nxc"
22	17	28		subcall Stop_Driving, __Stop_Driving_return
22	16	30	#line 16 "C:\Users\kjeld\AppData\Local\Temp\temp.nxc"
22	16	30	#line 16 "C:\Users\kjeld\AppData\Local\Temp\temp.nxc"
22	17	30		mov __DU0EdgeDetection, direction
22	17	32	#line 17 "C:\Users\kjeld\AppData\Local\Temp\temp.nxc"
22	18	32		tst 5, __zfEdgeDetection, __DU0EdgeDetection
22	17	35	#line 17 "C:\Users\kjeld\AppData\Local\Temp\temp.nxc"
22	18	35		brtst 4, __NXC_Label_953, __zfEdgeDetection
22	18	38	#line 18 "C:\Users\kjeld\AppData\Local\Temp\temp.nxc"
22	19	38		subcall Random_Angle, __Random_Angle_return
22	18	40	#line 18 "C:\Users\kjeld\AppData\Local\Temp\temp.nxc"
22	19	40		mov angle, __D0Random_Angle
22	18	42	#line 18 "C:\Users\kjeld\AppData\Local\Temp\temp.nxc"
22	18	42	#line 18 "C:\Users\kjeld\AppData\Local\Temp\temp.nxc"
22	18	42	#line 18 "C:\Users\kjeld\AppData\Local\Temp\temp.nxc"
22	19	42		mov __CheckDirection_7qG2_dir_7qG2_000, __D0Random_Angle
22	18	44	#line 18 "C:\Users\kjeld\AppData\Local\Temp\temp.nxc"
22	19	44	#line 19 "C:\Users\kjeld\AppData\Local\Temp\temp.nxc"
22	20	44		subcall CheckDirection, __CheckDirection_return
22	19	46	#line 19 "C:\Users\kjeld\AppData\Local\Temp\temp.nxc"
22	19	46	#line 19 "C:\Users\kjeld\AppData\Local\Temp\temp.nxc"
22	20	46		not direction, __DU0CheckDirection
22	19	49	#line 19 "C:\Users\kjeld\AppData\Local\Temp\temp.nxc"
22	19	49	#line 19 "C:\Users\kjeld\AppData\Local\Temp\temp.nxc"
22	22	49	#line 22 "C:\Users\kjeld\AppData\Local\Temp\temp.nxc"
22	23	49		jmp __NXC_Label_952
22	22	51	#line 22 "C:\Users\kjeld\AppData\Local\Temp\temp.nxc"
22	22	51	#line 22 "C:\Users\kjeld\AppData\Local\Temp\temp.nxc"
22	23	51		mov __TurnRobot_7qG2_deg_7qG2_000, angle
22	22	53	#line 22 "C:\Users\kjeld\AppData\Local\Temp\temp.nxc"
22	22	53	#line 22 "C:\Users\kjeld\AppData\Local\Temp\temp.nxc"
22	23	53		set __TurnRobot_7qG2_pwr_7qG2_000, 50
22	22	56	#line 22 "C:\Users\kjeld\AppData\Local\Temp\temp.nxc"
22	23	56	#line 23 "C:\Users\kjeld\AppData\Local\Temp\temp.nxc"
22	24	56		subcall TurnRobot, __TurnRobot_return
22	23	58	#line 23 "C:\Users\kjeld\AppData\Local\Temp\temp.nxc"
22	23	58	#line 23 "C:\Users\kjeld\AppData\Local\Temp\temp.nxc"
22	24	58		set __Drive_Forward_7qG2_pwr_7qG2_000, 50
22	23	61	#line 23 "C:\Users\kjeld\AppData\Local\Temp\temp.nxc"
22	24	61	#line 24 "C:\Users\kjeld\AppData\Local\Temp\temp.nxc"
22	25	61		subcall Drive_Forward, __Drive_Forward_return
22	24	63	#line 24 "C:\Users\kjeld\AppData\Local\Temp\temp.nxc"
22	25	63	#line 25 "C:\Users\kjeld\AppData\Local\Temp\temp.nxc"
22	26	63		set direction, 1
22	25	66	#line 25 "C:\Users\kjeld\AppData\Local\Temp\temp.nxc"
22	25	66	#line 25 "C:\Users\kjeld\AppData\Local\Temp\temp.nxc"
22	27	66	#line 27 "C:\Users\kjeld\AppData\Local\Temp\temp.nxc"
22	29	66	#line 29 "C:\Users\kjeld\AppData\Local\Temp\temp.nxc"
22	30	66		jmp __NXC_Label_941
22	29	68	#line 29 "C:\Users\kjeld\AppData\Local\Temp\temp.nxc"
22	30	68		exit -1, -1
23	66	0	#line 66 "C:\Users\kjeld\AppData\Local\Temp\temp.nxc"
23	67	0		subret ____initialize_global_data_return
#CLUMPS
Clump	Name	Offset	File
0	main	0	C:\Users\kjeld\AppData\Local\Temp\temp.nxc
1	__RotateMotor2	18	NXTDefs.h
2	__RotateMotor3	172	NXTDefs.h
3	__ResetSensorSubroutine	326	NXTDefs.h
4	__ReadLSBytes3	339	NXTDefs.h
5	Touch_Init	423	C:\Users\kjeld\Documents\GitHub\SaSeRoS-Team359\Object_detection\../basic_functions/functions.h
6	Range_Sens_Init	443	C:\Users\kjeld\Documents\GitHub\SaSeRoS-Team359\Object_detection\../basic_functions/functions.h
7	Light_Sens_Init	500	C:\Users\kjeld\Documents\GitHub\SaSeRoS-Team359\Object_detection\../basic_functions/functions.h
8	TurnMotor	557	C:\Users\kjeld\Documents\GitHub\SaSeRoS-Team359\Object_detection\../basic_functions/functions.h
9	TurnRobot	656	C:\Users\kjeld\Documents\GitHub\SaSeRoS-Team359\Object_detection\../basic_functions/functions.h
10	Stop_Driving	666	C:\Users\kjeld\Documents\GitHub\SaSeRoS-Team359\Object_detection\../basic_functions/functions.h
11	Drive_Forward	714	C:\Users\kjeld\Documents\GitHub\SaSeRoS-Team359\Object_detection\../basic_functions/functions.h
12	Drive_Backward	770	C:\Users\kjeld\Documents\GitHub\SaSeRoS-Team359\Object_detection\../basic_functions/functions.h
13	ShortBeep	832	C:\Users\kjeld\Documents\GitHub\SaSeRoS-Team359\Object_detection\../basic_functions/functions.h
14	LongBeep	866	C:\Users\kjeld\Documents\GitHub\SaSeRoS-Team359\Object_detection\../basic_functions/functions.h
15	DetectEdge	900	C:\Users\kjeld\Documents\GitHub\SaSeRoS-Team359\Object_detection\../edge_detection.h
16	initialise	971	C:\Users\kjeld\Documents\GitHub\SaSeRoS-Team359\Object_detection\../initialise.h
17	TurnTurret	1563	C:\Users\kjeld\Documents\GitHub\SaSeRoS-Team359\Object_detection\../scanner.h
18	CheckDirection	1595	C:\Users\kjeld\Documents\GitHub\SaSeRoS-Team359\Object_detection\../scanner.h
19	Random_Angle	1657	C:\Users\kjeld\Documents\GitHub\SaSeRoS-Team359\Object_detection\../object_detection.h
20	Look_Back	1674	C:\Users\kjeld\Documents\GitHub\SaSeRoS-Team359\Object_detection\../object_detection.h
21	Object_Detection	1772	C:\Users\kjeld\Documents\GitHub\SaSeRoS-Team359\Object_detection\../object_detection.h
22	EdgeDetection	1925	C:\Users\kjeld\AppData\Local\Temp\temp.nxc
23	__initialize_global_data	1996	C:\Users\kjeld\AppData\Local\Temp\temp.nxc
